---
triple:          'arm64-apple-darwin'
binary-path:     '/Users/yushuai/Documents/Princeton/MAE557/HW1/burgers_solver/solver_implicit'
relocations:
  - { offset: 0x105E9, size: 0x8, addend: 0x0, symName: __ZStL8__ioinit, symObjAddr: 0xB43F80, symBinAddr: 0x1000A4020, symSize: 0x0 }
  - { offset: 0x147E48, size: 0x8, addend: 0x0, symName: __ZN5Eigen8internalL13p2ul_CONJ_XORE, symObjAddr: 0xB43F90, symBinAddr: 0x1000A4030, symSize: 0x0 }
  - { offset: 0x147E85, size: 0x8, addend: 0x0, symName: __ZN5EigenL4lastE, symObjAddr: 0xB43FA0, symBinAddr: 0x1000A4040, symSize: 0x0 }
  - { offset: 0x147ED2, size: 0x8, addend: 0x0, symName: __ZN5EigenL6lastp1E, symObjAddr: 0xB43FA1, symBinAddr: 0x1000A4041, symSize: 0x0 }
  - { offset: 0x147EEC, size: 0x8, addend: 0x0, symName: __ZN5EigenL3allE, symObjAddr: 0xB43FA3, symBinAddr: 0x1000A4043, symSize: 0x0 }
  - { offset: 0x1510AD, size: 0x8, addend: 0x0, symName: __ZN5EigenL3fixILi1EEE, symObjAddr: 0xB440A0, symBinAddr: 0x1000A4140, symSize: 0x0 }
  - { offset: 0x1510BC, size: 0x8, addend: 0x0, symName: __ZN5EigenL3fixILi0EEE, symObjAddr: 0xB440A1, symBinAddr: 0x1000A4141, symSize: 0x0 }
  - { offset: 0x1510CB, size: 0x8, addend: 0x0, symName: __ZN5EigenL3fixILi2EEE, symObjAddr: 0xB440A2, symBinAddr: 0x1000A4142, symSize: 0x0 }
  - { offset: 0x1510DA, size: 0x8, addend: 0x0, symName: __ZN5EigenL3fixILi3EEE, symObjAddr: 0xB440A3, symBinAddr: 0x1000A4143, symSize: 0x0 }
  - { offset: 0x15120A, size: 0x8, addend: 0x0, symName: __GLOBAL__sub_I_solver_implicit.cpp, symObjAddr: 0x5A69C, symBinAddr: 0x10005841C, symSize: 0x14 }
  - { offset: 0x151222, size: 0x8, addend: 0x0, symName: __Z41__static_initialization_and_destruction_0v, symObjAddr: 0x5A5D0, symBinAddr: 0x100058350, symSize: 0xCC }
  - { offset: 0x15127D, size: 0x8, addend: 0x0, symName: __ZN5Eigen8internal14evaluator_baseINS_5BlockIKNS_3MapIKNS_6MatrixIdLin1ELin1ELi0ELin1ELin1EEELi0ENS_11OuterStrideILin1EEEEELi1ELin1ELb0EEEEC2Ev, symObjAddr: 0x57BAC, symBinAddr: 0x10005833C, symSize: 0x14 }
  - { offset: 0x1512A3, size: 0x8, addend: 0x0, symName: __ZNK5Eigen8internal15BlockImpl_denseIKNS_3MapIKNS_6MatrixIdLin1ELin1ELi0ELin1ELin1EEELi0ENS_11OuterStrideILin1EEEEELi1ELin1ELb0ELb1EE11outerStrideEv, symObjAddr: 0x57B8C, symBinAddr: 0x10005831C, symSize: 0x20 }
  - { offset: 0x1512CD, size: 0x8, addend: 0x0, symName: __ZNK5Eigen8internal15BlockImpl_denseIKNS_3MapIKNS_6MatrixIdLin1ELin1ELi0ELin1ELin1EEELi0ENS_11OuterStrideILin1EEEEELi1ELin1ELb0ELb1EE11innerStrideEv, symObjAddr: 0x57B6C, symBinAddr: 0x1000582FC, symSize: 0x20 }
  - { offset: 0x1512F7, size: 0x8, addend: 0x0, symName: __ZNK5Eigen12CwiseUnaryOpINS_8internal18scalar_opposite_opIdEEKNS_6MatrixIdLin1ELi1ELi0ELin1ELi1EEEE16nestedExpressionEv, symObjAddr: 0x57B54, symBinAddr: 0x1000582E4, symSize: 0x18 }
  - { offset: 0x151321, size: 0x8, addend: 0x0, symName: __ZNK5Eigen12CwiseUnaryOpINS_8internal18scalar_opposite_opIdEEKNS_6MatrixIdLin1ELi1ELi0ELin1ELi1EEEE7functorEv, symObjAddr: 0x57B3C, symBinAddr: 0x1000582CC, symSize: 0x18 }
  - { offset: 0x15134B, size: 0x8, addend: 0x0, symName: __ZNK5Eigen7MapBaseINS_5BlockIKNS_3MapIKNS_6MatrixIdLin1ELin1ELi0ELin1ELin1EEELi0ENS_11OuterStrideILin1EEEEELi1ELin1ELb0EEELi0EE4dataEv, symObjAddr: 0x57B24, symBinAddr: 0x1000582B4, symSize: 0x18 }
  - { offset: 0x15139D, size: 0x8, addend: 0x0, symName: __ZN5Eigen8internal17mapbase_evaluatorINS_5BlockIKNS_3MapIKNS_6MatrixIdLin1ELin1ELi0ELin1ELin1EEELi0ENS_11OuterStrideILin1EEEEELi1ELin1ELb0EEENS4_IdLi1ELin1ELi1ELi1ELin1EEEEC2ERKSB_, symObjAddr: 0x57A98, symBinAddr: 0x100058228, symSize: 0x8C }
  - { offset: 0x1513F4, size: 0x8, addend: 0x0, symName: __ZN5Eigen8internal15unary_evaluatorINS_12CwiseUnaryOpINS0_18scalar_opposite_opIdEEKNS_6MatrixIdLin1ELi1ELi0ELin1ELi1EEEEENS0_10IndexBasedEdE4DataC1ERKS8_, symObjAddr: 0x57A40, symBinAddr: 0x1000581D0, symSize: 0x58 }
  - { offset: 0x15143D, size: 0x8, addend: 0x0, symName: __ZN5Eigen8internal14evaluator_baseINS_12CwiseUnaryOpINS0_18scalar_opposite_opIdEEKNS_6MatrixIdLin1ELi1ELi0ELin1ELi1EEEEEEC2Ev, symObjAddr: 0x57A2C, symBinAddr: 0x1000581BC, symSize: 0x14 }
  - { offset: 0x15147D, size: 0x8, addend: 0x0, symName: __ZN5Eigen8internal14evaluator_baseINS_5BlockIKNS2_IKNS_3MapINS_6MatrixIdLi3ELi3ELi0ELi3ELi3EEELi0ENS_11OuterStrideILin1EEEEELi1ELi3ELb0EEELi1ELi2ELb0EEEEC2Ev, symObjAddr: 0x57A18, symBinAddr: 0x1000581A8, symSize: 0x14 }
  - { offset: 0x1514A3, size: 0x8, addend: 0x0, symName: __ZNK5Eigen8internal15BlockImpl_denseIKNS_5BlockIKNS_3MapINS_6MatrixIdLi3ELi3ELi0ELi3ELi3EEELi0ENS_11OuterStrideILin1EEEEELi1ELi3ELb0EEELi1ELi2ELb0ELb1EE11outerStrideEv, symObjAddr: 0x579F8, symBinAddr: 0x100058188, symSize: 0x20 }
  - { offset: 0x1514CD, size: 0x8, addend: 0x0, symName: __ZNK5Eigen8internal15BlockImpl_denseIKNS_5BlockIKNS_3MapINS_6MatrixIdLi3ELi3ELi0ELi3ELi3EEELi0ENS_11OuterStrideILin1EEEEELi1ELi3ELb0EEELi1ELi2ELb0ELb1EE11innerStrideEv, symObjAddr: 0x579D8, symBinAddr: 0x100058168, symSize: 0x20 }
  - { offset: 0x15153A, size: 0x8, addend: 0x0, symName: __ZN5Eigen8internal15block_evaluatorIKNS_3MapIKNS_6MatrixIdLin1ELin1ELi0ELin1ELin1EEELi0ENS_11OuterStrideILin1EEEEELi1ELin1ELb0ELb1EEC2ERKNS_5BlockIS9_Li1ELin1ELb0EEE, symObjAddr: 0x57944, symBinAddr: 0x1000580D4, symSize: 0x94 }
  - { offset: 0x1515A5, size: 0x8, addend: 0x0, symName: __ZN5Eigen8internal15unary_evaluatorINS_12CwiseUnaryOpINS0_18scalar_opposite_opIdEEKNS_6MatrixIdLin1ELi1ELi0ELin1ELi1EEEEENS0_10IndexBasedEdEC2ERKS8_, symObjAddr: 0x578F8, symBinAddr: 0x100058088, symSize: 0x4C }
  - { offset: 0x1515D4, size: 0x8, addend: 0x0, symName: __ZNK5Eigen7MapBaseINS_5BlockIKNS1_IKNS_3MapINS_6MatrixIdLi3ELi3ELi0ELi3ELi3EEELi0ENS_11OuterStrideILin1EEEEELi1ELi3ELb0EEELi1ELi2ELb0EEELi0EE4dataEv, symObjAddr: 0x578E0, symBinAddr: 0x100058070, symSize: 0x18 }
  - { offset: 0x151626, size: 0x8, addend: 0x0, symName: __ZN5Eigen8internal17mapbase_evaluatorINS_5BlockIKNS2_IKNS_3MapINS_6MatrixIdLi3ELi3ELi0ELi3ELi3EEELi0ENS_11OuterStrideILin1EEEEELi1ELi3ELb0EEELi1ELi2ELb0EEENS4_IdLi1ELi2ELi1ELi1ELi2EEEEC2ERKSC_, symObjAddr: 0x57854, symBinAddr: 0x100057FE4, symSize: 0x8C }
  - { offset: 0x15166F, size: 0x8, addend: 0x0, symName: __ZN5Eigen8internal14evaluator_baseINS_5BlockIKNS2_IKNS_3MapINS_6MatrixIdLi3ELi3ELi0ELi3ELi3EEELi0ENS_11OuterStrideILin1EEEEELi1ELi3ELb0EEELi1ELi1ELb0EEEEC2Ev, symObjAddr: 0x57840, symBinAddr: 0x100057FD0, symSize: 0x14 }
  - { offset: 0x151695, size: 0x8, addend: 0x0, symName: __ZNK5Eigen8internal15BlockImpl_denseIKNS_5BlockIKNS_3MapINS_6MatrixIdLi3ELi3ELi0ELi3ELi3EEELi0ENS_11OuterStrideILin1EEEEELi1ELi3ELb0EEELi1ELi1ELb0ELb1EE11outerStrideEv, symObjAddr: 0x57820, symBinAddr: 0x100057FB0, symSize: 0x20 }
  - { offset: 0x1516BF, size: 0x8, addend: 0x0, symName: __ZNK5Eigen8internal15BlockImpl_denseIKNS_5BlockIKNS_3MapINS_6MatrixIdLi3ELi3ELi0ELi3ELi3EEELi0ENS_11OuterStrideILin1EEEEELi1ELi3ELb0EEELi1ELi1ELb0ELb1EE11innerStrideEv, symObjAddr: 0x57800, symBinAddr: 0x100057F90, symSize: 0x20 }
  - { offset: 0x151703, size: 0x8, addend: 0x0, symName: __ZN5Eigen8internal14evaluator_baseINS_5BlockIKNS2_IKNS_3MapINS_6MatrixIdLi2ELi2ELi0ELi2ELi2EEELi0ENS_11OuterStrideILin1EEEEELi1ELi2ELb0EEELi1ELi1ELb0EEEEC2Ev, symObjAddr: 0x577EC, symBinAddr: 0x100057F7C, symSize: 0x14 }
  - { offset: 0x151729, size: 0x8, addend: 0x0, symName: __ZNK5Eigen8internal15BlockImpl_denseIKNS_5BlockIKNS_3MapINS_6MatrixIdLi2ELi2ELi0ELi2ELi2EEELi0ENS_11OuterStrideILin1EEEEELi1ELi2ELb0EEELi1ELi1ELb0ELb1EE11outerStrideEv, symObjAddr: 0x577CC, symBinAddr: 0x100057F5C, symSize: 0x20 }
  - { offset: 0x151753, size: 0x8, addend: 0x0, symName: __ZNK5Eigen8internal15BlockImpl_denseIKNS_5BlockIKNS_3MapINS_6MatrixIdLi2ELi2ELi0ELi2ELi2EEELi0ENS_11OuterStrideILin1EEEEELi1ELi2ELb0EEELi1ELi1ELb0ELb1EE11innerStrideEv, symObjAddr: 0x577AC, symBinAddr: 0x100057F3C, symSize: 0x20 }
  - { offset: 0x151797, size: 0x8, addend: 0x0, symName: __ZN5Eigen8internal14evaluator_baseINS_5BlockIKNS_3MapINS_6MatrixIdLin1ELi1ELi0ELin1ELi1EEELi0ENS_11OuterStrideILin1EEEEELin1ELi1ELb1EEEEC2Ev, symObjAddr: 0x57798, symBinAddr: 0x100057F28, symSize: 0x14 }
  - { offset: 0x1517BD, size: 0x8, addend: 0x0, symName: __ZNK5Eigen8internal15BlockImpl_denseIKNS_3MapINS_6MatrixIdLin1ELi1ELi0ELin1ELi1EEELi0ENS_11OuterStrideILin1EEEEELin1ELi1ELb1ELb1EE11outerStrideEv, symObjAddr: 0x57778, symBinAddr: 0x100057F08, symSize: 0x20 }
  - { offset: 0x1517E7, size: 0x8, addend: 0x0, symName: __ZNK5Eigen8internal15BlockImpl_denseIKNS_3MapINS_6MatrixIdLin1ELi1ELi0ELin1ELi1EEELi0ENS_11OuterStrideILin1EEEEELin1ELi1ELb1ELb1EE11innerStrideEv, symObjAddr: 0x57758, symBinAddr: 0x100057EE8, symSize: 0x20 }
  - { offset: 0x151839, size: 0x8, addend: 0x0, symName: __ZN5Eigen8internal9evaluatorINS_5BlockIKNS_3MapIKNS_6MatrixIdLin1ELin1ELi0ELin1ELin1EEELi0ENS_11OuterStrideILin1EEEEELi1ELin1ELb0EEEEC2ERKSB_, symObjAddr: 0x57730, symBinAddr: 0x100057EC0, symSize: 0x28 }
  - { offset: 0x151868, size: 0x8, addend: 0x0, symName: __ZNK5Eigen8internal15unary_evaluatorINS_12CwiseUnaryOpINS0_18scalar_opposite_opIdEEKNS_6MatrixIdLin1ELi1ELi0ELin1ELi1EEEEENS0_10IndexBasedEdE4Data4funcEv, symObjAddr: 0x5771C, symBinAddr: 0x100057EAC, symSize: 0x14 }
  - { offset: 0x1518B9, size: 0x8, addend: 0x0, symName: __ZN5Eigen8internal9evaluatorINS_12CwiseUnaryOpINS0_18scalar_opposite_opIdEEKNS_6MatrixIdLin1ELi1ELi0ELin1ELi1EEEEEEC1ERKS8_, symObjAddr: 0x576F4, symBinAddr: 0x100057E84, symSize: 0x28 }
  - { offset: 0x151902, size: 0x8, addend: 0x0, symName: __ZN5Eigen8internal14evaluator_baseINS_5BlockINS_12CwiseUnaryOpINS0_18scalar_opposite_opIdEEKNS_6MatrixIdLin1ELi1ELi0ELin1ELi1EEEEELin1ELi1ELb1EEEEC2Ev, symObjAddr: 0x576E0, symBinAddr: 0x100057E70, symSize: 0x14 }
  - { offset: 0x151928, size: 0x8, addend: 0x0, symName: __ZNK5Eigen8internal15BlockImpl_denseINS_12CwiseUnaryOpINS0_18scalar_opposite_opIdEEKNS_6MatrixIdLin1ELi1ELi0ELin1ELi1EEEEELin1ELi1ELb1ELb0EE8startColEv, symObjAddr: 0x576C8, symBinAddr: 0x100057E58, symSize: 0x18 }
  - { offset: 0x151952, size: 0x8, addend: 0x0, symName: __ZNK5Eigen8internal15BlockImpl_denseINS_12CwiseUnaryOpINS0_18scalar_opposite_opIdEEKNS_6MatrixIdLin1ELi1ELi0ELin1ELi1EEEEELin1ELi1ELb1ELb0EE8startRowEv, symObjAddr: 0x576A8, symBinAddr: 0x100057E38, symSize: 0x20 }
  - { offset: 0x15197C, size: 0x8, addend: 0x0, symName: __ZNK5Eigen8internal15BlockImpl_denseINS_12CwiseUnaryOpINS0_18scalar_opposite_opIdEEKNS_6MatrixIdLin1ELi1ELi0ELin1ELi1EEEEELin1ELi1ELb1ELb0EE16nestedExpressionEv, symObjAddr: 0x57694, symBinAddr: 0x100057E24, symSize: 0x14 }
  - { offset: 0x1519D8, size: 0x8, addend: 0x0, symName: __ZN5Eigen8internal15block_evaluatorIKNS_5BlockIKNS_3MapINS_6MatrixIdLi3ELi3ELi0ELi3ELi3EEELi0ENS_11OuterStrideILin1EEEEELi1ELi3ELb0EEELi1ELi2ELb0ELb1EEC2ERKNS2_ISB_Li1ELi2ELb0EEE, symObjAddr: 0x57600, symBinAddr: 0x100057D90, symSize: 0x94 }
  - { offset: 0x151A1B, size: 0x8, addend: 0x0, symName: __ZNK5Eigen7MapBaseINS_5BlockIKNS1_IKNS_3MapINS_6MatrixIdLi3ELi3ELi0ELi3ELi3EEELi0ENS_11OuterStrideILin1EEEEELi1ELi3ELb0EEELi1ELi1ELb0EEELi0EE4dataEv, symObjAddr: 0x575E8, symBinAddr: 0x100057D78, symSize: 0x18 }
  - { offset: 0x151A6D, size: 0x8, addend: 0x0, symName: __ZN5Eigen8internal17mapbase_evaluatorINS_5BlockIKNS2_IKNS_3MapINS_6MatrixIdLi3ELi3ELi0ELi3ELi3EEELi0ENS_11OuterStrideILin1EEEEELi1ELi3ELb0EEELi1ELi1ELb0EEENS4_IdLi1ELi1ELi1ELi1ELi1EEEEC2ERKSC_, symObjAddr: 0x5755C, symBinAddr: 0x100057CEC, symSize: 0x8C }
  - { offset: 0x151A9C, size: 0x8, addend: 0x0, symName: __ZNK5Eigen7MapBaseINS_5BlockIKNS1_IKNS_3MapINS_6MatrixIdLi2ELi2ELi0ELi2ELi2EEELi0ENS_11OuterStrideILin1EEEEELi1ELi2ELb0EEELi1ELi1ELb0EEELi0EE4dataEv, symObjAddr: 0x57544, symBinAddr: 0x100057CD4, symSize: 0x18 }
  - { offset: 0x151AEE, size: 0x8, addend: 0x0, symName: __ZN5Eigen8internal17mapbase_evaluatorINS_5BlockIKNS2_IKNS_3MapINS_6MatrixIdLi2ELi2ELi0ELi2ELi2EEELi0ENS_11OuterStrideILin1EEEEELi1ELi2ELb0EEELi1ELi1ELb0EEENS4_IdLi1ELi1ELi1ELi1ELi1EEEEC2ERKSC_, symObjAddr: 0x574B8, symBinAddr: 0x100057C48, symSize: 0x8C }
  - { offset: 0x151B1D, size: 0x8, addend: 0x0, symName: __ZNK5Eigen7MapBaseINS_5BlockIKNS_3MapINS_6MatrixIdLin1ELi1ELi0ELin1ELi1EEELi0ENS_11OuterStrideILin1EEEEELin1ELi1ELb1EEELi0EE4dataEv, symObjAddr: 0x574A0, symBinAddr: 0x100057C30, symSize: 0x18 }
  - { offset: 0x151B6F, size: 0x8, addend: 0x0, symName: __ZN5Eigen8internal17mapbase_evaluatorINS_5BlockIKNS_3MapINS_6MatrixIdLin1ELi1ELi0ELin1ELi1EEELi0ENS_11OuterStrideILin1EEEEELin1ELi1ELb1EEES5_EC2ERKSA_, symObjAddr: 0x57414, symBinAddr: 0x100057BA4, symSize: 0x8C }
  - { offset: 0x151BC5, size: 0x8, addend: 0x0, symName: __ZN5Eigen8internal9evaluatorIKNS_5BlockIKNS_3MapIKNS_6MatrixIdLin1ELin1ELi0ELin1ELin1EEELi0ENS_11OuterStrideILin1EEEEELi1ELin1ELb0EEEEC1ERSC_, symObjAddr: 0x573EC, symBinAddr: 0x100057B7C, symSize: 0x28 }
  - { offset: 0x151C0E, size: 0x8, addend: 0x0, symName: __ZN5Eigen8internal14evaluator_baseINS_9TransposeIKNS_5BlockIKNS_3MapIKNS_6MatrixIdLin1ELin1ELi0ELin1ELin1EEELi0ENS_11OuterStrideILin1EEEEELi1ELin1ELb0EEEEEEC2Ev, symObjAddr: 0x573D8, symBinAddr: 0x100057B68, symSize: 0x14 }
  - { offset: 0x151C34, size: 0x8, addend: 0x0, symName: __ZNK5Eigen9TransposeIKNS_5BlockIKNS_3MapIKNS_6MatrixIdLin1ELin1ELi0ELin1ELin1EEELi0ENS_11OuterStrideILin1EEEEELi1ELin1ELb0EEEE16nestedExpressionEv, symObjAddr: 0x573C4, symBinAddr: 0x100057B54, symSize: 0x14 }
  - { offset: 0x151C5E, size: 0x8, addend: 0x0, symName: __ZNK5Eigen8internal15unary_evaluatorINS_12CwiseUnaryOpINS0_18scalar_opposite_opIdEEKNS_6MatrixIdLin1ELi1ELi0ELin1ELi1EEEEENS0_10IndexBasedEdE5coeffEll, symObjAddr: 0x5736C, symBinAddr: 0x100057AFC, symSize: 0x58 }
  - { offset: 0x151CD2, size: 0x8, addend: 0x0, symName: __ZN5Eigen8internal15unary_evaluatorINS_5BlockINS_12CwiseUnaryOpINS0_18scalar_opposite_opIdEEKNS_6MatrixIdLin1ELi1ELi0ELin1ELi1EEEEELin1ELi1ELb1EEENS0_10IndexBasedEdEC2ERKSA_, symObjAddr: 0x57290, symBinAddr: 0x100057A20, symSize: 0xDC }
  - { offset: 0x151D1B, size: 0x8, addend: 0x0, symName: __ZN5Eigen8internal14evaluator_baseINS_5BlockINS_3MapINS_6MatrixIdLi3ELi1ELi0ELi3ELi1EEELi0ENS_6StrideILi0ELi0EEEEELi2ELi1ELb0EEEEC2Ev, symObjAddr: 0x5727C, symBinAddr: 0x100057A0C, symSize: 0x14 }
  - { offset: 0x151D41, size: 0x8, addend: 0x0, symName: __ZNK5Eigen8internal15BlockImpl_denseINS_3MapINS_6MatrixIdLi3ELi1ELi0ELi3ELi1EEELi0ENS_6StrideILi0ELi0EEEEELi2ELi1ELb0ELb1EE11outerStrideEv, symObjAddr: 0x5725C, symBinAddr: 0x1000579EC, symSize: 0x20 }
  - { offset: 0x151D6B, size: 0x8, addend: 0x0, symName: __ZNK5Eigen8internal15BlockImpl_denseINS_3MapINS_6MatrixIdLi3ELi1ELi0ELi3ELi1EEELi0ENS_6StrideILi0ELi0EEEEELi2ELi1ELb0ELb1EE11innerStrideEv, symObjAddr: 0x5723C, symBinAddr: 0x1000579CC, symSize: 0x20 }
  - { offset: 0x151DBD, size: 0x8, addend: 0x0, symName: __ZN5Eigen8internal9evaluatorINS_5BlockIKNS2_IKNS_3MapINS_6MatrixIdLi3ELi3ELi0ELi3ELi3EEELi0ENS_11OuterStrideILin1EEEEELi1ELi3ELb0EEELi1ELi2ELb0EEEEC2ERKSC_, symObjAddr: 0x57214, symBinAddr: 0x1000579A4, symSize: 0x28 }
  - { offset: 0x151E1E, size: 0x8, addend: 0x0, symName: __ZN5Eigen8internal15block_evaluatorIKNS_5BlockIKNS_3MapINS_6MatrixIdLi3ELi3ELi0ELi3ELi3EEELi0ENS_11OuterStrideILin1EEEEELi1ELi3ELb0EEELi1ELi1ELb0ELb1EEC2ERKNS2_ISB_Li1ELi1ELb0EEE, symObjAddr: 0x57180, symBinAddr: 0x100057910, symSize: 0x94 }
  - { offset: 0x151E93, size: 0x8, addend: 0x0, symName: __ZN5Eigen8internal15block_evaluatorIKNS_5BlockIKNS_3MapINS_6MatrixIdLi2ELi2ELi0ELi2ELi2EEELi0ENS_11OuterStrideILin1EEEEELi1ELi2ELb0EEELi1ELi1ELb0ELb1EEC2ERKNS2_ISB_Li1ELi1ELb0EEE, symObjAddr: 0x570EC, symBinAddr: 0x10005787C, symSize: 0x94 }
  - { offset: 0x151ED6, size: 0x8, addend: 0x0, symName: __ZNK5Eigen8internal17mapbase_evaluatorINS_5BlockIKNS2_INS_6MatrixIdLin1ELi1ELi0ELin1ELi1EEELin1ELi1ELb1EEELi1ELi1ELb0EEENS3_IdLi1ELi1ELi0ELi1ELi1EEEE9rowStrideEv, symObjAddr: 0x570D4, symBinAddr: 0x100057864, symSize: 0x18 }
  - { offset: 0x151F00, size: 0x8, addend: 0x0, symName: __ZNK5Eigen8internal17mapbase_evaluatorINS_5BlockIKNS2_INS_6MatrixIdLin1ELi1ELi0ELin1ELi1EEELin1ELi1ELb1EEELi1ELi1ELb0EEENS3_IdLi1ELi1ELi0ELi1ELi1EEEE9colStrideEv, symObjAddr: 0x570B4, symBinAddr: 0x100057844, symSize: 0x20 }
  - { offset: 0x151F2A, size: 0x8, addend: 0x0, symName: __ZN5Eigen8internal31generic_dense_assignment_kernelINS0_9evaluatorINS_3MapINS_6MatrixIdLin1ELi1ELi0ELin1ELi1EEELi0ENS_11OuterStrideILin1EEEEEEENS2_INS3_IS5_Li16ENS_6StrideILi0ELi0EEEEEEENS0_9assign_opIddEELi0EE11assignCoeffEl, symObjAddr: 0x57054, symBinAddr: 0x1000577E4, symSize: 0x60 }
  - { offset: 0x151F65, size: 0x8, addend: 0x0, symName: __ZN5Eigen8internal31generic_dense_assignment_kernelINS0_9evaluatorINS_3MapINS_6MatrixIdLin1ELi1ELi0ELin1ELi1EEELi16ENS_6StrideILi0ELi0EEEEEEENS2_INS3_IS5_Li0ENS_11OuterStrideILin1EEEEEEENS0_9assign_opIddEELi0EE11assignCoeffEl, symObjAddr: 0x56FF4, symBinAddr: 0x100057784, symSize: 0x60 }
  - { offset: 0x151FA0, size: 0x8, addend: 0x0, symName: __ZNK5Eigen8internal17mapbase_evaluatorINS_3MapINS_6MatrixIdLin1ELi1ELi0ELin1ELi1EEELi0ENS_11OuterStrideILin1EEEEES4_E5coeffEl, symObjAddr: 0x56FB4, symBinAddr: 0x100057744, symSize: 0x40 }
  - { offset: 0x15200D, size: 0x8, addend: 0x0, symName: __ZN5Eigen8internal15block_evaluatorIKNS_3MapINS_6MatrixIdLin1ELi1ELi0ELin1ELi1EEELi0ENS_11OuterStrideILin1EEEEELin1ELi1ELb1ELb1EEC2ERKNS_5BlockIS8_Lin1ELi1ELb1EEE, symObjAddr: 0x56F20, symBinAddr: 0x1000576B0, symSize: 0x94 }
  - { offset: 0x152078, size: 0x8, addend: 0x0, symName: __ZN5Eigen8internal15unary_evaluatorINS_9TransposeIKNS_5BlockIKNS_3MapIKNS_6MatrixIdLin1ELin1ELi0ELin1ELin1EEELi0ENS_11OuterStrideILin1EEEEELi1ELin1ELb0EEEEENS0_10IndexBasedEdEC2ERKSE_, symObjAddr: 0x56EC8, symBinAddr: 0x100057658, symSize: 0x58 }
  - { offset: 0x1520A7, size: 0x8, addend: 0x0, symName: __ZNK5Eigen8internal15unary_evaluatorINS_5BlockINS_12CwiseUnaryOpINS0_18scalar_opposite_opIdEEKNS_6MatrixIdLin1ELi1ELi0ELin1ELi1EEEEELin1ELi1ELb1EEENS0_10IndexBasedEdE5coeffEll, symObjAddr: 0x56E60, symBinAddr: 0x1000575F0, symSize: 0x68 }
  - { offset: 0x15211B, size: 0x8, addend: 0x0, symName: __ZN5Eigen8internal15block_evaluatorINS_12CwiseUnaryOpINS0_18scalar_opposite_opIdEEKNS_6MatrixIdLin1ELi1ELi0ELin1ELi1EEEEELin1ELi1ELb1ELb0EEC2ERKNS_5BlockIS8_Lin1ELi1ELb1EEE, symObjAddr: 0x56E38, symBinAddr: 0x1000575C8, symSize: 0x28 }
  - { offset: 0x152164, size: 0x8, addend: 0x0, symName: __ZN5Eigen8internal14evaluator_baseINS_5BlockIKNS2_IKNS_3MapIKNS_6MatrixIdLin1ELin1ELi0ELin1ELin1EEELi0ENS_11OuterStrideILin1EEEEELin1ELi1ELb1EEELin1ELi1ELb0EEEEC2Ev, symObjAddr: 0x56E24, symBinAddr: 0x1000575B4, symSize: 0x14 }
  - { offset: 0x15218A, size: 0x8, addend: 0x0, symName: __ZNK5Eigen8internal15BlockImpl_denseIKNS_5BlockIKNS_3MapIKNS_6MatrixIdLin1ELin1ELi0ELin1ELin1EEELi0ENS_11OuterStrideILin1EEEEELin1ELi1ELb1EEELin1ELi1ELb0ELb1EE11outerStrideEv, symObjAddr: 0x56E04, symBinAddr: 0x100057594, symSize: 0x20 }
  - { offset: 0x1521B4, size: 0x8, addend: 0x0, symName: __ZNK5Eigen8internal15BlockImpl_denseIKNS_5BlockIKNS_3MapIKNS_6MatrixIdLin1ELin1ELi0ELin1ELin1EEELi0ENS_11OuterStrideILin1EEEEELin1ELi1ELb1EEELin1ELi1ELb0ELb1EE11innerStrideEv, symObjAddr: 0x56DE4, symBinAddr: 0x100057574, symSize: 0x20 }
  - { offset: 0x1521DE, size: 0x8, addend: 0x0, symName: __ZNK5Eigen8internal17mapbase_evaluatorINS_5BlockIKNS2_IKNS_3MapINS_6MatrixIdLi3ELi3ELi0ELi3ELi3EEELi0ENS_11OuterStrideILin1EEEEELi1ELi3ELb0EEELi1ELi2ELb0EEENS4_IdLi1ELi2ELi1ELi1ELi2EEEE9rowStrideEv, symObjAddr: 0x56DCC, symBinAddr: 0x10005755C, symSize: 0x18 }
  - { offset: 0x152208, size: 0x8, addend: 0x0, symName: __ZNK5Eigen8internal17mapbase_evaluatorINS_5BlockIKNS2_IKNS_3MapINS_6MatrixIdLi3ELi3ELi0ELi3ELi3EEELi0ENS_11OuterStrideILin1EEEEELi1ELi3ELb0EEELi1ELi2ELb0EEENS4_IdLi1ELi2ELi1ELi1ELi2EEEE9colStrideEv, symObjAddr: 0x56DAC, symBinAddr: 0x10005753C, symSize: 0x20 }
  - { offset: 0x152232, size: 0x8, addend: 0x0, symName: __ZNK5Eigen7MapBaseINS_5BlockINS_3MapINS_6MatrixIdLi3ELi1ELi0ELi3ELi1EEELi0ENS_6StrideILi0ELi0EEEEELi2ELi1ELb0EEELi1EE4dataEv, symObjAddr: 0x56D94, symBinAddr: 0x100057524, symSize: 0x18 }
  - { offset: 0x152284, size: 0x8, addend: 0x0, symName: __ZN5Eigen8internal17mapbase_evaluatorINS_5BlockINS_3MapINS_6MatrixIdLi3ELi1ELi0ELi3ELi1EEELi0ENS_6StrideILi0ELi0EEEEELi2ELi1ELb0EEENS4_IdLi2ELi1ELi0ELi2ELi1EEEEC2ERKS9_, symObjAddr: 0x56D08, symBinAddr: 0x100057498, symSize: 0x8C }
  - { offset: 0x1522DA, size: 0x8, addend: 0x0, symName: __ZN5Eigen8internal9evaluatorIKNS_5BlockIKNS2_IKNS_3MapINS_6MatrixIdLi3ELi3ELi0ELi3ELi3EEELi0ENS_11OuterStrideILin1EEEEELi1ELi3ELb0EEELi1ELi2ELb0EEEEC1ERSD_, symObjAddr: 0x56CE0, symBinAddr: 0x100057470, symSize: 0x28 }
  - { offset: 0x152323, size: 0x8, addend: 0x0, symName: __ZN5Eigen8internal14evaluator_baseINS_9TransposeIKNS_5BlockIKNS3_IKNS_3MapINS_6MatrixIdLi3ELi3ELi0ELi3ELi3EEELi0ENS_11OuterStrideILin1EEEEELi1ELi3ELb0EEELi1ELi2ELb0EEEEEEC2Ev, symObjAddr: 0x56CCC, symBinAddr: 0x10005745C, symSize: 0x14 }
  - { offset: 0x152349, size: 0x8, addend: 0x0, symName: __ZNK5Eigen9TransposeIKNS_5BlockIKNS1_IKNS_3MapINS_6MatrixIdLi3ELi3ELi0ELi3ELi3EEELi0ENS_11OuterStrideILin1EEEEELi1ELi3ELb0EEELi1ELi2ELb0EEEE16nestedExpressionEv, symObjAddr: 0x56CB8, symBinAddr: 0x100057448, symSize: 0x14 }
  - { offset: 0x15238D, size: 0x8, addend: 0x0, symName: __ZN5Eigen8internal14evaluator_baseINS_5BlockINS_3MapINS_6MatrixIdLi3ELi1ELi0ELi3ELi1EEELi0ENS_6StrideILi0ELi0EEEEELi1ELi1ELb0EEEEC2Ev, symObjAddr: 0x56CA4, symBinAddr: 0x100057434, symSize: 0x14 }
  - { offset: 0x1523B3, size: 0x8, addend: 0x0, symName: __ZNK5Eigen8internal15BlockImpl_denseINS_3MapINS_6MatrixIdLi3ELi1ELi0ELi3ELi1EEELi0ENS_6StrideILi0ELi0EEEEELi1ELi1ELb0ELb1EE11outerStrideEv, symObjAddr: 0x56C84, symBinAddr: 0x100057414, symSize: 0x20 }
  - { offset: 0x1523DD, size: 0x8, addend: 0x0, symName: __ZNK5Eigen8internal15BlockImpl_denseINS_3MapINS_6MatrixIdLi3ELi1ELi0ELi3ELi1EEELi0ENS_6StrideILi0ELi0EEEEELi1ELi1ELb0ELb1EE11innerStrideEv, symObjAddr: 0x56C64, symBinAddr: 0x1000573F4, symSize: 0x20 }
  - { offset: 0x15242F, size: 0x8, addend: 0x0, symName: __ZN5Eigen8internal9evaluatorINS_5BlockIKNS2_IKNS_3MapINS_6MatrixIdLi3ELi3ELi0ELi3ELi3EEELi0ENS_11OuterStrideILin1EEEEELi1ELi3ELb0EEELi1ELi1ELb0EEEEC2ERKSC_, symObjAddr: 0x56C3C, symBinAddr: 0x1000573CC, symSize: 0x28 }
  - { offset: 0x152478, size: 0x8, addend: 0x0, symName: __ZN5Eigen8internal14evaluator_baseINS_5BlockINS_3MapINS_6MatrixIdLi2ELi1ELi0ELi2ELi1EEELi0ENS_6StrideILi0ELi0EEEEELi1ELi1ELb0EEEEC2Ev, symObjAddr: 0x56C28, symBinAddr: 0x1000573B8, symSize: 0x14 }
  - { offset: 0x15249E, size: 0x8, addend: 0x0, symName: __ZNK5Eigen8internal15BlockImpl_denseINS_3MapINS_6MatrixIdLi2ELi1ELi0ELi2ELi1EEELi0ENS_6StrideILi0ELi0EEEEELi1ELi1ELb0ELb1EE11outerStrideEv, symObjAddr: 0x56C08, symBinAddr: 0x100057398, symSize: 0x20 }
  - { offset: 0x1524C8, size: 0x8, addend: 0x0, symName: __ZNK5Eigen8internal15BlockImpl_denseINS_3MapINS_6MatrixIdLi2ELi1ELi0ELi2ELi1EEELi0ENS_6StrideILi0ELi0EEEEELi1ELi1ELb0ELb1EE11innerStrideEv, symObjAddr: 0x56BE8, symBinAddr: 0x100057378, symSize: 0x20 }
  - { offset: 0x15251A, size: 0x8, addend: 0x0, symName: __ZN5Eigen8internal9evaluatorINS_5BlockIKNS2_IKNS_3MapINS_6MatrixIdLi2ELi2ELi0ELi2ELi2EEELi0ENS_11OuterStrideILin1EEEEELi1ELi2ELb0EEELi1ELi1ELb0EEEEC2ERKSC_, symObjAddr: 0x56BC0, symBinAddr: 0x100057350, symSize: 0x28 }
  - { offset: 0x152549, size: 0x8, addend: 0x0, symName: __ZNK5Eigen8internal17mapbase_evaluatorINS_5BlockIKNS2_INS_6MatrixIdLin1ELi1ELi0ELin1ELi1EEELin1ELi1ELb1EEELi1ELi1ELb0EEENS3_IdLi1ELi1ELi0ELi1ELi1EEEE5coeffEll, symObjAddr: 0x56B58, symBinAddr: 0x1000572E8, symSize: 0x68 }
  - { offset: 0x152595, size: 0x8, addend: 0x0, symName: __ZN5Eigen8internal31generic_dense_assignment_kernelINS0_9evaluatorINS_3MapINS_6MatrixIdLin1ELi1ELi0ELin1ELi1EEELi0ENS_11OuterStrideILin1EEEEEEENS2_INS3_IS5_Li16ENS_6StrideILi0ELi0EEEEEEENS0_9assign_opIddEELi0EE12assignPacketILi16ELi0E13__Float64x2_tEEvl, symObjAddr: 0x56AEC, symBinAddr: 0x10005727C, symSize: 0x6C }
  - { offset: 0x1525E9, size: 0x8, addend: 0x0, symName: __ZN5Eigen8internal31unaligned_dense_assignment_loopILb0EE3runINS0_31generic_dense_assignment_kernelINS0_9evaluatorINS_3MapINS_6MatrixIdLin1ELi1ELi0ELin1ELi1EEELi0ENS_11OuterStrideILin1EEEEEEENS5_INS6_IS8_Li16ENS_6StrideILi0ELi0EEEEEEENS0_9assign_opIddEELi0EEEEEvRT_ll, symObjAddr: 0x56A94, symBinAddr: 0x100057224, symSize: 0x58 }
  - { offset: 0x152666, size: 0x8, addend: 0x0, symName: __ZNK5Eigen8internal31generic_dense_assignment_kernelINS0_9evaluatorINS_3MapINS_6MatrixIdLin1ELi1ELi0ELin1ELi1EEELi0ENS_11OuterStrideILin1EEEEEEENS2_INS3_IS5_Li16ENS_6StrideILi0ELi0EEEEEEENS0_9assign_opIddEELi0EE10dstDataPtrEv, symObjAddr: 0x56A74, symBinAddr: 0x100057204, symSize: 0x20 }
  - { offset: 0x15268C, size: 0x8, addend: 0x0, symName: __ZN5Eigen8internal31unaligned_dense_assignment_loopILb0EE3runINS0_31generic_dense_assignment_kernelINS0_9evaluatorINS_3MapINS_6MatrixIdLin1ELi1ELi0ELin1ELi1EEELi16ENS_6StrideILi0ELi0EEEEEEENS5_INS6_IS8_Li0ENS_11OuterStrideILin1EEEEEEENS0_9assign_opIddEELi0EEEEEvRT_ll, symObjAddr: 0x56A1C, symBinAddr: 0x1000571AC, symSize: 0x58 }
  - { offset: 0x152709, size: 0x8, addend: 0x0, symName: __ZN5Eigen8internal31generic_dense_assignment_kernelINS0_9evaluatorINS_3MapINS_6MatrixIdLin1ELi1ELi0ELin1ELi1EEELi16ENS_6StrideILi0ELi0EEEEEEENS2_INS3_IS5_Li0ENS_11OuterStrideILin1EEEEEEENS0_9assign_opIddEELi0EE12assignPacketILi16ELi0E13__Float64x2_tEEvl, symObjAddr: 0x569B0, symBinAddr: 0x100057140, symSize: 0x6C }
  - { offset: 0x15275D, size: 0x8, addend: 0x0, symName: __ZN5Eigen8internal31unaligned_dense_assignment_loopILb1EE3runINS0_31generic_dense_assignment_kernelINS0_9evaluatorINS_3MapINS_6MatrixIdLin1ELi1ELi0ELin1ELi1EEELi16ENS_6StrideILi0ELi0EEEEEEENS5_INS6_IS8_Li0ENS_11OuterStrideILin1EEEEEEENS0_9assign_opIddEELi0EEEEEvRT_ll, symObjAddr: 0x56994, symBinAddr: 0x100057124, symSize: 0x1C }
  - { offset: 0x15279E, size: 0x8, addend: 0x0, symName: __ZNK5Eigen8internal17mapbase_evaluatorINS_3MapINS_6MatrixIdLin1ELi1ELi0ELin1ELi1EEELi0ENS_11OuterStrideILin1EEEEES4_E6packetILi0E13__Float64x2_tEET0_l, symObjAddr: 0x5693C, symBinAddr: 0x1000570CC, symSize: 0x58 }
  - { offset: 0x152810, size: 0x8, addend: 0x0, symName: __ZN5Eigen8internal31generic_dense_assignment_kernelINS0_9evaluatorINS_3MapINS_6MatrixIdLin1ELi1ELi0ELin1ELi1EEELi0ENS_11OuterStrideILin1EEEEEEES9_NS0_9assign_opIddEELi0EE11assignCoeffEl, symObjAddr: 0x568DC, symBinAddr: 0x10005706C, symSize: 0x60 }
  - { offset: 0x15284B, size: 0x8, addend: 0x0, symName: __ZNK5Eigen8internal17mapbase_evaluatorINS_5BlockIKNS_3MapIKNS_6MatrixIdLin1ELin1ELi0ELin1ELin1EEELi0ENS_11OuterStrideILin1EEEEELi1ELin1ELb0EEENS4_IdLi1ELin1ELi1ELi1ELin1EEEE9rowStrideEv, symObjAddr: 0x568C4, symBinAddr: 0x100057054, symSize: 0x18 }
  - { offset: 0x152875, size: 0x8, addend: 0x0, symName: __ZNK5Eigen8internal17mapbase_evaluatorINS_5BlockIKNS_3MapIKNS_6MatrixIdLin1ELin1ELi0ELin1ELin1EEELi0ENS_11OuterStrideILin1EEEEELi1ELin1ELb0EEENS4_IdLi1ELin1ELi1ELi1ELin1EEEE9colStrideEv, symObjAddr: 0x568A4, symBinAddr: 0x100057034, symSize: 0x20 }
  - { offset: 0x1528C7, size: 0x8, addend: 0x0, symName: __ZN5Eigen8internal9evaluatorINS_5BlockIKNS_3MapINS_6MatrixIdLin1ELi1ELi0ELin1ELi1EEELi0ENS_11OuterStrideILin1EEEEELin1ELi1ELb1EEEEC2ERKSA_, symObjAddr: 0x5687C, symBinAddr: 0x10005700C, symSize: 0x28 }
  - { offset: 0x15291D, size: 0x8, addend: 0x0, symName: __ZN5Eigen8internal9evaluatorINS_9TransposeIKNS_5BlockIKNS_3MapIKNS_6MatrixIdLin1ELin1ELi0ELin1ELin1EEELi0ENS_11OuterStrideILin1EEEEELi1ELin1ELb0EEEEEEC2ERKSE_, symObjAddr: 0x56854, symBinAddr: 0x100056FE4, symSize: 0x28 }
  - { offset: 0x15294C, size: 0x8, addend: 0x0, symName: __ZNK5Eigen8internal15unary_evaluatorINS_5BlockIKNS2_INS_12CwiseUnaryOpINS0_18scalar_opposite_opIdEEKNS_6MatrixIdLin1ELi1ELi0ELin1ELi1EEEEELin1ELi1ELb1EEELi1ELi1ELb0EEENS0_10IndexBasedEdE5coeffEll, symObjAddr: 0x567EC, symBinAddr: 0x100056F7C, symSize: 0x68 }
  - { offset: 0x1529C0, size: 0x8, addend: 0x0, symName: __ZN5Eigen8internal9evaluatorINS_5BlockINS_12CwiseUnaryOpINS0_18scalar_opposite_opIdEEKNS_6MatrixIdLin1ELi1ELi0ELin1ELi1EEEEELin1ELi1ELb1EEEEC2ERKSA_, symObjAddr: 0x567C4, symBinAddr: 0x100056F54, symSize: 0x28 }
  - { offset: 0x1529EF, size: 0x8, addend: 0x0, symName: __ZNK5Eigen8internal17mapbase_evaluatorINS_5BlockINS2_INS_6MatrixIdLin1ELi1ELi0ELin1ELi1EEELin1ELi1ELb1EEELi1ELi1ELb0EEENS3_IdLi1ELi1ELi0ELi1ELi1EEEE9rowStrideEv, symObjAddr: 0x567AC, symBinAddr: 0x100056F3C, symSize: 0x18 }
  - { offset: 0x152A19, size: 0x8, addend: 0x0, symName: __ZNK5Eigen8internal17mapbase_evaluatorINS_5BlockINS2_INS_6MatrixIdLin1ELi1ELi0ELin1ELi1EEELin1ELi1ELb1EEELi1ELi1ELb0EEENS3_IdLi1ELi1ELi0ELi1ELi1EEEE9colStrideEv, symObjAddr: 0x5678C, symBinAddr: 0x100056F1C, symSize: 0x20 }
  - { offset: 0x152A5D, size: 0x8, addend: 0x0, symName: __ZN5Eigen8internal14evaluator_baseINS_5BlockIKNS_3MapINS_6MatrixIdLin1ELin1ELi0ELin1ELin1EEELi0ENS_11OuterStrideILin1EEEEELi1ELin1ELb0EEEEC2Ev, symObjAddr: 0x56778, symBinAddr: 0x100056F08, symSize: 0x14 }
  - { offset: 0x152A83, size: 0x8, addend: 0x0, symName: __ZNK5Eigen8internal15BlockImpl_denseIKNS_3MapINS_6MatrixIdLin1ELin1ELi0ELin1ELin1EEELi0ENS_11OuterStrideILin1EEEEELi1ELin1ELb0ELb1EE11outerStrideEv, symObjAddr: 0x56758, symBinAddr: 0x100056EE8, symSize: 0x20 }
  - { offset: 0x152AAD, size: 0x8, addend: 0x0, symName: __ZNK5Eigen8internal15BlockImpl_denseIKNS_3MapINS_6MatrixIdLin1ELin1ELi0ELin1ELin1EEELi0ENS_11OuterStrideILin1EEEEELi1ELin1ELb0ELb1EE11innerStrideEv, symObjAddr: 0x56738, symBinAddr: 0x100056EC8, symSize: 0x20 }
  - { offset: 0x152AD7, size: 0x8, addend: 0x0, symName: __ZNK5Eigen7MapBaseINS_5BlockIKNS1_IKNS_3MapIKNS_6MatrixIdLin1ELin1ELi0ELin1ELin1EEELi0ENS_11OuterStrideILin1EEEEELin1ELi1ELb1EEELin1ELi1ELb0EEELi0EE4dataEv, symObjAddr: 0x56720, symBinAddr: 0x100056EB0, symSize: 0x18 }
  - { offset: 0x152B29, size: 0x8, addend: 0x0, symName: __ZN5Eigen8internal17mapbase_evaluatorINS_5BlockIKNS2_IKNS_3MapIKNS_6MatrixIdLin1ELin1ELi0ELin1ELin1EEELi0ENS_11OuterStrideILin1EEEEELin1ELi1ELb1EEELin1ELi1ELb0EEENS4_IdLin1ELi1ELi0ELin1ELi1EEEEC2ERKSD_, symObjAddr: 0x56694, symBinAddr: 0x100056E24, symSize: 0x8C }
  - { offset: 0x152B58, size: 0x8, addend: 0x0, symName: __ZNK5Eigen8internal17mapbase_evaluatorINS_5BlockINS_3MapINS_6MatrixIdLi3ELi1ELi0ELi3ELi1EEELi0ENS_6StrideILi0ELi0EEEEELi2ELi1ELb0EEENS4_IdLi2ELi1ELi0ELi2ELi1EEEE9rowStrideEv, symObjAddr: 0x5667C, symBinAddr: 0x100056E0C, symSize: 0x18 }
  - { offset: 0x152B82, size: 0x8, addend: 0x0, symName: __ZNK5Eigen8internal17mapbase_evaluatorINS_5BlockINS_3MapINS_6MatrixIdLi3ELi1ELi0ELi3ELi1EEELi0ENS_6StrideILi0ELi0EEEEELi2ELi1ELb0EEENS4_IdLi2ELi1ELi0ELi2ELi1EEEE9colStrideEv, symObjAddr: 0x56664, symBinAddr: 0x100056DF4, symSize: 0x18 }
  - { offset: 0x152BAC, size: 0x8, addend: 0x0, symName: __ZNK5Eigen8internal17mapbase_evaluatorINS_5BlockIKNS2_IKNS_3MapINS_6MatrixIdLi3ELi3ELi0ELi3ELi3EEELi0ENS_11OuterStrideILin1EEEEELi1ELi3ELb0EEELi1ELi2ELb0EEENS4_IdLi1ELi2ELi1ELi1ELi2EEEE5coeffEll, symObjAddr: 0x565FC, symBinAddr: 0x100056D8C, symSize: 0x68 }
  - { offset: 0x152C2A, size: 0x8, addend: 0x0, symName: __ZN5Eigen8internal15block_evaluatorINS_3MapINS_6MatrixIdLi3ELi1ELi0ELi3ELi1EEELi0ENS_6StrideILi0ELi0EEEEELi2ELi1ELb0ELb1EEC2ERKNS_5BlockIS7_Li2ELi1ELb0EEE, symObjAddr: 0x56568, symBinAddr: 0x100056CF8, symSize: 0x94 }
  - { offset: 0x152C95, size: 0x8, addend: 0x0, symName: __ZN5Eigen8internal15unary_evaluatorINS_9TransposeIKNS_5BlockIKNS3_IKNS_3MapINS_6MatrixIdLi3ELi3ELi0ELi3ELi3EEELi0ENS_11OuterStrideILin1EEEEELi1ELi3ELb0EEELi1ELi2ELb0EEEEENS0_10IndexBasedEdEC2ERKSF_, symObjAddr: 0x56510, symBinAddr: 0x100056CA0, symSize: 0x58 }
  - { offset: 0x152CC4, size: 0x8, addend: 0x0, symName: __ZNK5Eigen7MapBaseINS_5BlockINS_3MapINS_6MatrixIdLi3ELi1ELi0ELi3ELi1EEELi0ENS_6StrideILi0ELi0EEEEELi1ELi1ELb0EEELi1EE4dataEv, symObjAddr: 0x564F8, symBinAddr: 0x100056C88, symSize: 0x18 }
  - { offset: 0x152D16, size: 0x8, addend: 0x0, symName: __ZN5Eigen8internal17mapbase_evaluatorINS_5BlockINS_3MapINS_6MatrixIdLi3ELi1ELi0ELi3ELi1EEELi0ENS_6StrideILi0ELi0EEEEELi1ELi1ELb0EEENS4_IdLi1ELi1ELi0ELi1ELi1EEEEC2ERKS9_, symObjAddr: 0x5646C, symBinAddr: 0x100056BFC, symSize: 0x8C }
  - { offset: 0x152D6C, size: 0x8, addend: 0x0, symName: __ZN5Eigen8internal9evaluatorIKNS_5BlockIKNS2_IKNS_3MapINS_6MatrixIdLi3ELi3ELi0ELi3ELi3EEELi0ENS_11OuterStrideILin1EEEEELi1ELi3ELb0EEELi1ELi1ELb0EEEEC1ERSD_, symObjAddr: 0x56444, symBinAddr: 0x100056BD4, symSize: 0x28 }
  - { offset: 0x152DB5, size: 0x8, addend: 0x0, symName: __ZN5Eigen8internal14evaluator_baseINS_9TransposeIKNS_5BlockIKNS3_IKNS_3MapINS_6MatrixIdLi3ELi3ELi0ELi3ELi3EEELi0ENS_11OuterStrideILin1EEEEELi1ELi3ELb0EEELi1ELi1ELb0EEEEEEC2Ev, symObjAddr: 0x56430, symBinAddr: 0x100056BC0, symSize: 0x14 }
  - { offset: 0x152DDB, size: 0x8, addend: 0x0, symName: __ZNK5Eigen9TransposeIKNS_5BlockIKNS1_IKNS_3MapINS_6MatrixIdLi3ELi3ELi0ELi3ELi3EEELi0ENS_11OuterStrideILin1EEEEELi1ELi3ELb0EEELi1ELi1ELb0EEEE16nestedExpressionEv, symObjAddr: 0x5641C, symBinAddr: 0x100056BAC, symSize: 0x14 }
  - { offset: 0x152E05, size: 0x8, addend: 0x0, symName: __ZNK5Eigen7MapBaseINS_5BlockINS_3MapINS_6MatrixIdLi2ELi1ELi0ELi2ELi1EEELi0ENS_6StrideILi0ELi0EEEEELi1ELi1ELb0EEELi1EE4dataEv, symObjAddr: 0x56404, symBinAddr: 0x100056B94, symSize: 0x18 }
  - { offset: 0x152E57, size: 0x8, addend: 0x0, symName: __ZN5Eigen8internal17mapbase_evaluatorINS_5BlockINS_3MapINS_6MatrixIdLi2ELi1ELi0ELi2ELi1EEELi0ENS_6StrideILi0ELi0EEEEELi1ELi1ELb0EEENS4_IdLi1ELi1ELi0ELi1ELi1EEEEC2ERKS9_, symObjAddr: 0x56378, symBinAddr: 0x100056B08, symSize: 0x8C }
  - { offset: 0x152EAD, size: 0x8, addend: 0x0, symName: __ZN5Eigen8internal9evaluatorIKNS_5BlockIKNS2_IKNS_3MapINS_6MatrixIdLi2ELi2ELi0ELi2ELi2EEELi0ENS_11OuterStrideILin1EEEEELi1ELi2ELb0EEELi1ELi1ELb0EEEEC1ERSD_, symObjAddr: 0x56350, symBinAddr: 0x100056AE0, symSize: 0x28 }
  - { offset: 0x152EF6, size: 0x8, addend: 0x0, symName: __ZN5Eigen8internal14evaluator_baseINS_9TransposeIKNS_5BlockIKNS3_IKNS_3MapINS_6MatrixIdLi2ELi2ELi0ELi2ELi2EEELi0ENS_11OuterStrideILin1EEEEELi1ELi2ELb0EEELi1ELi1ELb0EEEEEEC2Ev, symObjAddr: 0x5633C, symBinAddr: 0x100056ACC, symSize: 0x14 }
  - { offset: 0x152F1C, size: 0x8, addend: 0x0, symName: __ZNK5Eigen9TransposeIKNS_5BlockIKNS1_IKNS_3MapINS_6MatrixIdLi2ELi2ELi0ELi2ELi2EEELi0ENS_11OuterStrideILin1EEEEELi1ELi2ELb0EEELi1ELi1ELb0EEEE16nestedExpressionEv, symObjAddr: 0x56328, symBinAddr: 0x100056AB8, symSize: 0x14 }
  - { offset: 0x152F60, size: 0x8, addend: 0x0, symName: __ZN5Eigen8internal14evaluator_baseINS_14CwiseNullaryOpINS0_18scalar_constant_opIdEEKNS_5ArrayIdLin1ELi1ELi0ELin1ELi1EEEEEEC2Ev, symObjAddr: 0x56314, symBinAddr: 0x100056AA4, symSize: 0x14 }
  - { offset: 0x152F86, size: 0x8, addend: 0x0, symName: __ZNK5Eigen14CwiseNullaryOpINS_8internal18scalar_constant_opIdEEKNS_5ArrayIdLin1ELi1ELi0ELin1ELi1EEEE7functorEv, symObjAddr: 0x562FC, symBinAddr: 0x100056A8C, symSize: 0x18 }
  - { offset: 0x152FB0, size: 0x8, addend: 0x0, symName: __ZN5Eigen8internal31generic_dense_assignment_kernelINS0_9evaluatorINS_5BlockINS3_INS_6MatrixIdLin1ELi1ELi0ELin1ELi1EEELin1ELi1ELb1EEELi1ELi1ELb0EEEEENS2_INS3_IKS6_Li1ELi1ELb0EEEEENS0_9assign_opIddEELi0EE11assignCoeffEll, symObjAddr: 0x56284, symBinAddr: 0x100056A14, symSize: 0x78 }
  - { offset: 0x152FF8, size: 0x8, addend: 0x0, symName: __ZN5Eigen8internal31generic_dense_assignment_kernelINS0_9evaluatorINS_5BlockINS3_INS_6MatrixIdLin1ELi1ELi0ELin1ELi1EEELin1ELi1ELb1EEELi1ELi1ELb0EEEEENS2_INS3_IKS6_Li1ELi1ELb0EEEEENS0_9assign_opIddEELi0EE20colIndexByOuterInnerEll, symObjAddr: 0x5626C, symBinAddr: 0x1000569FC, symSize: 0x18 }
  - { offset: 0x153033, size: 0x8, addend: 0x0, symName: __ZN5Eigen8internal31generic_dense_assignment_kernelINS0_9evaluatorINS_5BlockINS3_INS_6MatrixIdLin1ELi1ELi0ELin1ELi1EEELin1ELi1ELb1EEELi1ELi1ELb0EEEEENS2_INS3_IKS6_Li1ELi1ELb0EEEEENS0_9assign_opIddEELi0EE20rowIndexByOuterInnerEll, symObjAddr: 0x56254, symBinAddr: 0x1000569E4, symSize: 0x18 }
  - { offset: 0x15308C, size: 0x8, addend: 0x0, symName: __ZN5Eigen8internal14evaluator_baseINS_5BlockIKNS2_INS_6MatrixIdLin1ELi1ELi0ELin1ELi1EEELin1ELi1ELb1EEELi1ELi1ELb0EEEEC2Ev, symObjAddr: 0x56240, symBinAddr: 0x1000569D0, symSize: 0x14 }
  - { offset: 0x1530B2, size: 0x8, addend: 0x0, symName: __ZNK5Eigen8internal15BlockImpl_denseIKNS_5BlockINS_6MatrixIdLin1ELi1ELi0ELin1ELi1EEELin1ELi1ELb1EEELi1ELi1ELb0ELb1EE11outerStrideEv, symObjAddr: 0x56220, symBinAddr: 0x1000569B0, symSize: 0x20 }
  - { offset: 0x1530DC, size: 0x8, addend: 0x0, symName: __ZNK5Eigen8internal15BlockImpl_denseIKNS_5BlockINS_6MatrixIdLin1ELi1ELi0ELin1ELi1EEELin1ELi1ELb1EEELi1ELi1ELb0ELb1EE11innerStrideEv, symObjAddr: 0x56200, symBinAddr: 0x100056990, symSize: 0x20 }
  - { offset: 0x153102, size: 0x8, addend: 0x0, symName: __ZN5Eigen8internal21dense_assignment_loopINS0_31generic_dense_assignment_kernelINS0_9evaluatorINS_3MapINS_6MatrixIdLin1ELi1ELi0ELin1ELi1EEELi0ENS_11OuterStrideILin1EEEEEEENS3_INS4_IS6_Li16ENS_6StrideILi0ELi0EEEEEEENS0_9assign_opIddEELi0EEELi3ELi0EE3runERSH_, symObjAddr: 0x5614C, symBinAddr: 0x1000568DC, symSize: 0xB4 }
  - { offset: 0x1531B0, size: 0x8, addend: 0x0, symName: __ZNK5Eigen8internal31generic_dense_assignment_kernelINS0_9evaluatorINS_3MapINS_6MatrixIdLin1ELi1ELi0ELin1ELi1EEELi0ENS_11OuterStrideILin1EEEEEEENS2_INS3_IS5_Li16ENS_6StrideILi0ELi0EEEEEEENS0_9assign_opIddEELi0EE4sizeEv, symObjAddr: 0x5612C, symBinAddr: 0x1000568BC, symSize: 0x20 }
  - { offset: 0x15322C, size: 0x8, addend: 0x0, symName: __ZN5Eigen8internal31generic_dense_assignment_kernelINS0_9evaluatorINS_3MapINS_6MatrixIdLin1ELi1ELi0ELin1ELi1EEELi0ENS_11OuterStrideILin1EEEEEEENS2_INS3_IS5_Li16ENS_6StrideILi0ELi0EEEEEEENS0_9assign_opIddEELi0EEC1ERS9_RKSD_RKSF_RS8_, symObjAddr: 0x560D8, symBinAddr: 0x100056868, symSize: 0x54 }
  - { offset: 0x153272, size: 0x8, addend: 0x0, symName: __ZN5Eigen8internal17resize_if_allowedINS_3MapINS_6MatrixIdLin1ELi1ELi0ELin1ELi1EEELi0ENS_11OuterStrideILin1EEEEENS2_IS4_Li16ENS_6StrideILi0ELi0EEEEEddEEvRT_RKT0_RKNS0_9assign_opIT1_T2_EE, symObjAddr: 0x55FC0, symBinAddr: 0x100056750, symSize: 0x118 }
  - { offset: 0x153317, size: 0x8, addend: 0x0, symName: __ZN5Eigen8internal21dense_assignment_loopINS0_31generic_dense_assignment_kernelINS0_9evaluatorINS_3MapINS_6MatrixIdLin1ELi1ELi0ELin1ELi1EEELi16ENS_6StrideILi0ELi0EEEEEEENS3_INS4_IS6_Li0ENS_11OuterStrideILin1EEEEEEENS0_9assign_opIddEELi0EEELi3ELi0EE3runERSH_, symObjAddr: 0x55F30, symBinAddr: 0x1000566C0, symSize: 0x90 }
  - { offset: 0x1533C5, size: 0x8, addend: 0x0, symName: __ZNK5Eigen8internal31generic_dense_assignment_kernelINS0_9evaluatorINS_3MapINS_6MatrixIdLin1ELi1ELi0ELin1ELi1EEELi16ENS_6StrideILi0ELi0EEEEEEENS2_INS3_IS5_Li0ENS_11OuterStrideILin1EEEEEEENS0_9assign_opIddEELi0EE4sizeEv, symObjAddr: 0x55F10, symBinAddr: 0x1000566A0, symSize: 0x20 }
  - { offset: 0x153441, size: 0x8, addend: 0x0, symName: __ZN5Eigen8internal31generic_dense_assignment_kernelINS0_9evaluatorINS_3MapINS_6MatrixIdLin1ELi1ELi0ELin1ELi1EEELi16ENS_6StrideILi0ELi0EEEEEEENS2_INS3_IS5_Li0ENS_11OuterStrideILin1EEEEEEENS0_9assign_opIddEELi0EEC1ERS9_RKSD_RKSF_RS8_, symObjAddr: 0x55EBC, symBinAddr: 0x10005664C, symSize: 0x54 }
  - { offset: 0x153487, size: 0x8, addend: 0x0, symName: __ZN5Eigen8internal17resize_if_allowedINS_3MapINS_6MatrixIdLin1ELi1ELi0ELin1ELi1EEELi16ENS_6StrideILi0ELi0EEEEENS2_IS4_Li0ENS_11OuterStrideILin1EEEEEddEEvRT_RKT0_RKNS0_9assign_opIT1_T2_EE, symObjAddr: 0x55DA4, symBinAddr: 0x100056534, symSize: 0x118 }
  - { offset: 0x15351F, size: 0x8, addend: 0x0, symName: __ZN5Eigen8internal31generic_dense_assignment_kernelINS0_9evaluatorINS_3MapINS_6MatrixIdLin1ELi1ELi0ELin1ELi1EEELi0ENS_11OuterStrideILin1EEEEEEES9_NS0_9assign_opIddEELi0EE12assignPacketILi16ELi0E13__Float64x2_tEEvl, symObjAddr: 0x55D38, symBinAddr: 0x1000564C8, symSize: 0x6C }
  - { offset: 0x153573, size: 0x8, addend: 0x0, symName: __ZN5Eigen8internal31unaligned_dense_assignment_loopILb0EE3runINS0_31generic_dense_assignment_kernelINS0_9evaluatorINS_3MapINS_6MatrixIdLin1ELi1ELi0ELin1ELi1EEELi0ENS_11OuterStrideILin1EEEEEEESC_NS0_9assign_opIddEELi0EEEEEvRT_ll, symObjAddr: 0x55CE0, symBinAddr: 0x100056470, symSize: 0x58 }
  - { offset: 0x1535F0, size: 0x8, addend: 0x0, symName: __ZNK5Eigen8internal31generic_dense_assignment_kernelINS0_9evaluatorINS_3MapINS_6MatrixIdLin1ELi1ELi0ELin1ELi1EEELi0ENS_11OuterStrideILin1EEEEEEES9_NS0_9assign_opIddEELi0EE10dstDataPtrEv, symObjAddr: 0x55CC0, symBinAddr: 0x100056450, symSize: 0x20 }
  - { offset: 0x15361A, size: 0x8, addend: 0x0, symName: __ZNK5Eigen8internal17mapbase_evaluatorINS_5BlockIKNS_3MapINS_6MatrixIdLin1ELi1ELi0ELin1ELi1EEELi0ENS_11OuterStrideILin1EEEEELin1ELi1ELb1EEES5_E9rowStrideEv, symObjAddr: 0x55CA8, symBinAddr: 0x100056438, symSize: 0x18 }
  - { offset: 0x153644, size: 0x8, addend: 0x0, symName: __ZNK5Eigen8internal17mapbase_evaluatorINS_5BlockIKNS_3MapINS_6MatrixIdLin1ELi1ELi0ELin1ELi1EEELi0ENS_11OuterStrideILin1EEEEELin1ELi1ELb1EEES5_E9colStrideEv, symObjAddr: 0x55C88, symBinAddr: 0x100056418, symSize: 0x20 }
  - { offset: 0x15366E, size: 0x8, addend: 0x0, symName: __ZNK5Eigen8internal17mapbase_evaluatorINS_5BlockIKNS_3MapIKNS_6MatrixIdLin1ELin1ELi0ELin1ELin1EEELi0ENS_11OuterStrideILin1EEEEELi1ELin1ELb0EEENS4_IdLi1ELin1ELi1ELi1ELin1EEEE5coeffEll, symObjAddr: 0x55C20, symBinAddr: 0x1000563B0, symSize: 0x68 }
  - { offset: 0x1536E1, size: 0x8, addend: 0x0, symName: __ZN5Eigen8internal9evaluatorIKNS_5BlockIKNS_3MapINS_6MatrixIdLin1ELi1ELi0ELin1ELi1EEELi0ENS_11OuterStrideILin1EEEEELin1ELi1ELb1EEEEC1ERSB_, symObjAddr: 0x55BF8, symBinAddr: 0x100056388, symSize: 0x28 }
  - { offset: 0x153737, size: 0x8, addend: 0x0, symName: __ZN5Eigen8internal9evaluatorIKNS_9TransposeIKNS_5BlockIKNS_3MapIKNS_6MatrixIdLin1ELin1ELi0ELin1ELin1EEELi0ENS_11OuterStrideILin1EEEEELi1ELin1ELb0EEEEEEC1ERSF_, symObjAddr: 0x55BD0, symBinAddr: 0x100056360, symSize: 0x28 }
  - { offset: 0x153766, size: 0x8, addend: 0x0, symName: __ZNK5Eigen13CwiseBinaryOpINS_8internal22scalar_conj_product_opIddEEKNS_9TransposeIKNS_5BlockIKNS_3MapIKNS_6MatrixIdLin1ELin1ELi0ELin1ELin1EEELi0ENS_11OuterStrideILin1EEEEELi1ELin1ELb0EEEEEKNS5_IKNS6_INS7_IdLin1ELi1ELi0ELin1ELi1EEELi0ESB_EELin1ELi1ELb1EEEE3rhsEv, symObjAddr: 0x55BB8, symBinAddr: 0x100056348, symSize: 0x18 }
  - { offset: 0x153790, size: 0x8, addend: 0x0, symName: __ZNK5Eigen13CwiseBinaryOpINS_8internal22scalar_conj_product_opIddEEKNS_9TransposeIKNS_5BlockIKNS_3MapIKNS_6MatrixIdLin1ELin1ELi0ELin1ELin1EEELi0ENS_11OuterStrideILin1EEEEELi1ELin1ELb0EEEEEKNS5_IKNS6_INS7_IdLin1ELi1ELi0ELin1ELi1EEELi0ESB_EELin1ELi1ELb1EEEE3lhsEv, symObjAddr: 0x55BA4, symBinAddr: 0x100056334, symSize: 0x14 }
  - { offset: 0x1537BA, size: 0x8, addend: 0x0, symName: __ZNK5Eigen13CwiseBinaryOpINS_8internal22scalar_conj_product_opIddEEKNS_9TransposeIKNS_5BlockIKNS_3MapIKNS_6MatrixIdLin1ELin1ELi0ELin1ELin1EEELi0ENS_11OuterStrideILin1EEEEELi1ELin1ELb0EEEEEKNS5_IKNS6_INS7_IdLin1ELi1ELi0ELin1ELi1EEELi0ESB_EELin1ELi1ELb1EEEE7functorEv, symObjAddr: 0x55B8C, symBinAddr: 0x10005631C, symSize: 0x18 }
  - { offset: 0x1537E4, size: 0x8, addend: 0x0, symName: __ZN5Eigen8internal31generic_dense_assignment_kernelINS0_9evaluatorINS_5BlockINS3_INS_6MatrixIdLin1ELi1ELi0ELin1ELi1EEELin1ELi1ELb1EEELi1ELi1ELb0EEEEENS2_INS3_IKNS3_INS_12CwiseUnaryOpINS0_18scalar_opposite_opIdEEKS5_EELin1ELi1ELb1EEELi1ELi1ELb0EEEEENS0_9assign_opIddEELi0EE11assignCoeffEll, symObjAddr: 0x55B14, symBinAddr: 0x1000562A4, symSize: 0x78 }
  - { offset: 0x15382C, size: 0x8, addend: 0x0, symName: __ZN5Eigen8internal31generic_dense_assignment_kernelINS0_9evaluatorINS_5BlockINS3_INS_6MatrixIdLin1ELi1ELi0ELin1ELi1EEELin1ELi1ELb1EEELi1ELi1ELb0EEEEENS2_INS3_IKNS3_INS_12CwiseUnaryOpINS0_18scalar_opposite_opIdEEKS5_EELin1ELi1ELb1EEELi1ELi1ELb0EEEEENS0_9assign_opIddEELi0EE20colIndexByOuterInnerEll, symObjAddr: 0x55AFC, symBinAddr: 0x10005628C, symSize: 0x18 }
  - { offset: 0x153867, size: 0x8, addend: 0x0, symName: __ZN5Eigen8internal31generic_dense_assignment_kernelINS0_9evaluatorINS_5BlockINS3_INS_6MatrixIdLin1ELi1ELi0ELin1ELi1EEELin1ELi1ELb1EEELi1ELi1ELb0EEEEENS2_INS3_IKNS3_INS_12CwiseUnaryOpINS0_18scalar_opposite_opIdEEKS5_EELin1ELi1ELb1EEELi1ELi1ELb0EEEEENS0_9assign_opIddEELi0EE20rowIndexByOuterInnerEll, symObjAddr: 0x55AE4, symBinAddr: 0x100056274, symSize: 0x18 }
  - { offset: 0x1538CD, size: 0x8, addend: 0x0, symName: __ZN5Eigen8internal9evaluatorIKNS_5BlockINS_12CwiseUnaryOpINS0_18scalar_opposite_opIdEEKNS_6MatrixIdLin1ELi1ELi0ELin1ELi1EEEEELin1ELi1ELb1EEEEC1ERSB_, symObjAddr: 0x55ABC, symBinAddr: 0x10005624C, symSize: 0x28 }
  - { offset: 0x153916, size: 0x8, addend: 0x0, symName: __ZN5Eigen8internal14evaluator_baseINS_5BlockIKNS2_INS_12CwiseUnaryOpINS0_18scalar_opposite_opIdEEKNS_6MatrixIdLin1ELi1ELi0ELin1ELi1EEEEELin1ELi1ELb1EEELi1ELi1ELb0EEEEC2Ev, symObjAddr: 0x55AA8, symBinAddr: 0x100056238, symSize: 0x14 }
  - { offset: 0x15393C, size: 0x8, addend: 0x0, symName: __ZNK5Eigen8internal15BlockImpl_denseIKNS_5BlockINS_12CwiseUnaryOpINS0_18scalar_opposite_opIdEEKNS_6MatrixIdLin1ELi1ELi0ELin1ELi1EEEEELin1ELi1ELb1EEELi1ELi1ELb0ELb0EE8startColEv, symObjAddr: 0x55A90, symBinAddr: 0x100056220, symSize: 0x18 }
  - { offset: 0x153966, size: 0x8, addend: 0x0, symName: __ZNK5Eigen8internal15BlockImpl_denseIKNS_5BlockINS_12CwiseUnaryOpINS0_18scalar_opposite_opIdEEKNS_6MatrixIdLin1ELi1ELi0ELin1ELi1EEEEELin1ELi1ELb1EEELi1ELi1ELb0ELb0EE8startRowEv, symObjAddr: 0x55A70, symBinAddr: 0x100056200, symSize: 0x20 }
  - { offset: 0x153990, size: 0x8, addend: 0x0, symName: __ZNK5Eigen8internal15BlockImpl_denseIKNS_5BlockINS_12CwiseUnaryOpINS0_18scalar_opposite_opIdEEKNS_6MatrixIdLin1ELi1ELi0ELin1ELi1EEEEELin1ELi1ELb1EEELi1ELi1ELb0ELb0EE16nestedExpressionEv, symObjAddr: 0x55A5C, symBinAddr: 0x1000561EC, symSize: 0x14 }
  - { offset: 0x1539BA, size: 0x8, addend: 0x0, symName: __ZNK5Eigen8internal14swap_assign_opIdE11assignCoeffERdRKd, symObjAddr: 0x55A30, symBinAddr: 0x1000561C0, symSize: 0x2C }
  - { offset: 0x153A04, size: 0x8, addend: 0x0, symName: __ZNK5Eigen8internal17mapbase_evaluatorINS_5BlockINS2_INS_6MatrixIdLin1ELi1ELi0ELin1ELi1EEELin1ELi1ELb1EEELi1ELi1ELb0EEENS3_IdLi1ELi1ELi0ELi1ELi1EEEE5coeffEll, symObjAddr: 0x559D0, symBinAddr: 0x100056160, symSize: 0x60 }
  - { offset: 0x153A50, size: 0x8, addend: 0x0, symName: __ZN5Eigen8internal17mapbase_evaluatorINS_5BlockINS2_INS_6MatrixIdLin1ELi1ELi0ELin1ELi1EEELin1ELi1ELb1EEELi1ELi1ELb0EEENS3_IdLi1ELi1ELi0ELi1ELi1EEEE8coeffRefEll, symObjAddr: 0x55970, symBinAddr: 0x100056100, symSize: 0x60 }
  - { offset: 0x153A9C, size: 0x8, addend: 0x0, symName: __ZNK5Eigen7MapBaseINS_5BlockIKNS_3MapINS_6MatrixIdLin1ELin1ELi0ELin1ELin1EEELi0ENS_11OuterStrideILin1EEEEELi1ELin1ELb0EEELi0EE4dataEv, symObjAddr: 0x55958, symBinAddr: 0x1000560E8, symSize: 0x18 }
  - { offset: 0x153AEE, size: 0x8, addend: 0x0, symName: __ZN5Eigen8internal17mapbase_evaluatorINS_5BlockIKNS_3MapINS_6MatrixIdLin1ELin1ELi0ELin1ELin1EEELi0ENS_11OuterStrideILin1EEEEELi1ELin1ELb0EEENS4_IdLi1ELin1ELi1ELi1ELin1EEEEC2ERKSA_, symObjAddr: 0x558CC, symBinAddr: 0x10005605C, symSize: 0x8C }
  - { offset: 0x153B4F, size: 0x8, addend: 0x0, symName: __ZN5Eigen8internal15block_evaluatorIKNS_5BlockIKNS_3MapIKNS_6MatrixIdLin1ELin1ELi0ELin1ELin1EEELi0ENS_11OuterStrideILin1EEEEELin1ELi1ELb1EEELin1ELi1ELb0ELb1EEC2ERKNS2_ISC_Lin1ELi1ELb0EEE, symObjAddr: 0x55838, symBinAddr: 0x100055FC8, symSize: 0x94 }
  - { offset: 0x153B92, size: 0x8, addend: 0x0, symName: __ZNK5Eigen8internal17mapbase_evaluatorINS_5BlockINS_3MapINS_6MatrixIdLi3ELi1ELi0ELi3ELi1EEELi0ENS_6StrideILi0ELi0EEEEELi2ELi1ELb0EEENS4_IdLi2ELi1ELi0ELi2ELi1EEEE5coeffEll, symObjAddr: 0x557D8, symBinAddr: 0x100055F68, symSize: 0x60 }
  - { offset: 0x153BDE, size: 0x8, addend: 0x0, symName: __ZNK5Eigen8internal15unary_evaluatorINS_9TransposeIKNS_5BlockIKNS3_IKNS_3MapINS_6MatrixIdLi3ELi3ELi0ELi3ELi3EEELi0ENS_11OuterStrideILin1EEEEELi1ELi3ELb0EEELi1ELi2ELb0EEEEENS0_10IndexBasedEdE5coeffEll, symObjAddr: 0x557A4, symBinAddr: 0x100055F34, symSize: 0x34 }
  - { offset: 0x153C2A, size: 0x8, addend: 0x0, symName: __ZNK5Eigen8internal16binary_evaluatorINS_13CwiseBinaryOpINS0_17scalar_product_opIddEEKNS_9TransposeIKNS_5BlockIKNS6_IKNS_3MapINS_6MatrixIdLi3ELi3ELi0ELi3ELi3EEELi0ENS_11OuterStrideILin1EEEEELi1ELi3ELb0EEELi1ELi2ELb0EEEEEKNS6_INS7_INS8_IdLi3ELi1ELi0ELi3ELi1EEELi0ENS_6StrideILi0ELi0EEEEELi2ELi1ELb0EEEEENS0_10IndexBasedESR_ddE4Data4funcEv, symObjAddr: 0x55790, symBinAddr: 0x100055F20, symSize: 0x14 }
  - { offset: 0x153C7C, size: 0x8, addend: 0x0, symName: __ZN5Eigen8internal9evaluatorINS_5BlockINS_3MapINS_6MatrixIdLi3ELi1ELi0ELi3ELi1EEELi0ENS_6StrideILi0ELi0EEEEELi2ELi1ELb0EEEEC2ERKS9_, symObjAddr: 0x55768, symBinAddr: 0x100055EF8, symSize: 0x28 }
  - { offset: 0x153CD2, size: 0x8, addend: 0x0, symName: __ZN5Eigen8internal9evaluatorINS_9TransposeIKNS_5BlockIKNS3_IKNS_3MapINS_6MatrixIdLi3ELi3ELi0ELi3ELi3EEELi0ENS_11OuterStrideILin1EEEEELi1ELi3ELb0EEELi1ELi2ELb0EEEEEEC2ERKSF_, symObjAddr: 0x55740, symBinAddr: 0x100055ED0, symSize: 0x28 }
  - { offset: 0x153D01, size: 0x8, addend: 0x0, symName: __ZNK5Eigen7MapBaseINS_5BlockINS_3MapINS_6MatrixIdLi3ELi1ELi0ELi3ELi1EEELi0ENS_6StrideILi0ELi0EEEEELi2ELi1ELb0EEELi0EE11checkSanityIS8_EEvNS_8internal9enable_ifIXeqsrNSB_6traitsIT_EE9AlignmentLi0EEPvE4typeE, symObjAddr: 0x55728, symBinAddr: 0x100055EB8, symSize: 0x18 }
  - { offset: 0x153D57, size: 0x8, addend: 0x0, symName: __ZN5Eigen9DenseBaseINS_5BlockINS_3MapINS_6MatrixIdLi3ELi1ELi0ELi3ELi1EEELi0ENS_6StrideILi0ELi0EEEEELi2ELi1ELb0EEEEC2Ev, symObjAddr: 0x55714, symBinAddr: 0x100055EA4, symSize: 0x14 }
  - { offset: 0x153D7D, size: 0x8, addend: 0x0, symName: __ZNK5Eigen8internal17mapbase_evaluatorINS_5BlockIKNS2_IKNS_3MapINS_6MatrixIdLi3ELi3ELi0ELi3ELi3EEELi0ENS_11OuterStrideILin1EEEEELi1ELi3ELb0EEELi1ELi1ELb0EEENS4_IdLi1ELi1ELi1ELi1ELi1EEEE9rowStrideEv, symObjAddr: 0x556FC, symBinAddr: 0x100055E8C, symSize: 0x18 }
  - { offset: 0x153DA7, size: 0x8, addend: 0x0, symName: __ZNK5Eigen8internal17mapbase_evaluatorINS_5BlockIKNS2_IKNS_3MapINS_6MatrixIdLi3ELi3ELi0ELi3ELi3EEELi0ENS_11OuterStrideILin1EEEEELi1ELi3ELb0EEELi1ELi1ELb0EEENS4_IdLi1ELi1ELi1ELi1ELi1EEEE9colStrideEv, symObjAddr: 0x556DC, symBinAddr: 0x100055E6C, symSize: 0x20 }
  - { offset: 0x153E03, size: 0x8, addend: 0x0, symName: __ZN5Eigen8internal15block_evaluatorINS_3MapINS_6MatrixIdLi3ELi1ELi0ELi3ELi1EEELi0ENS_6StrideILi0ELi0EEEEELi1ELi1ELb0ELb1EEC2ERKNS_5BlockIS7_Li1ELi1ELb0EEE, symObjAddr: 0x55648, symBinAddr: 0x100055DD8, symSize: 0x94 }
  - { offset: 0x153E6E, size: 0x8, addend: 0x0, symName: __ZN5Eigen8internal15unary_evaluatorINS_9TransposeIKNS_5BlockIKNS3_IKNS_3MapINS_6MatrixIdLi3ELi3ELi0ELi3ELi3EEELi0ENS_11OuterStrideILin1EEEEELi1ELi3ELb0EEELi1ELi1ELb0EEEEENS0_10IndexBasedEdEC2ERKSF_, symObjAddr: 0x555F0, symBinAddr: 0x100055D80, symSize: 0x58 }
  - { offset: 0x153E9D, size: 0x8, addend: 0x0, symName: __ZNK5Eigen8internal17mapbase_evaluatorINS_3MapINS_6MatrixIdLi3ELi1ELi0ELi3ELi1EEELi0ENS_6StrideILi0ELi0EEEEES4_E9rowStrideEv, symObjAddr: 0x555D8, symBinAddr: 0x100055D68, symSize: 0x18 }
  - { offset: 0x153EC7, size: 0x8, addend: 0x0, symName: __ZNK5Eigen8internal17mapbase_evaluatorINS_3MapINS_6MatrixIdLi3ELi1ELi0ELi3ELi1EEELi0ENS_6StrideILi0ELi0EEEEES4_E9colStrideEv, symObjAddr: 0x555C0, symBinAddr: 0x100055D50, symSize: 0x18 }
  - { offset: 0x153EF1, size: 0x8, addend: 0x0, symName: __ZNK5Eigen8internal17mapbase_evaluatorINS_5BlockIKNS2_IKNS_3MapINS_6MatrixIdLi2ELi2ELi0ELi2ELi2EEELi0ENS_11OuterStrideILin1EEEEELi1ELi2ELb0EEELi1ELi1ELb0EEENS4_IdLi1ELi1ELi1ELi1ELi1EEEE9rowStrideEv, symObjAddr: 0x555A8, symBinAddr: 0x100055D38, symSize: 0x18 }
  - { offset: 0x153F1B, size: 0x8, addend: 0x0, symName: __ZNK5Eigen8internal17mapbase_evaluatorINS_5BlockIKNS2_IKNS_3MapINS_6MatrixIdLi2ELi2ELi0ELi2ELi2EEELi0ENS_11OuterStrideILin1EEEEELi1ELi2ELb0EEELi1ELi1ELb0EEENS4_IdLi1ELi1ELi1ELi1ELi1EEEE9colStrideEv, symObjAddr: 0x55588, symBinAddr: 0x100055D18, symSize: 0x20 }
  - { offset: 0x153F77, size: 0x8, addend: 0x0, symName: __ZN5Eigen8internal15block_evaluatorINS_3MapINS_6MatrixIdLi2ELi1ELi0ELi2ELi1EEELi0ENS_6StrideILi0ELi0EEEEELi1ELi1ELb0ELb1EEC2ERKNS_5BlockIS7_Li1ELi1ELb0EEE, symObjAddr: 0x554F4, symBinAddr: 0x100055C84, symSize: 0x94 }
  - { offset: 0x153FE2, size: 0x8, addend: 0x0, symName: __ZN5Eigen8internal15unary_evaluatorINS_9TransposeIKNS_5BlockIKNS3_IKNS_3MapINS_6MatrixIdLi2ELi2ELi0ELi2ELi2EEELi0ENS_11OuterStrideILin1EEEEELi1ELi2ELb0EEELi1ELi1ELb0EEEEENS0_10IndexBasedEdEC2ERKSF_, symObjAddr: 0x5549C, symBinAddr: 0x100055C2C, symSize: 0x58 }
  - { offset: 0x154011, size: 0x8, addend: 0x0, symName: __ZNK5Eigen8internal17mapbase_evaluatorINS_3MapINS_6MatrixIdLi2ELi1ELi0ELi2ELi1EEELi0ENS_6StrideILi0ELi0EEEEES4_E9rowStrideEv, symObjAddr: 0x55484, symBinAddr: 0x100055C14, symSize: 0x18 }
  - { offset: 0x15403B, size: 0x8, addend: 0x0, symName: __ZNK5Eigen8internal17mapbase_evaluatorINS_3MapINS_6MatrixIdLi2ELi1ELi0ELi2ELi1EEELi0ENS_6StrideILi0ELi0EEEEES4_E9colStrideEv, symObjAddr: 0x5546C, symBinAddr: 0x100055BFC, symSize: 0x18 }
  - { offset: 0x15408D, size: 0x8, addend: 0x0, symName: __ZN5Eigen8internal9evaluatorINS_14CwiseNullaryOpINS0_18scalar_constant_opIdEEKNS_5ArrayIdLin1ELi1ELi0ELin1ELi1EEEEEEC2ERKS8_, symObjAddr: 0x55428, symBinAddr: 0x100055BB8, symSize: 0x44 }
  - { offset: 0x1540B8, size: 0x8, addend: 0x0, symName: __ZN5Eigen8internal55copy_using_evaluator_DefaultTraversal_CompleteUnrollingINS0_31generic_dense_assignment_kernelINS0_9evaluatorINS_5BlockINS4_INS_6MatrixIdLin1ELi1ELi0ELin1ELi1EEELin1ELi1ELb1EEELi1ELi1ELb0EEEEENS3_INS4_IKS7_Li1ELi1ELb0EEEEENS0_9assign_opIddEELi0EEELi1ELi1EE3runERSF_, symObjAddr: 0x55414, symBinAddr: 0x100055BA4, symSize: 0x14 }
  - { offset: 0x1540DE, size: 0x8, addend: 0x0, symName: __ZN5Eigen8internal31generic_dense_assignment_kernelINS0_9evaluatorINS_5BlockINS3_INS_6MatrixIdLin1ELi1ELi0ELin1ELi1EEELin1ELi1ELb1EEELi1ELi1ELb0EEEEENS2_INS3_IKS6_Li1ELi1ELb0EEEEENS0_9assign_opIddEELi0EE23assignCoeffByOuterInnerEll, symObjAddr: 0x553C4, symBinAddr: 0x100055B54, symSize: 0x50 }
  - { offset: 0x15414C, size: 0x8, addend: 0x0, symName: __ZNK5Eigen7MapBaseINS_5BlockIKNS1_INS_6MatrixIdLin1ELi1ELi0ELin1ELi1EEELin1ELi1ELb1EEELi1ELi1ELb0EEELi0EE4dataEv, symObjAddr: 0x553AC, symBinAddr: 0x100055B3C, symSize: 0x18 }
  - { offset: 0x15419E, size: 0x8, addend: 0x0, symName: __ZN5Eigen8internal17mapbase_evaluatorINS_5BlockIKNS2_INS_6MatrixIdLin1ELi1ELi0ELin1ELi1EEELin1ELi1ELb1EEELi1ELi1ELb0EEENS3_IdLi1ELi1ELi0ELi1ELi1EEEEC2ERKS7_, symObjAddr: 0x55320, symBinAddr: 0x100055AB0, symSize: 0x8C }
  - { offset: 0x1541C9, size: 0x8, addend: 0x0, symName: __ZN5Eigen8internal26call_dense_assignment_loopINS_3MapINS_6MatrixIdLin1ELi1ELi0ELin1ELi1EEELi0ENS_11OuterStrideILin1EEEEENS2_IS4_Li16ENS_6StrideILi0ELi0EEEEENS0_9assign_opIddEEEEvRT_RKT0_RKT1_, symObjAddr: 0x55270, symBinAddr: 0x100055A00, symSize: 0xB0 }
  - { offset: 0x15428E, size: 0x8, addend: 0x0, symName: __ZN5Eigen8internal18check_for_aliasingINS_3MapINS_6MatrixIdLin1ELi1ELi0ELin1ELi1EEELi0ENS_11OuterStrideILin1EEEEENS2_IS4_Li16ENS_6StrideILi0ELi0EEEEEEEvRKT_RKT0_, symObjAddr: 0x55258, symBinAddr: 0x1000559E8, symSize: 0x18 }
  - { offset: 0x1542DB, size: 0x8, addend: 0x0, symName: __ZN5Eigen8internal26call_dense_assignment_loopINS_3MapINS_6MatrixIdLin1ELi1ELi0ELin1ELi1EEELi16ENS_6StrideILi0ELi0EEEEENS2_IS4_Li0ENS_11OuterStrideILin1EEEEENS0_9assign_opIddEEEEvRT_RKT0_RKT1_, symObjAddr: 0x551A8, symBinAddr: 0x100055938, symSize: 0xB0 }
  - { offset: 0x1543A0, size: 0x8, addend: 0x0, symName: __ZN5Eigen8internal18check_for_aliasingINS_3MapINS_6MatrixIdLin1ELi1ELi0ELin1ELi1EEELi16ENS_6StrideILi0ELi0EEEEENS2_IS4_Li0ENS_11OuterStrideILin1EEEEEEEvRKT_RKT0_, symObjAddr: 0x55190, symBinAddr: 0x100055920, symSize: 0x18 }
  - { offset: 0x1543ED, size: 0x8, addend: 0x0, symName: __ZN5Eigen8internal21dense_assignment_loopINS0_31generic_dense_assignment_kernelINS0_9evaluatorINS_3MapINS_6MatrixIdLin1ELi1ELi0ELin1ELi1EEELi0ENS_11OuterStrideILin1EEEEEEESA_NS0_9assign_opIddEELi0EEELi3ELi0EE3runERSD_, symObjAddr: 0x550DC, symBinAddr: 0x10005586C, symSize: 0xB4 }
  - { offset: 0x15449B, size: 0x8, addend: 0x0, symName: __ZNK5Eigen8internal31generic_dense_assignment_kernelINS0_9evaluatorINS_3MapINS_6MatrixIdLin1ELi1ELi0ELin1ELi1EEELi0ENS_11OuterStrideILin1EEEEEEES9_NS0_9assign_opIddEELi0EE4sizeEv, symObjAddr: 0x550BC, symBinAddr: 0x10005584C, symSize: 0x20 }
  - { offset: 0x154517, size: 0x8, addend: 0x0, symName: __ZN5Eigen8internal31generic_dense_assignment_kernelINS0_9evaluatorINS_3MapINS_6MatrixIdLin1ELi1ELi0ELin1ELi1EEELi0ENS_11OuterStrideILin1EEEEEEES9_NS0_9assign_opIddEELi0EEC1ERS9_RKS9_RKSB_RS8_, symObjAddr: 0x55068, symBinAddr: 0x1000557F8, symSize: 0x54 }
  - { offset: 0x15455D, size: 0x8, addend: 0x0, symName: __ZN5Eigen8internal17resize_if_allowedINS_3MapINS_6MatrixIdLin1ELi1ELi0ELin1ELi1EEELi0ENS_11OuterStrideILin1EEEEES7_ddEEvRT_RKT0_RKNS0_9assign_opIT1_T2_EE, symObjAddr: 0x54F50, symBinAddr: 0x1000556E0, symSize: 0x118 }
  - { offset: 0x1545F5, size: 0x8, addend: 0x0, symName: __ZNK5Eigen8internal17mapbase_evaluatorINS_5BlockIKNS_3MapINS_6MatrixIdLin1ELi1ELi0ELin1ELi1EEELi0ENS_11OuterStrideILin1EEEEELin1ELi1ELb1EEES5_E5coeffEll, symObjAddr: 0x54EE8, symBinAddr: 0x100055678, symSize: 0x68 }
  - { offset: 0x154641, size: 0x8, addend: 0x0, symName: __ZNK5Eigen8internal15unary_evaluatorINS_9TransposeIKNS_5BlockIKNS_3MapIKNS_6MatrixIdLin1ELin1ELi0ELin1ELin1EEELi0ENS_11OuterStrideILin1EEEEELi1ELin1ELb0EEEEENS0_10IndexBasedEdE5coeffEll, symObjAddr: 0x54EB4, symBinAddr: 0x100055644, symSize: 0x34 }
  - { offset: 0x15468D, size: 0x8, addend: 0x0, symName: __ZNK5Eigen8internal16binary_evaluatorINS_13CwiseBinaryOpINS0_22scalar_conj_product_opIddEEKNS_9TransposeIKNS_5BlockIKNS_3MapIKNS_6MatrixIdLin1ELin1ELi0ELin1ELin1EEELi0ENS_11OuterStrideILin1EEEEELi1ELin1ELb0EEEEEKNS6_IKNS7_INS8_IdLin1ELi1ELi0ELin1ELi1EEELi0ESC_EELin1ELi1ELb1EEEEENS0_10IndexBasedESP_ddE4Data4funcEv, symObjAddr: 0x54EA0, symBinAddr: 0x100055630, symSize: 0x14 }
  - { offset: 0x1546DF, size: 0x8, addend: 0x0, symName: __ZN5Eigen8internal16binary_evaluatorINS_13CwiseBinaryOpINS0_22scalar_conj_product_opIddEEKNS_9TransposeIKNS_5BlockIKNS_3MapIKNS_6MatrixIdLin1ELin1ELi0ELin1ELin1EEELi0ENS_11OuterStrideILin1EEEEELi1ELin1ELb0EEEEEKNS6_IKNS7_INS8_IdLin1ELi1ELi0ELin1ELi1EEELi0ESC_EELin1ELi1ELb1EEEEENS0_10IndexBasedESP_ddE4DataC1ERKSO_, symObjAddr: 0x54E14, symBinAddr: 0x1000555A4, symSize: 0x8C }
  - { offset: 0x154728, size: 0x8, addend: 0x0, symName: __ZN5Eigen8internal14evaluator_baseINS_13CwiseBinaryOpINS0_22scalar_conj_product_opIddEEKNS_9TransposeIKNS_5BlockIKNS_3MapIKNS_6MatrixIdLin1ELin1ELi0ELin1ELin1EEELi0ENS_11OuterStrideILin1EEEEELi1ELin1ELb0EEEEEKNS6_IKNS7_INS8_IdLin1ELi1ELi0ELin1ELi1EEELi0ESC_EELin1ELi1ELb1EEEEEEC2Ev, symObjAddr: 0x54E00, symBinAddr: 0x100055590, symSize: 0x14 }
  - { offset: 0x15474A, size: 0x8, addend: 0x0, symName: __ZN5Eigen8internal55copy_using_evaluator_DefaultTraversal_CompleteUnrollingINS0_31generic_dense_assignment_kernelINS0_9evaluatorINS_5BlockINS4_INS_6MatrixIdLin1ELi1ELi0ELin1ELi1EEELin1ELi1ELb1EEELi1ELi1ELb0EEEEENS3_INS4_IKNS4_INS_12CwiseUnaryOpINS0_18scalar_opposite_opIdEEKS6_EELin1ELi1ELb1EEELi1ELi1ELb0EEEEENS0_9assign_opIddEELi0EEELi1ELi1EE3runERSL_, symObjAddr: 0x54DEC, symBinAddr: 0x10005557C, symSize: 0x14 }
  - { offset: 0x154770, size: 0x8, addend: 0x0, symName: __ZN5Eigen8internal31generic_dense_assignment_kernelINS0_9evaluatorINS_5BlockINS3_INS_6MatrixIdLin1ELi1ELi0ELin1ELi1EEELin1ELi1ELb1EEELi1ELi1ELb0EEEEENS2_INS3_IKNS3_INS_12CwiseUnaryOpINS0_18scalar_opposite_opIdEEKS5_EELin1ELi1ELb1EEELi1ELi1ELb0EEEEENS0_9assign_opIddEELi0EE23assignCoeffByOuterInnerEll, symObjAddr: 0x54D9C, symBinAddr: 0x10005552C, symSize: 0x50 }
  - { offset: 0x154806, size: 0x8, addend: 0x0, symName: __ZN5Eigen8internal15unary_evaluatorINS_5BlockIKNS2_INS_12CwiseUnaryOpINS0_18scalar_opposite_opIdEEKNS_6MatrixIdLin1ELi1ELi0ELin1ELi1EEEEELin1ELi1ELb1EEELi1ELi1ELb0EEENS0_10IndexBasedEdEC2ERKSC_, symObjAddr: 0x54CC0, symBinAddr: 0x100055450, symSize: 0xDC }
  - { offset: 0x154835, size: 0x8, addend: 0x0, symName: __ZN5Eigen8internal31generic_dense_assignment_kernelINS0_9evaluatorINS_5BlockINS3_INS_6MatrixIdLin1ELi1ELi0ELin1ELi1EEELin1ELi1ELb1EEELi1ELi1ELb0EEEEES8_NS0_14swap_assign_opIdEELi1EE11assignCoeffEll, symObjAddr: 0x54C54, symBinAddr: 0x1000553E4, symSize: 0x6C }
  - { offset: 0x15487D, size: 0x8, addend: 0x0, symName: __ZN5Eigen8internal31generic_dense_assignment_kernelINS0_9evaluatorINS_5BlockINS3_INS_6MatrixIdLin1ELi1ELi0ELin1ELi1EEELin1ELi1ELb1EEELi1ELi1ELb0EEEEES8_NS0_14swap_assign_opIdEELi1EE20colIndexByOuterInnerEll, symObjAddr: 0x54C3C, symBinAddr: 0x1000553CC, symSize: 0x18 }
  - { offset: 0x1548B8, size: 0x8, addend: 0x0, symName: __ZN5Eigen8internal31generic_dense_assignment_kernelINS0_9evaluatorINS_5BlockINS3_INS_6MatrixIdLin1ELi1ELi0ELin1ELi1EEELin1ELi1ELb1EEELi1ELi1ELb0EEEEES8_NS0_14swap_assign_opIdEELi1EE20rowIndexByOuterInnerEll, symObjAddr: 0x54C24, symBinAddr: 0x1000553B4, symSize: 0x18 }
  - { offset: 0x154911, size: 0x8, addend: 0x0, symName: __ZN5Eigen8internal14evaluator_baseINS_5BlockINS2_INS_6MatrixIdLin1ELi1ELi0ELin1ELi1EEELin1ELi1ELb1EEELi1ELi1ELb0EEEEC2Ev, symObjAddr: 0x54C10, symBinAddr: 0x1000553A0, symSize: 0x14 }
  - { offset: 0x154937, size: 0x8, addend: 0x0, symName: __ZNK5Eigen8internal15BlockImpl_denseINS_5BlockINS_6MatrixIdLin1ELi1ELi0ELin1ELi1EEELin1ELi1ELb1EEELi1ELi1ELb0ELb1EE11outerStrideEv, symObjAddr: 0x54BF0, symBinAddr: 0x100055380, symSize: 0x20 }
  - { offset: 0x154961, size: 0x8, addend: 0x0, symName: __ZNK5Eigen8internal15BlockImpl_denseINS_5BlockINS_6MatrixIdLin1ELi1ELi0ELin1ELi1EEELin1ELi1ELb1EEELi1ELi1ELb0ELb1EE11innerStrideEv, symObjAddr: 0x54BD0, symBinAddr: 0x100055360, symSize: 0x20 }
  - { offset: 0x1549BD, size: 0x8, addend: 0x0, symName: __ZN5Eigen8internal15block_evaluatorIKNS_3MapINS_6MatrixIdLin1ELin1ELi0ELin1ELin1EEELi0ENS_11OuterStrideILin1EEEEELi1ELin1ELb0ELb1EEC2ERKNS_5BlockIS8_Li1ELin1ELb0EEE, symObjAddr: 0x54B3C, symBinAddr: 0x1000552CC, symSize: 0x94 }
  - { offset: 0x154A00, size: 0x8, addend: 0x0, symName: __ZNK5Eigen8internal17mapbase_evaluatorINS_5BlockIKNS2_IKNS_3MapIKNS_6MatrixIdLin1ELin1ELi0ELin1ELin1EEELi0ENS_11OuterStrideILin1EEEEELin1ELi1ELb1EEELin1ELi1ELb0EEENS4_IdLin1ELi1ELi0ELin1ELi1EEEE5coeffEl, symObjAddr: 0x54AF4, symBinAddr: 0x100055284, symSize: 0x48 }
  - { offset: 0x154A63, size: 0x8, addend: 0x0, symName: __ZN5Eigen8internal9evaluatorINS_5BlockIKNS2_IKNS_3MapIKNS_6MatrixIdLin1ELin1ELi0ELin1ELin1EEELi0ENS_11OuterStrideILin1EEEEELin1ELi1ELb1EEELin1ELi1ELb0EEEEC2ERKSD_, symObjAddr: 0x54ACC, symBinAddr: 0x10005525C, symSize: 0x28 }
  - { offset: 0x154A92, size: 0x8, addend: 0x0, symName: __ZNK5Eigen8internal16binary_evaluatorINS_13CwiseBinaryOpINS0_17scalar_product_opIddEEKNS_9TransposeIKNS_5BlockIKNS6_IKNS_3MapINS_6MatrixIdLi3ELi3ELi0ELi3ELi3EEELi0ENS_11OuterStrideILin1EEEEELi1ELi3ELb0EEELi1ELi2ELb0EEEEEKNS6_INS7_INS8_IdLi3ELi1ELi0ELi3ELi1EEELi0ENS_6StrideILi0ELi0EEEEELi2ELi1ELb0EEEEENS0_10IndexBasedESR_ddE5coeffEll, symObjAddr: 0x54A4C, symBinAddr: 0x1000551DC, symSize: 0x80 }
  - { offset: 0x154B05, size: 0x8, addend: 0x0, symName: __ZN5Eigen8internal9evaluatorIKNS_5BlockINS_3MapINS_6MatrixIdLi3ELi1ELi0ELi3ELi1EEELi0ENS_6StrideILi0ELi0EEEEELi2ELi1ELb0EEEEC1ERSA_, symObjAddr: 0x54A24, symBinAddr: 0x1000551B4, symSize: 0x28 }
  - { offset: 0x154B5B, size: 0x8, addend: 0x0, symName: __ZN5Eigen8internal9evaluatorIKNS_9TransposeIKNS_5BlockIKNS3_IKNS_3MapINS_6MatrixIdLi3ELi3ELi0ELi3ELi3EEELi0ENS_11OuterStrideILin1EEEEELi1ELi3ELb0EEELi1ELi2ELb0EEEEEEC1ERSG_, symObjAddr: 0x549FC, symBinAddr: 0x10005518C, symSize: 0x28 }
  - { offset: 0x154B8A, size: 0x8, addend: 0x0, symName: __ZNK5Eigen13CwiseBinaryOpINS_8internal17scalar_product_opIddEEKNS_9TransposeIKNS_5BlockIKNS5_IKNS_3MapINS_6MatrixIdLi3ELi3ELi0ELi3ELi3EEELi0ENS_11OuterStrideILin1EEEEELi1ELi3ELb0EEELi1ELi2ELb0EEEEEKNS5_INS6_INS7_IdLi3ELi1ELi0ELi3ELi1EEELi0ENS_6StrideILi0ELi0EEEEELi2ELi1ELb0EEEE3rhsEv, symObjAddr: 0x549E4, symBinAddr: 0x100055174, symSize: 0x18 }
  - { offset: 0x154BB4, size: 0x8, addend: 0x0, symName: __ZNK5Eigen13CwiseBinaryOpINS_8internal17scalar_product_opIddEEKNS_9TransposeIKNS_5BlockIKNS5_IKNS_3MapINS_6MatrixIdLi3ELi3ELi0ELi3ELi3EEELi0ENS_11OuterStrideILin1EEEEELi1ELi3ELb0EEELi1ELi2ELb0EEEEEKNS5_INS6_INS7_IdLi3ELi1ELi0ELi3ELi1EEELi0ENS_6StrideILi0ELi0EEEEELi2ELi1ELb0EEEE3lhsEv, symObjAddr: 0x549D0, symBinAddr: 0x100055160, symSize: 0x14 }
  - { offset: 0x154BDE, size: 0x8, addend: 0x0, symName: __ZNK5Eigen13CwiseBinaryOpINS_8internal17scalar_product_opIddEEKNS_9TransposeIKNS_5BlockIKNS5_IKNS_3MapINS_6MatrixIdLi3ELi3ELi0ELi3ELi3EEELi0ENS_11OuterStrideILin1EEEEELi1ELi3ELb0EEELi1ELi2ELb0EEEEEKNS5_INS6_INS7_IdLi3ELi1ELi0ELi3ELi1EEELi0ENS_6StrideILi0ELi0EEEEELi2ELi1ELb0EEEE7functorEv, symObjAddr: 0x549B8, symBinAddr: 0x100055148, symSize: 0x18 }
  - { offset: 0x154C64, size: 0x8, addend: 0x0, symName: __ZN5Eigen7MapBaseINS_5BlockINS_3MapINS_6MatrixIdLi3ELi1ELi0ELi3ELi1EEELi0ENS_6StrideILi0ELi0EEEEELi2ELi1ELb0EEELi0EEC2EPdll, symObjAddr: 0x54850, symBinAddr: 0x100054FE0, symSize: 0x168 }
  - { offset: 0x154CD3, size: 0x8, addend: 0x0, symName: __ZN5Eigen10MatrixBaseINS_5BlockINS_3MapINS_6MatrixIdLi3ELi1ELi0ELi3ELi1EEELi0ENS_6StrideILi0ELi0EEEEELi2ELi1ELb0EEEEC2Ev, symObjAddr: 0x54830, symBinAddr: 0x100054FC0, symSize: 0x20 }
  - { offset: 0x154CF9, size: 0x8, addend: 0x0, symName: __ZNK5Eigen7MapBaseINS_5BlockIKNS1_IKNS_3MapINS_6MatrixIdLi3ELi3ELi0ELi3ELi3EEELi0ENS_11OuterStrideILin1EEEEELi1ELi3ELb0EEELi1ELi2ELb0EEELi0EE11checkSanityISB_EEvNS_8internal9enable_ifIXeqsrNSE_6traitsIT_EE9AlignmentLi0EEPvE4typeE, symObjAddr: 0x54818, symBinAddr: 0x100054FA8, symSize: 0x18 }
  - { offset: 0x154D4F, size: 0x8, addend: 0x0, symName: __ZN5Eigen9DenseBaseINS_5BlockIKNS1_IKNS_3MapINS_6MatrixIdLi3ELi3ELi0ELi3ELi3EEELi0ENS_11OuterStrideILin1EEEEELi1ELi3ELb0EEELi1ELi2ELb0EEEEC2Ev, symObjAddr: 0x54804, symBinAddr: 0x100054F94, symSize: 0x14 }
  - { offset: 0x154D75, size: 0x8, addend: 0x0, symName: __ZNK5Eigen8internal17mapbase_evaluatorINS_5BlockINS_3MapINS_6MatrixIdLi3ELi1ELi0ELi3ELi1EEELi0ENS_6StrideILi0ELi0EEEEELi1ELi1ELb0EEENS4_IdLi1ELi1ELi0ELi1ELi1EEEE9rowStrideEv, symObjAddr: 0x547EC, symBinAddr: 0x100054F7C, symSize: 0x18 }
  - { offset: 0x154D9F, size: 0x8, addend: 0x0, symName: __ZNK5Eigen8internal17mapbase_evaluatorINS_5BlockINS_3MapINS_6MatrixIdLi3ELi1ELi0ELi3ELi1EEELi0ENS_6StrideILi0ELi0EEEEELi1ELi1ELb0EEENS4_IdLi1ELi1ELi0ELi1ELi1EEEE9colStrideEv, symObjAddr: 0x547D4, symBinAddr: 0x100054F64, symSize: 0x18 }
  - { offset: 0x154DC9, size: 0x8, addend: 0x0, symName: __ZNK5Eigen8internal17mapbase_evaluatorINS_5BlockIKNS2_IKNS_3MapINS_6MatrixIdLi3ELi3ELi0ELi3ELi3EEELi0ENS_11OuterStrideILin1EEEEELi1ELi3ELb0EEELi1ELi1ELb0EEENS4_IdLi1ELi1ELi1ELi1ELi1EEEE5coeffEll, symObjAddr: 0x5476C, symBinAddr: 0x100054EFC, symSize: 0x68 }
  - { offset: 0x154E3D, size: 0x8, addend: 0x0, symName: __ZN5Eigen8internal9evaluatorINS_5BlockINS_3MapINS_6MatrixIdLi3ELi1ELi0ELi3ELi1EEELi0ENS_6StrideILi0ELi0EEEEELi1ELi1ELb0EEEEC2ERKS9_, symObjAddr: 0x54744, symBinAddr: 0x100054ED4, symSize: 0x28 }
  - { offset: 0x154E93, size: 0x8, addend: 0x0, symName: __ZN5Eigen8internal9evaluatorINS_9TransposeIKNS_5BlockIKNS3_IKNS_3MapINS_6MatrixIdLi3ELi3ELi0ELi3ELi3EEELi0ENS_11OuterStrideILin1EEEEELi1ELi3ELb0EEELi1ELi1ELb0EEEEEEC2ERKSF_, symObjAddr: 0x5471C, symBinAddr: 0x100054EAC, symSize: 0x28 }
  - { offset: 0x154EC2, size: 0x8, addend: 0x0, symName: __ZNK5Eigen7MapBaseINS_5BlockINS_3MapINS_6MatrixIdLi3ELi1ELi0ELi3ELi1EEELi0ENS_6StrideILi0ELi0EEEEELi1ELi1ELb0EEELi0EE11checkSanityIS8_EEvNS_8internal9enable_ifIXeqsrNSB_6traitsIT_EE9AlignmentLi0EEPvE4typeE, symObjAddr: 0x54704, symBinAddr: 0x100054E94, symSize: 0x18 }
  - { offset: 0x154F18, size: 0x8, addend: 0x0, symName: __ZN5Eigen9DenseBaseINS_5BlockINS_3MapINS_6MatrixIdLi3ELi1ELi0ELi3ELi1EEELi0ENS_6StrideILi0ELi0EEEEELi1ELi1ELb0EEEEC2Ev, symObjAddr: 0x546F0, symBinAddr: 0x100054E80, symSize: 0x14 }
  - { offset: 0x154F3E, size: 0x8, addend: 0x0, symName: __ZNK5Eigen8internal17mapbase_evaluatorINS_3MapINS_6MatrixIdLi3ELi1ELi0ELi3ELi1EEELi0ENS_6StrideILi0ELi0EEEEES4_E5coeffEll, symObjAddr: 0x54690, symBinAddr: 0x100054E20, symSize: 0x60 }
  - { offset: 0x154F8A, size: 0x8, addend: 0x0, symName: __ZNK5Eigen8internal17mapbase_evaluatorINS_3MapINS_6MatrixIdLi3ELi1ELi0ELi3ELi1EEELi0ENS_6StrideILi0ELi0EEEEES4_E6packetILi0E13__Float64x2_tEET0_ll, symObjAddr: 0x5460C, symBinAddr: 0x100054D9C, symSize: 0x84 }
  - { offset: 0x15501E, size: 0x8, addend: 0x0, symName: __ZN5Eigen8internal17mapbase_evaluatorINS_3MapINS_6MatrixIdLi3ELi1ELi0ELi3ELi1EEELi0ENS_6StrideILi0ELi0EEEEES4_E8coeffRefEll, symObjAddr: 0x545AC, symBinAddr: 0x100054D3C, symSize: 0x60 }
  - { offset: 0x15506A, size: 0x8, addend: 0x0, symName: __ZNK5Eigen8internal17mapbase_evaluatorINS_5BlockINS_3MapINS_6MatrixIdLi2ELi1ELi0ELi2ELi1EEELi0ENS_6StrideILi0ELi0EEEEELi1ELi1ELb0EEENS4_IdLi1ELi1ELi0ELi1ELi1EEEE9rowStrideEv, symObjAddr: 0x54594, symBinAddr: 0x100054D24, symSize: 0x18 }
  - { offset: 0x155094, size: 0x8, addend: 0x0, symName: __ZNK5Eigen8internal17mapbase_evaluatorINS_5BlockINS_3MapINS_6MatrixIdLi2ELi1ELi0ELi2ELi1EEELi0ENS_6StrideILi0ELi0EEEEELi1ELi1ELb0EEENS4_IdLi1ELi1ELi0ELi1ELi1EEEE9colStrideEv, symObjAddr: 0x5457C, symBinAddr: 0x100054D0C, symSize: 0x18 }
  - { offset: 0x1550BE, size: 0x8, addend: 0x0, symName: __ZNK5Eigen8internal17mapbase_evaluatorINS_5BlockIKNS2_IKNS_3MapINS_6MatrixIdLi2ELi2ELi0ELi2ELi2EEELi0ENS_11OuterStrideILin1EEEEELi1ELi2ELb0EEELi1ELi1ELb0EEENS4_IdLi1ELi1ELi1ELi1ELi1EEEE5coeffEll, symObjAddr: 0x54514, symBinAddr: 0x100054CA4, symSize: 0x68 }
  - { offset: 0x155132, size: 0x8, addend: 0x0, symName: __ZN5Eigen8internal9evaluatorINS_5BlockINS_3MapINS_6MatrixIdLi2ELi1ELi0ELi2ELi1EEELi0ENS_6StrideILi0ELi0EEEEELi1ELi1ELb0EEEEC2ERKS9_, symObjAddr: 0x544EC, symBinAddr: 0x100054C7C, symSize: 0x28 }
  - { offset: 0x155188, size: 0x8, addend: 0x0, symName: __ZN5Eigen8internal9evaluatorINS_9TransposeIKNS_5BlockIKNS3_IKNS_3MapINS_6MatrixIdLi2ELi2ELi0ELi2ELi2EEELi0ENS_11OuterStrideILin1EEEEELi1ELi2ELb0EEELi1ELi1ELb0EEEEEEC2ERKSF_, symObjAddr: 0x544C4, symBinAddr: 0x100054C54, symSize: 0x28 }
  - { offset: 0x1551B7, size: 0x8, addend: 0x0, symName: __ZNK5Eigen7MapBaseINS_5BlockINS_3MapINS_6MatrixIdLi2ELi1ELi0ELi2ELi1EEELi0ENS_6StrideILi0ELi0EEEEELi1ELi1ELb0EEELi0EE11checkSanityIS8_EEvNS_8internal9enable_ifIXeqsrNSB_6traitsIT_EE9AlignmentLi0EEPvE4typeE, symObjAddr: 0x544AC, symBinAddr: 0x100054C3C, symSize: 0x18 }
  - { offset: 0x15520D, size: 0x8, addend: 0x0, symName: __ZN5Eigen9DenseBaseINS_5BlockINS_3MapINS_6MatrixIdLi2ELi1ELi0ELi2ELi1EEELi0ENS_6StrideILi0ELi0EEEEELi1ELi1ELb0EEEEC2Ev, symObjAddr: 0x54498, symBinAddr: 0x100054C28, symSize: 0x14 }
  - { offset: 0x155233, size: 0x8, addend: 0x0, symName: __ZNK5Eigen8internal9assign_opIddE12assignPacketILi0E13__Float64x2_tEEvPdRKT0_, symObjAddr: 0x54458, symBinAddr: 0x100054BE8, symSize: 0x40 }
  - { offset: 0x1552BC, size: 0x8, addend: 0x0, symName: __ZNK5Eigen8internal17mapbase_evaluatorINS_3MapINS_6MatrixIdLi2ELi1ELi0ELi2ELi1EEELi0ENS_6StrideILi0ELi0EEEEES4_E6packetILi0E13__Float64x2_tEET0_ll, symObjAddr: 0x543D4, symBinAddr: 0x100054B64, symSize: 0x84 }
  - { offset: 0x155350, size: 0x8, addend: 0x0, symName: __ZN5Eigen8internal17mapbase_evaluatorINS_3MapINS_6MatrixIdLi2ELi1ELi0ELi2ELi1EEELi0ENS_6StrideILi0ELi0EEEEES4_E8coeffRefEll, symObjAddr: 0x54374, symBinAddr: 0x100054B04, symSize: 0x60 }
  - { offset: 0x1553C3, size: 0x8, addend: 0x0, symName: __ZN5Eigen8internal9evaluatorIKNS_14CwiseNullaryOpINS0_18scalar_constant_opIdEEKNS_5ArrayIdLin1ELi1ELi0ELin1ELi1EEEEEEC1ERS9_, symObjAddr: 0x5434C, symBinAddr: 0x100054ADC, symSize: 0x28 }
  - { offset: 0x1553F2, size: 0x8, addend: 0x0, symName: __ZNK5Eigen13CwiseBinaryOpINS_8internal20scalar_difference_opIddEEKNS_12ArrayWrapperINS_6MatrixIdLin1ELi1ELi0ELin1ELi1EEEEEKNS_14CwiseNullaryOpINS1_18scalar_constant_opIdEEKNS_5ArrayIdLin1ELi1ELi0ELin1ELi1EEEEEE3rhsEv, symObjAddr: 0x54334, symBinAddr: 0x100054AC4, symSize: 0x18 }
  - { offset: 0x15541C, size: 0x8, addend: 0x0, symName: __ZNK5Eigen13CwiseBinaryOpINS_8internal20scalar_difference_opIddEEKNS_12ArrayWrapperINS_6MatrixIdLin1ELi1ELi0ELin1ELi1EEEEEKNS_14CwiseNullaryOpINS1_18scalar_constant_opIdEEKNS_5ArrayIdLin1ELi1ELi0ELin1ELi1EEEEEE3lhsEv, symObjAddr: 0x54320, symBinAddr: 0x100054AB0, symSize: 0x14 }
  - { offset: 0x155446, size: 0x8, addend: 0x0, symName: __ZNK5Eigen13CwiseBinaryOpINS_8internal20scalar_difference_opIddEEKNS_12ArrayWrapperINS_6MatrixIdLin1ELi1ELi0ELin1ELi1EEEEEKNS_14CwiseNullaryOpINS1_18scalar_constant_opIdEEKNS_5ArrayIdLin1ELi1ELi0ELin1ELi1EEEEEE7functorEv, symObjAddr: 0x54308, symBinAddr: 0x100054A98, symSize: 0x18 }
  - { offset: 0x155470, size: 0x8, addend: 0x0, symName: __ZNK5Eigen12CwiseUnaryOpINS_8internal18scalar_opposite_opIdEEKNS_13CwiseBinaryOpINS1_20scalar_difference_opIddEEKNS_12ArrayWrapperINS_6MatrixIdLin1ELi1ELi0ELin1ELi1EEEEEKNS_14CwiseNullaryOpINS1_18scalar_constant_opIdEEKNS_5ArrayIdLin1ELi1ELi0ELin1ELi1EEEEEEEE16nestedExpressionEv, symObjAddr: 0x542F0, symBinAddr: 0x100054A80, symSize: 0x18 }
  - { offset: 0x15549A, size: 0x8, addend: 0x0, symName: __ZNK5Eigen12CwiseUnaryOpINS_8internal18scalar_opposite_opIdEEKNS_13CwiseBinaryOpINS1_20scalar_difference_opIddEEKNS_12ArrayWrapperINS_6MatrixIdLin1ELi1ELi0ELin1ELi1EEEEEKNS_14CwiseNullaryOpINS1_18scalar_constant_opIdEEKNS_5ArrayIdLin1ELi1ELi0ELin1ELi1EEEEEEEE7functorEv, symObjAddr: 0x542D8, symBinAddr: 0x100054A68, symSize: 0x18 }
  - { offset: 0x1554C0, size: 0x8, addend: 0x0, symName: __ZN5Eigen8internal55copy_using_evaluator_DefaultTraversal_CompleteUnrollingINS0_31generic_dense_assignment_kernelINS0_9evaluatorINS_5BlockINS4_INS_6MatrixIdLin1ELi1ELi0ELin1ELi1EEELin1ELi1ELb1EEELi1ELi1ELb0EEEEENS3_INS4_IKS7_Li1ELi1ELb0EEEEENS0_9assign_opIddEELi0EEELi0ELi1EE3runERSF_, symObjAddr: 0x542A8, symBinAddr: 0x100054A38, symSize: 0x30 }
  - { offset: 0x1554E9, size: 0x8, addend: 0x0, symName: __ZN5Eigen8internal47copy_using_evaluator_innervec_CompleteUnrollingINS0_31generic_dense_assignment_kernelINS0_9evaluatorINS_5BlockINS4_INS_6MatrixIdLin1ELi1ELi0ELin1ELi1EEELin1ELi1ELb1EEELi1ELi1ELb0EEEEENS3_INS4_IKS7_Li1ELi1ELb0EEEEENS0_9assign_opIddEELi0EEELi0ELi0EE3runERSF_, symObjAddr: 0x54294, symBinAddr: 0x100054A24, symSize: 0x14 }
  - { offset: 0x15550F, size: 0x8, addend: 0x0, symName: __ZNK5Eigen7MapBaseINS_5BlockIKNS1_INS_6MatrixIdLin1ELi1ELi0ELin1ELi1EEELin1ELi1ELb1EEELi1ELi1ELb0EEELi0EE4colsEv, symObjAddr: 0x5427C, symBinAddr: 0x100054A0C, symSize: 0x18 }
  - { offset: 0x155539, size: 0x8, addend: 0x0, symName: __ZNK5Eigen7MapBaseINS_5BlockIKNS1_INS_6MatrixIdLin1ELi1ELi0ELin1ELi1EEELin1ELi1ELb1EEELi1ELi1ELb0EEELi0EE4rowsEv, symObjAddr: 0x54264, symBinAddr: 0x1000549F4, symSize: 0x18 }
  - { offset: 0x155595, size: 0x8, addend: 0x0, symName: __ZN5Eigen8internal15block_evaluatorIKNS_5BlockINS_6MatrixIdLin1ELi1ELi0ELin1ELi1EEELin1ELi1ELb1EEELi1ELi1ELb0ELb1EEC2ERKNS2_IS6_Li1ELi1ELb0EEE, symObjAddr: 0x541D0, symBinAddr: 0x100054960, symSize: 0x94 }
  - { offset: 0x1555D4, size: 0x8, addend: 0x0, symName: __ZN5Eigen8internal10AssignmentINS_3MapINS_6MatrixIdLin1ELi1ELi0ELin1ELi1EEELi0ENS_11OuterStrideILin1EEEEENS2_IS4_Li16ENS_6StrideILi0ELi0EEEEENS0_9assign_opIddEENS0_11Dense2DenseEvE3runERS7_RKSA_RKSC_, symObjAddr: 0x54194, symBinAddr: 0x100054924, symSize: 0x3C }
  - { offset: 0x155620, size: 0x8, addend: 0x0, symName: __ZN5Eigen8internal10AssignmentINS_3MapINS_6MatrixIdLin1ELi1ELi0ELin1ELi1EEELi16ENS_6StrideILi0ELi0EEEEENS2_IS4_Li0ENS_11OuterStrideILin1EEEEENS0_9assign_opIddEENS0_11Dense2DenseEvE3runERS7_RKSA_RKSC_, symObjAddr: 0x54158, symBinAddr: 0x1000548E8, symSize: 0x3C }
  - { offset: 0x15566C, size: 0x8, addend: 0x0, symName: __ZN5Eigen8internal26call_dense_assignment_loopINS_3MapINS_6MatrixIdLin1ELi1ELi0ELin1ELi1EEELi0ENS_11OuterStrideILin1EEEEES7_NS0_9assign_opIddEEEEvRT_RKT0_RKT1_, symObjAddr: 0x540A8, symBinAddr: 0x100054838, symSize: 0xB0 }
  - { offset: 0x155731, size: 0x8, addend: 0x0, symName: __ZN5Eigen8internal18check_for_aliasingINS_3MapINS_6MatrixIdLin1ELi1ELi0ELin1ELi1EEELi0ENS_11OuterStrideILin1EEEEES7_EEvRKT_RKT0_, symObjAddr: 0x54090, symBinAddr: 0x100054820, symSize: 0x18 }
  - { offset: 0x155782, size: 0x8, addend: 0x0, symName: __ZNK5Eigen8internal16binary_evaluatorINS_13CwiseBinaryOpINS0_22scalar_conj_product_opIddEEKNS_9TransposeIKNS_5BlockIKNS_3MapIKNS_6MatrixIdLin1ELin1ELi0ELin1ELin1EEELi0ENS_11OuterStrideILin1EEEEELi1ELin1ELb0EEEEEKNS6_IKNS7_INS8_IdLin1ELi1ELi0ELin1ELi1EEELi0ESC_EELin1ELi1ELb1EEEEENS0_10IndexBasedESP_ddE5coeffEll, symObjAddr: 0x54008, symBinAddr: 0x100054798, symSize: 0x88 }
  - { offset: 0x1557F6, size: 0x8, addend: 0x0, symName: __ZN5Eigen8internal16binary_evaluatorINS_13CwiseBinaryOpINS0_22scalar_conj_product_opIddEEKNS_9TransposeIKNS_5BlockIKNS_3MapIKNS_6MatrixIdLin1ELin1ELi0ELin1ELin1EEELi0ENS_11OuterStrideILin1EEEEELi1ELin1ELb0EEEEEKNS6_IKNS7_INS8_IdLin1ELi1ELi0ELin1ELi1EEELi0ESC_EELin1ELi1ELb1EEEEENS0_10IndexBasedESP_ddEC2ERKSO_, symObjAddr: 0x53FBC, symBinAddr: 0x10005474C, symSize: 0x4C }
  - { offset: 0x155821, size: 0x8, addend: 0x0, symName: __ZN5Eigen8internal55copy_using_evaluator_DefaultTraversal_CompleteUnrollingINS0_31generic_dense_assignment_kernelINS0_9evaluatorINS_5BlockINS4_INS_6MatrixIdLin1ELi1ELi0ELin1ELi1EEELin1ELi1ELb1EEELi1ELi1ELb0EEEEENS3_INS4_IKNS4_INS_12CwiseUnaryOpINS0_18scalar_opposite_opIdEEKS6_EELin1ELi1ELb1EEELi1ELi1ELb0EEEEENS0_9assign_opIddEELi0EEELi0ELi1EE3runERSL_, symObjAddr: 0x53F8C, symBinAddr: 0x10005471C, symSize: 0x30 }
  - { offset: 0x15584A, size: 0x8, addend: 0x0, symName: __ZN5Eigen8internal47copy_using_evaluator_innervec_CompleteUnrollingINS0_31generic_dense_assignment_kernelINS0_9evaluatorINS_5BlockINS4_INS_6MatrixIdLin1ELi1ELi0ELin1ELi1EEELin1ELi1ELb1EEELi1ELi1ELb0EEEEENS3_INS4_IKNS4_INS_12CwiseUnaryOpINS0_18scalar_opposite_opIdEEKS6_EELin1ELi1ELb1EEELi1ELi1ELb0EEEEENS0_9assign_opIddEELi0EEELi0ELi0EE3runERSL_, symObjAddr: 0x53F78, symBinAddr: 0x100054708, symSize: 0x14 }
  - { offset: 0x155870, size: 0x8, addend: 0x0, symName: __ZN5Eigen9DenseBaseINS_5BlockINS1_INS_6MatrixIdLin1ELi1ELi0ELin1ELi1EEELin1ELi1ELb1EEELi1ELi1ELb0EEEE6resizeEll, symObjAddr: 0x53EB8, symBinAddr: 0x100054648, symSize: 0xC0 }
  - { offset: 0x1558D7, size: 0x8, addend: 0x0, symName: __ZNK5Eigen8internal15BlockImpl_denseIKNS_5BlockINS_12CwiseUnaryOpINS0_18scalar_opposite_opIdEEKNS_6MatrixIdLin1ELi1ELi0ELin1ELi1EEEEELin1ELi1ELb1EEELi1ELi1ELb0ELb0EE4colsEv, symObjAddr: 0x53EA0, symBinAddr: 0x100054630, symSize: 0x18 }
  - { offset: 0x155901, size: 0x8, addend: 0x0, symName: __ZNK5Eigen8internal15BlockImpl_denseIKNS_5BlockINS_12CwiseUnaryOpINS0_18scalar_opposite_opIdEEKNS_6MatrixIdLin1ELi1ELi0ELin1ELi1EEEEELin1ELi1ELb1EEELi1ELi1ELb0ELb0EE4rowsEv, symObjAddr: 0x53E88, symBinAddr: 0x100054618, symSize: 0x18 }
  - { offset: 0x155953, size: 0x8, addend: 0x0, symName: __ZN5Eigen8internal15block_evaluatorIKNS_5BlockINS_12CwiseUnaryOpINS0_18scalar_opposite_opIdEEKNS_6MatrixIdLin1ELi1ELi0ELin1ELi1EEEEELin1ELi1ELb1EEELi1ELi1ELb0ELb0EEC2ERKNS2_ISB_Li1ELi1ELb0EEE, symObjAddr: 0x53E60, symBinAddr: 0x1000545F0, symSize: 0x28 }
  - { offset: 0x15597E, size: 0x8, addend: 0x0, symName: __ZN5Eigen8internal55copy_using_evaluator_DefaultTraversal_CompleteUnrollingINS0_31generic_dense_assignment_kernelINS0_9evaluatorINS_5BlockINS4_INS_6MatrixIdLin1ELi1ELi0ELin1ELi1EEELin1ELi1ELb1EEELi1ELi1ELb0EEEEES9_NS0_14swap_assign_opIdEELi0EEELi1ELi1EE3runERSC_, symObjAddr: 0x53E4C, symBinAddr: 0x1000545DC, symSize: 0x14 }
  - { offset: 0x1559A4, size: 0x8, addend: 0x0, symName: __ZN5Eigen8internal31generic_dense_assignment_kernelINS0_9evaluatorINS_5BlockINS3_INS_6MatrixIdLin1ELi1ELi0ELin1ELi1EEELin1ELi1ELb1EEELi1ELi1ELb0EEEEES8_NS0_14swap_assign_opIdEELi1EE23assignCoeffByOuterInnerEll, symObjAddr: 0x53DFC, symBinAddr: 0x10005458C, symSize: 0x50 }
  - { offset: 0x155A12, size: 0x8, addend: 0x0, symName: __ZNK5Eigen7MapBaseINS_5BlockINS1_INS_6MatrixIdLin1ELi1ELi0ELin1ELi1EEELin1ELi1ELb1EEELi1ELi1ELb0EEELi1EE4dataEv, symObjAddr: 0x53DE4, symBinAddr: 0x100054574, symSize: 0x18 }
  - { offset: 0x155A64, size: 0x8, addend: 0x0, symName: __ZN5Eigen8internal17mapbase_evaluatorINS_5BlockINS2_INS_6MatrixIdLin1ELi1ELi0ELin1ELi1EEELin1ELi1ELb1EEELi1ELi1ELb0EEENS3_IdLi1ELi1ELi0ELi1ELi1EEEEC2ERKS6_, symObjAddr: 0x53D58, symBinAddr: 0x1000544E8, symSize: 0x8C }
  - { offset: 0x155AAD, size: 0x8, addend: 0x0, symName: __ZN5Eigen8internal14evaluator_baseINS_5BlockIKNS2_INS_6MatrixIdLin1ELi1ELi0ELin1ELi1EEELin1ELi1ELb0EEELin1ELi1ELb1EEEEC2Ev, symObjAddr: 0x53D44, symBinAddr: 0x1000544D4, symSize: 0x14 }
  - { offset: 0x155AD3, size: 0x8, addend: 0x0, symName: __ZNK5Eigen8internal15BlockImpl_denseIKNS_5BlockINS_6MatrixIdLin1ELi1ELi0ELin1ELi1EEELin1ELi1ELb0EEELin1ELi1ELb1ELb1EE11outerStrideEv, symObjAddr: 0x53D24, symBinAddr: 0x1000544B4, symSize: 0x20 }
  - { offset: 0x155AFD, size: 0x8, addend: 0x0, symName: __ZNK5Eigen8internal15BlockImpl_denseIKNS_5BlockINS_6MatrixIdLin1ELi1ELi0ELin1ELi1EEELin1ELi1ELb0EEELin1ELi1ELb1ELb1EE11innerStrideEv, symObjAddr: 0x53D04, symBinAddr: 0x100054494, symSize: 0x20 }
  - { offset: 0x155B4F, size: 0x8, addend: 0x0, symName: __ZN5Eigen8internal9evaluatorINS_5BlockIKNS_3MapINS_6MatrixIdLin1ELin1ELi0ELin1ELin1EEELi0ENS_11OuterStrideILin1EEEEELi1ELin1ELb0EEEEC2ERKSA_, symObjAddr: 0x53CDC, symBinAddr: 0x10005446C, symSize: 0x28 }
  - { offset: 0x155B7E, size: 0x8, addend: 0x0, symName: __ZNK5Eigen8internal17mapbase_evaluatorINS_3MapINS_6MatrixIdLin1ELi1ELi0ELin1ELi1EEELi16ENS_6StrideILi0ELi0EEEEES4_E5coeffEl, symObjAddr: 0x53C9C, symBinAddr: 0x10005442C, symSize: 0x40 }
  - { offset: 0x155BB9, size: 0x8, addend: 0x0, symName: __ZNK5Eigen8internal17mapbase_evaluatorINS_5BlockIKNS2_IKNS_3MapIKNS_6MatrixIdLin1ELin1ELi0ELin1ELin1EEELi0ENS_11OuterStrideILin1EEEEELin1ELi1ELb1EEELin1ELi1ELb0EEENS4_IdLin1ELi1ELi0ELin1ELi1EEEE6packetILi0E13__Float64x2_tEET0_l, symObjAddr: 0x53C44, symBinAddr: 0x1000543D4, symSize: 0x58 }
  - { offset: 0x155C2B, size: 0x8, addend: 0x0, symName: __ZNK5Eigen8internal16binary_evaluatorINS_13CwiseBinaryOpINS0_17scalar_product_opIddEEKNS_14CwiseNullaryOpINS0_18scalar_constant_opIdEEKNS_6MatrixIdLin1ELi1ELi0ELin1ELi1EEEEEKNS_5BlockIKNSD_IKNS_3MapIKNS8_IdLin1ELin1ELi0ELin1ELin1EEELi0ENS_11OuterStrideILin1EEEEELin1ELi1ELb1EEELin1ELi1ELb0EEEEENS0_10IndexBasedESQ_ddE4Data4funcEv, symObjAddr: 0x53C30, symBinAddr: 0x1000543C0, symSize: 0x14 }
  - { offset: 0x155C55, size: 0x8, addend: 0x0, symName: __ZNK5Eigen8internal13sub_assign_opIddE11assignCoeffERdRKd, symObjAddr: 0x53BF8, symBinAddr: 0x100054388, symSize: 0x38 }
  - { offset: 0x155C9F, size: 0x8, addend: 0x0, symName: __ZNK5Eigen8internal16binary_evaluatorINS_13CwiseBinaryOpINS0_17scalar_product_opIddEEKNS_14CwiseNullaryOpINS0_18scalar_constant_opIdEEKNS_6MatrixIdLin1ELi1ELi0ELin1ELi1EEEEEKNS_5BlockIKNSD_IKNS_3MapIKNS8_IdLin1ELin1ELi0ELin1ELin1EEELi0ENS_11OuterStrideILin1EEEEELin1ELi1ELb1EEELin1ELi1ELb0EEEEENS0_10IndexBasedESQ_ddE5coeffEl, symObjAddr: 0x53B7C, symBinAddr: 0x10005430C, symSize: 0x7C }
  - { offset: 0x155D01, size: 0x8, addend: 0x0, symName: __ZN5Eigen8internal9evaluatorIKNS_5BlockIKNS2_IKNS_3MapIKNS_6MatrixIdLin1ELin1ELi0ELin1ELin1EEELi0ENS_11OuterStrideILin1EEEEELin1ELi1ELb1EEELin1ELi1ELb0EEEEC1ERSE_, symObjAddr: 0x53B54, symBinAddr: 0x1000542E4, symSize: 0x28 }
  - { offset: 0x155D30, size: 0x8, addend: 0x0, symName: __ZNK5Eigen13CwiseBinaryOpINS_8internal17scalar_product_opIddEEKNS_14CwiseNullaryOpINS1_18scalar_constant_opIdEEKNS_6MatrixIdLin1ELi1ELi0ELin1ELi1EEEEEKNS_5BlockIKNSC_IKNS_3MapIKNS7_IdLin1ELin1ELi0ELin1ELin1EEELi0ENS_11OuterStrideILin1EEEEELin1ELi1ELb1EEELin1ELi1ELb0EEEE3rhsEv, symObjAddr: 0x53B3C, symBinAddr: 0x1000542CC, symSize: 0x18 }
  - { offset: 0x155D5A, size: 0x8, addend: 0x0, symName: __ZNK5Eigen13CwiseBinaryOpINS_8internal17scalar_product_opIddEEKNS_14CwiseNullaryOpINS1_18scalar_constant_opIdEEKNS_6MatrixIdLin1ELi1ELi0ELin1ELi1EEEEEKNS_5BlockIKNSC_IKNS_3MapIKNS7_IdLin1ELin1ELi0ELin1ELin1EEELi0ENS_11OuterStrideILin1EEEEELin1ELi1ELb1EEELin1ELi1ELb0EEEE3lhsEv, symObjAddr: 0x53B24, symBinAddr: 0x1000542B4, symSize: 0x18 }
  - { offset: 0x155D84, size: 0x8, addend: 0x0, symName: __ZNK5Eigen13CwiseBinaryOpINS_8internal17scalar_product_opIddEEKNS_14CwiseNullaryOpINS1_18scalar_constant_opIdEEKNS_6MatrixIdLin1ELi1ELi0ELin1ELi1EEEEEKNS_5BlockIKNSC_IKNS_3MapIKNS7_IdLin1ELin1ELi0ELin1ELin1EEELi0ENS_11OuterStrideILin1EEEEELin1ELi1ELb1EEELin1ELi1ELb0EEEE7functorEv, symObjAddr: 0x53B0C, symBinAddr: 0x10005429C, symSize: 0x18 }
  - { offset: 0x155DAE, size: 0x8, addend: 0x0, symName: __ZN5Eigen8internal31generic_dense_assignment_kernelINS0_9evaluatorINS_5BlockINS_6MatrixIdLin1ELi1ELi0ELin1ELi1EEELin1ELi1ELb0EEEEES7_NS0_9assign_opIddEELi0EE11assignCoeffEl, symObjAddr: 0x53AAC, symBinAddr: 0x10005423C, symSize: 0x60 }
  - { offset: 0x155DE9, size: 0x8, addend: 0x0, symName: __ZN5Eigen8internal31generic_dense_assignment_kernelINS0_9evaluatorINS_3MapINS_6MatrixIdLin1ELi1ELi0ELin1ELi1EEELi0ENS_6StrideILi0ELi0EEEEEEENS2_INS3_IS5_Li16ES7_EEEENS0_9assign_opIddEELi0EE11assignCoeffEl, symObjAddr: 0x53A4C, symBinAddr: 0x1000541DC, symSize: 0x60 }
  - { offset: 0x155E24, size: 0x8, addend: 0x0, symName: __ZN5Eigen8internal31generic_dense_assignment_kernelINS0_9evaluatorINS_3MapINS_6MatrixIdLin1ELi1ELi0ELin1ELi1EEELi16ENS_6StrideILi0ELi0EEEEEEENS2_INS3_IS5_Li0ES7_EEEENS0_9assign_opIddEELi0EE11assignCoeffEl, symObjAddr: 0x539EC, symBinAddr: 0x10005417C, symSize: 0x60 }
  - { offset: 0x155E5F, size: 0x8, addend: 0x0, symName: __ZNK5Eigen8internal17mapbase_evaluatorINS_3MapINS_6MatrixIdLin1ELi1ELi0ELin1ELi1EEELi0ENS_6StrideILi0ELi0EEEEES4_E5coeffEl, symObjAddr: 0x539AC, symBinAddr: 0x10005413C, symSize: 0x40 }
  - { offset: 0x155E9A, size: 0x8, addend: 0x0, symName: __ZNK5Eigen8internal15redux_evaluatorINS_13CwiseBinaryOpINS0_17scalar_product_opIddEEKNS_9TransposeIKNS_5BlockIKNS6_IKNS_3MapINS_6MatrixIdLi3ELi3ELi0ELi3ELi3EEELi0ENS_11OuterStrideILin1EEEEELi1ELi3ELb0EEELi1ELi2ELb0EEEEEKNS6_INS7_INS8_IdLi3ELi1ELi0ELi3ELi1EEELi0ENS_6StrideILi0ELi0EEEEELi2ELi1ELb0EEEEEE17coeffByOuterInnerEll, symObjAddr: 0x53978, symBinAddr: 0x100054108, symSize: 0x34 }
  - { offset: 0x155F0E, size: 0x8, addend: 0x0, symName: __ZN5Eigen8internal16binary_evaluatorINS_13CwiseBinaryOpINS0_17scalar_product_opIddEEKNS_9TransposeIKNS_5BlockIKNS6_IKNS_3MapINS_6MatrixIdLi3ELi3ELi0ELi3ELi3EEELi0ENS_11OuterStrideILin1EEEEELi1ELi3ELb0EEELi1ELi2ELb0EEEEEKNS6_INS7_INS8_IdLi3ELi1ELi0ELi3ELi1EEELi0ENS_6StrideILi0ELi0EEEEELi2ELi1ELb0EEEEENS0_10IndexBasedESR_ddE4DataC1ERKSQ_, symObjAddr: 0x538EC, symBinAddr: 0x10005407C, symSize: 0x8C }
  - { offset: 0x155F57, size: 0x8, addend: 0x0, symName: __ZN5Eigen8internal14evaluator_baseINS_13CwiseBinaryOpINS0_17scalar_product_opIddEEKNS_9TransposeIKNS_5BlockIKNS6_IKNS_3MapINS_6MatrixIdLi3ELi3ELi0ELi3ELi3EEELi0ENS_11OuterStrideILin1EEEEELi1ELi3ELb0EEELi1ELi2ELb0EEEEEKNS6_INS7_INS8_IdLi3ELi1ELi0ELi3ELi1EEELi0ENS_6StrideILi0ELi0EEEEELi2ELi1ELb0EEEEEEC2Ev, symObjAddr: 0x538D8, symBinAddr: 0x100054068, symSize: 0x14 }
  - { offset: 0x155F7D, size: 0x8, addend: 0x0, symName: __ZN5Eigen8internal15BlockImpl_denseINS_3MapINS_6MatrixIdLi3ELi1ELi0ELi3ELi1EEELi0ENS_6StrideILi0ELi0EEEEELi2ELi1ELb0ELb1EE4initEv, symObjAddr: 0x538A8, symBinAddr: 0x100054038, symSize: 0x30 }
  - { offset: 0x155FEB, size: 0x8, addend: 0x0, symName: __ZN5Eigen7MapBaseINS_5BlockINS_3MapINS_6MatrixIdLi3ELi1ELi0ELi3ELi1EEELi0ENS_6StrideILi0ELi0EEEEELi2ELi1ELb0EEELi1EEC2EPdll, symObjAddr: 0x53870, symBinAddr: 0x100054000, symSize: 0x38 }
  - { offset: 0x15602C, size: 0x8, addend: 0x0, symName: __ZN5Eigen8internal15BlockImpl_denseIKNS_5BlockIKNS_3MapINS_6MatrixIdLi3ELi3ELi0ELi3ELi3EEELi0ENS_11OuterStrideILin1EEEEELi1ELi3ELb0EEELi1ELi2ELb0ELb1EE4initEv, symObjAddr: 0x53840, symBinAddr: 0x100053FD0, symSize: 0x30 }
  - { offset: 0x1560A1, size: 0x8, addend: 0x0, symName: __ZN5Eigen7MapBaseINS_5BlockIKNS1_IKNS_3MapINS_6MatrixIdLi3ELi3ELi0ELi3ELi3EEELi0ENS_11OuterStrideILin1EEEEELi1ELi3ELb0EEELi1ELi2ELb0EEELi0EEC2EPKdll, symObjAddr: 0x536D8, symBinAddr: 0x100053E68, symSize: 0x168 }
  - { offset: 0x156110, size: 0x8, addend: 0x0, symName: __ZN5Eigen10MatrixBaseINS_5BlockIKNS1_IKNS_3MapINS_6MatrixIdLi3ELi3ELi0ELi3ELi3EEELi0ENS_11OuterStrideILin1EEEEELi1ELi3ELb0EEELi1ELi2ELb0EEEEC2Ev, symObjAddr: 0x536B8, symBinAddr: 0x100053E48, symSize: 0x20 }
  - { offset: 0x156136, size: 0x8, addend: 0x0, symName: __ZNK5Eigen8internal17mapbase_evaluatorINS_5BlockINS_3MapINS_6MatrixIdLi3ELi1ELi0ELi3ELi1EEELi0ENS_6StrideILi0ELi0EEEEELi1ELi1ELb0EEENS4_IdLi1ELi1ELi0ELi1ELi1EEEE5coeffEll, symObjAddr: 0x53658, symBinAddr: 0x100053DE8, symSize: 0x60 }
  - { offset: 0x156182, size: 0x8, addend: 0x0, symName: __ZNK5Eigen8internal15unary_evaluatorINS_9TransposeIKNS_5BlockIKNS3_IKNS_3MapINS_6MatrixIdLi3ELi3ELi0ELi3ELi3EEELi0ENS_11OuterStrideILin1EEEEELi1ELi3ELb0EEELi1ELi1ELb0EEEEENS0_10IndexBasedEdE5coeffEll, symObjAddr: 0x53624, symBinAddr: 0x100053DB4, symSize: 0x34 }
  - { offset: 0x1561CE, size: 0x8, addend: 0x0, symName: __ZNK5Eigen8internal16binary_evaluatorINS_13CwiseBinaryOpINS0_17scalar_product_opIddEEKNS_9TransposeIKNS_5BlockIKNS6_IKNS_3MapINS_6MatrixIdLi3ELi3ELi0ELi3ELi3EEELi0ENS_11OuterStrideILin1EEEEELi1ELi3ELb0EEELi1ELi1ELb0EEEEEKNS6_INS7_INS8_IdLi3ELi1ELi0ELi3ELi1EEELi0ENS_6StrideILi0ELi0EEEEELi1ELi1ELb0EEEEENS0_10IndexBasedESR_ddE4Data4funcEv, symObjAddr: 0x53610, symBinAddr: 0x100053DA0, symSize: 0x14 }
  - { offset: 0x15621F, size: 0x8, addend: 0x0, symName: __ZN5Eigen8internal9evaluatorIKNS_5BlockINS_3MapINS_6MatrixIdLi3ELi1ELi0ELi3ELi1EEELi0ENS_6StrideILi0ELi0EEEEELi1ELi1ELb0EEEEC1ERSA_, symObjAddr: 0x535E8, symBinAddr: 0x100053D78, symSize: 0x28 }
  - { offset: 0x156275, size: 0x8, addend: 0x0, symName: __ZN5Eigen8internal9evaluatorIKNS_9TransposeIKNS_5BlockIKNS3_IKNS_3MapINS_6MatrixIdLi3ELi3ELi0ELi3ELi3EEELi0ENS_11OuterStrideILin1EEEEELi1ELi3ELb0EEELi1ELi1ELb0EEEEEEC1ERSG_, symObjAddr: 0x535C0, symBinAddr: 0x100053D50, symSize: 0x28 }
  - { offset: 0x1562A4, size: 0x8, addend: 0x0, symName: __ZNK5Eigen13CwiseBinaryOpINS_8internal17scalar_product_opIddEEKNS_9TransposeIKNS_5BlockIKNS5_IKNS_3MapINS_6MatrixIdLi3ELi3ELi0ELi3ELi3EEELi0ENS_11OuterStrideILin1EEEEELi1ELi3ELb0EEELi1ELi1ELb0EEEEEKNS5_INS6_INS7_IdLi3ELi1ELi0ELi3ELi1EEELi0ENS_6StrideILi0ELi0EEEEELi1ELi1ELb0EEEE3rhsEv, symObjAddr: 0x535A8, symBinAddr: 0x100053D38, symSize: 0x18 }
  - { offset: 0x1562CE, size: 0x8, addend: 0x0, symName: __ZNK5Eigen13CwiseBinaryOpINS_8internal17scalar_product_opIddEEKNS_9TransposeIKNS_5BlockIKNS5_IKNS_3MapINS_6MatrixIdLi3ELi3ELi0ELi3ELi3EEELi0ENS_11OuterStrideILin1EEEEELi1ELi3ELb0EEELi1ELi1ELb0EEEEEKNS5_INS6_INS7_IdLi3ELi1ELi0ELi3ELi1EEELi0ENS_6StrideILi0ELi0EEEEELi1ELi1ELb0EEEE3lhsEv, symObjAddr: 0x53594, symBinAddr: 0x100053D24, symSize: 0x14 }
  - { offset: 0x1562F8, size: 0x8, addend: 0x0, symName: __ZNK5Eigen13CwiseBinaryOpINS_8internal17scalar_product_opIddEEKNS_9TransposeIKNS_5BlockIKNS5_IKNS_3MapINS_6MatrixIdLi3ELi3ELi0ELi3ELi3EEELi0ENS_11OuterStrideILin1EEEEELi1ELi3ELb0EEELi1ELi1ELb0EEEEEKNS5_INS6_INS7_IdLi3ELi1ELi0ELi3ELi1EEELi0ENS_6StrideILi0ELi0EEEEELi1ELi1ELb0EEEE7functorEv, symObjAddr: 0x5357C, symBinAddr: 0x100053D0C, symSize: 0x18 }
  - { offset: 0x15636D, size: 0x8, addend: 0x0, symName: __ZN5Eigen7MapBaseINS_5BlockINS_3MapINS_6MatrixIdLi3ELi1ELi0ELi3ELi1EEELi0ENS_6StrideILi0ELi0EEEEELi1ELi1ELb0EEELi0EEC2EPdll, symObjAddr: 0x53414, symBinAddr: 0x100053BA4, symSize: 0x168 }
  - { offset: 0x1563DC, size: 0x8, addend: 0x0, symName: __ZN5Eigen10MatrixBaseINS_5BlockINS_3MapINS_6MatrixIdLi3ELi1ELi0ELi3ELi1EEELi0ENS_6StrideILi0ELi0EEEEELi1ELi1ELb0EEEEC2Ev, symObjAddr: 0x533F4, symBinAddr: 0x100053B84, symSize: 0x20 }
  - { offset: 0x156402, size: 0x8, addend: 0x0, symName: __ZNK5Eigen7MapBaseINS_5BlockIKNS1_IKNS_3MapINS_6MatrixIdLi3ELi3ELi0ELi3ELi3EEELi0ENS_11OuterStrideILin1EEEEELi1ELi3ELb0EEELi1ELi1ELb0EEELi0EE11checkSanityISB_EEvNS_8internal9enable_ifIXeqsrNSE_6traitsIT_EE9AlignmentLi0EEPvE4typeE, symObjAddr: 0x533DC, symBinAddr: 0x100053B6C, symSize: 0x18 }
  - { offset: 0x156458, size: 0x8, addend: 0x0, symName: __ZN5Eigen9DenseBaseINS_5BlockIKNS1_IKNS_3MapINS_6MatrixIdLi3ELi3ELi0ELi3ELi3EEELi0ENS_11OuterStrideILin1EEEEELi1ELi3ELb0EEELi1ELi1ELb0EEEEC2Ev, symObjAddr: 0x533C8, symBinAddr: 0x100053B58, symSize: 0x14 }
  - { offset: 0x15647E, size: 0x8, addend: 0x0, symName: __ZN5Eigen8internal31generic_dense_assignment_kernelINS0_9evaluatorINS_3MapINS_6MatrixIdLi3ELi1ELi0ELi3ELi1EEELi0ENS_6StrideILi0ELi0EEEEEEES9_NS0_9assign_opIddEELi0EE11assignCoeffEll, symObjAddr: 0x5335C, symBinAddr: 0x100053AEC, symSize: 0x6C }
  - { offset: 0x1564CA, size: 0x8, addend: 0x0, symName: __ZN5Eigen8internal31generic_dense_assignment_kernelINS0_9evaluatorINS_3MapINS_6MatrixIdLi3ELi1ELi0ELi3ELi1EEELi0ENS_6StrideILi0ELi0EEEEEEES9_NS0_9assign_opIddEELi0EE12assignPacketILi0ELi0E13__Float64x2_tEEvll, symObjAddr: 0x532E4, symBinAddr: 0x100053A74, symSize: 0x78 }
  - { offset: 0x15652F, size: 0x8, addend: 0x0, symName: __ZN5Eigen8internal31generic_dense_assignment_kernelINS0_9evaluatorINS_3MapINS_6MatrixIdLi3ELi1ELi0ELi3ELi1EEELi0ENS_6StrideILi0ELi0EEEEEEES9_NS0_9assign_opIddEELi0EE20colIndexByOuterInnerEll, symObjAddr: 0x532CC, symBinAddr: 0x100053A5C, symSize: 0x18 }
  - { offset: 0x15656A, size: 0x8, addend: 0x0, symName: __ZN5Eigen8internal31generic_dense_assignment_kernelINS0_9evaluatorINS_3MapINS_6MatrixIdLi3ELi1ELi0ELi3ELi1EEELi0ENS_6StrideILi0ELi0EEEEEEES9_NS0_9assign_opIddEELi0EE20rowIndexByOuterInnerEll, symObjAddr: 0x532B4, symBinAddr: 0x100053A44, symSize: 0x18 }
  - { offset: 0x1565A9, size: 0x8, addend: 0x0, symName: __ZNK5Eigen8internal17mapbase_evaluatorINS_5BlockINS_3MapINS_6MatrixIdLi2ELi1ELi0ELi2ELi1EEELi0ENS_6StrideILi0ELi0EEEEELi1ELi1ELb0EEENS4_IdLi1ELi1ELi0ELi1ELi1EEEE5coeffEll, symObjAddr: 0x53254, symBinAddr: 0x1000539E4, symSize: 0x60 }
  - { offset: 0x1565F5, size: 0x8, addend: 0x0, symName: __ZNK5Eigen8internal15unary_evaluatorINS_9TransposeIKNS_5BlockIKNS3_IKNS_3MapINS_6MatrixIdLi2ELi2ELi0ELi2ELi2EEELi0ENS_11OuterStrideILin1EEEEELi1ELi2ELb0EEELi1ELi1ELb0EEEEENS0_10IndexBasedEdE5coeffEll, symObjAddr: 0x53220, symBinAddr: 0x1000539B0, symSize: 0x34 }
  - { offset: 0x156641, size: 0x8, addend: 0x0, symName: __ZNK5Eigen8internal16binary_evaluatorINS_13CwiseBinaryOpINS0_17scalar_product_opIddEEKNS_9TransposeIKNS_5BlockIKNS6_IKNS_3MapINS_6MatrixIdLi2ELi2ELi0ELi2ELi2EEELi0ENS_11OuterStrideILin1EEEEELi1ELi2ELb0EEELi1ELi1ELb0EEEEEKNS6_INS7_INS8_IdLi2ELi1ELi0ELi2ELi1EEELi0ENS_6StrideILi0ELi0EEEEELi1ELi1ELb0EEEEENS0_10IndexBasedESR_ddE4Data4funcEv, symObjAddr: 0x5320C, symBinAddr: 0x10005399C, symSize: 0x14 }
  - { offset: 0x156692, size: 0x8, addend: 0x0, symName: __ZN5Eigen8internal9evaluatorIKNS_5BlockINS_3MapINS_6MatrixIdLi2ELi1ELi0ELi2ELi1EEELi0ENS_6StrideILi0ELi0EEEEELi1ELi1ELb0EEEEC1ERSA_, symObjAddr: 0x531E4, symBinAddr: 0x100053974, symSize: 0x28 }
  - { offset: 0x1566E8, size: 0x8, addend: 0x0, symName: __ZN5Eigen8internal9evaluatorIKNS_9TransposeIKNS_5BlockIKNS3_IKNS_3MapINS_6MatrixIdLi2ELi2ELi0ELi2ELi2EEELi0ENS_11OuterStrideILin1EEEEELi1ELi2ELb0EEELi1ELi1ELb0EEEEEEC1ERSG_, symObjAddr: 0x531BC, symBinAddr: 0x10005394C, symSize: 0x28 }
  - { offset: 0x156717, size: 0x8, addend: 0x0, symName: __ZNK5Eigen13CwiseBinaryOpINS_8internal17scalar_product_opIddEEKNS_9TransposeIKNS_5BlockIKNS5_IKNS_3MapINS_6MatrixIdLi2ELi2ELi0ELi2ELi2EEELi0ENS_11OuterStrideILin1EEEEELi1ELi2ELb0EEELi1ELi1ELb0EEEEEKNS5_INS6_INS7_IdLi2ELi1ELi0ELi2ELi1EEELi0ENS_6StrideILi0ELi0EEEEELi1ELi1ELb0EEEE3rhsEv, symObjAddr: 0x531A4, symBinAddr: 0x100053934, symSize: 0x18 }
  - { offset: 0x156741, size: 0x8, addend: 0x0, symName: __ZNK5Eigen13CwiseBinaryOpINS_8internal17scalar_product_opIddEEKNS_9TransposeIKNS_5BlockIKNS5_IKNS_3MapINS_6MatrixIdLi2ELi2ELi0ELi2ELi2EEELi0ENS_11OuterStrideILin1EEEEELi1ELi2ELb0EEELi1ELi1ELb0EEEEEKNS5_INS6_INS7_IdLi2ELi1ELi0ELi2ELi1EEELi0ENS_6StrideILi0ELi0EEEEELi1ELi1ELb0EEEE3lhsEv, symObjAddr: 0x53190, symBinAddr: 0x100053920, symSize: 0x14 }
  - { offset: 0x15676B, size: 0x8, addend: 0x0, symName: __ZNK5Eigen13CwiseBinaryOpINS_8internal17scalar_product_opIddEEKNS_9TransposeIKNS_5BlockIKNS5_IKNS_3MapINS_6MatrixIdLi2ELi2ELi0ELi2ELi2EEELi0ENS_11OuterStrideILin1EEEEELi1ELi2ELb0EEELi1ELi1ELb0EEEEEKNS5_INS6_INS7_IdLi2ELi1ELi0ELi2ELi1EEELi0ENS_6StrideILi0ELi0EEEEELi1ELi1ELb0EEEE7functorEv, symObjAddr: 0x53178, symBinAddr: 0x100053908, symSize: 0x18 }
  - { offset: 0x1567E0, size: 0x8, addend: 0x0, symName: __ZN5Eigen7MapBaseINS_5BlockINS_3MapINS_6MatrixIdLi2ELi1ELi0ELi2ELi1EEELi0ENS_6StrideILi0ELi0EEEEELi1ELi1ELb0EEELi0EEC2EPdll, symObjAddr: 0x53010, symBinAddr: 0x1000537A0, symSize: 0x168 }
  - { offset: 0x15684F, size: 0x8, addend: 0x0, symName: __ZN5Eigen10MatrixBaseINS_5BlockINS_3MapINS_6MatrixIdLi2ELi1ELi0ELi2ELi1EEELi0ENS_6StrideILi0ELi0EEEEELi1ELi1ELb0EEEEC2Ev, symObjAddr: 0x52FF0, symBinAddr: 0x100053780, symSize: 0x20 }
  - { offset: 0x156875, size: 0x8, addend: 0x0, symName: __ZNK5Eigen7MapBaseINS_5BlockIKNS1_IKNS_3MapINS_6MatrixIdLi2ELi2ELi0ELi2ELi2EEELi0ENS_11OuterStrideILin1EEEEELi1ELi2ELb0EEELi1ELi1ELb0EEELi0EE11checkSanityISB_EEvNS_8internal9enable_ifIXeqsrNSE_6traitsIT_EE9AlignmentLi0EEPvE4typeE, symObjAddr: 0x52FD8, symBinAddr: 0x100053768, symSize: 0x18 }
  - { offset: 0x1568CB, size: 0x8, addend: 0x0, symName: __ZN5Eigen9DenseBaseINS_5BlockIKNS1_IKNS_3MapINS_6MatrixIdLi2ELi2ELi0ELi2ELi2EEELi0ENS_11OuterStrideILin1EEEEELi1ELi2ELb0EEELi1ELi1ELb0EEEEC2Ev, symObjAddr: 0x52FC4, symBinAddr: 0x100053754, symSize: 0x14 }
  - { offset: 0x1568F1, size: 0x8, addend: 0x0, symName: __ZN5Eigen8internal31generic_dense_assignment_kernelINS0_9evaluatorINS_3MapINS_6MatrixIdLi2ELi1ELi0ELi2ELi1EEELi0ENS_6StrideILi0ELi0EEEEEEES9_NS0_9assign_opIddEELi0EE12assignPacketILi0ELi0E13__Float64x2_tEEvll, symObjAddr: 0x52F4C, symBinAddr: 0x1000536DC, symSize: 0x78 }
  - { offset: 0x156956, size: 0x8, addend: 0x0, symName: __ZN5Eigen8internal31generic_dense_assignment_kernelINS0_9evaluatorINS_3MapINS_6MatrixIdLi2ELi1ELi0ELi2ELi1EEELi0ENS_6StrideILi0ELi0EEEEEEES9_NS0_9assign_opIddEELi0EE20colIndexByOuterInnerEll, symObjAddr: 0x52F34, symBinAddr: 0x1000536C4, symSize: 0x18 }
  - { offset: 0x156991, size: 0x8, addend: 0x0, symName: __ZN5Eigen8internal31generic_dense_assignment_kernelINS0_9evaluatorINS_3MapINS_6MatrixIdLi2ELi1ELi0ELi2ELi1EEELi0ENS_6StrideILi0ELi0EEEEEEES9_NS0_9assign_opIddEELi0EE20rowIndexByOuterInnerEll, symObjAddr: 0x52F1C, symBinAddr: 0x1000536AC, symSize: 0x18 }
  - { offset: 0x1569F8, size: 0x8, addend: 0x0, symName: __ZN5Eigen8internal16binary_evaluatorINS_13CwiseBinaryOpINS0_20scalar_difference_opIddEEKNS_12ArrayWrapperINS_6MatrixIdLin1ELi1ELi0ELin1ELi1EEEEEKNS_14CwiseNullaryOpINS0_18scalar_constant_opIdEEKNS_5ArrayIdLin1ELi1ELi0ELin1ELi1EEEEEEENS0_10IndexBasedESJ_ddE4DataC1ERKSI_, symObjAddr: 0x52E90, symBinAddr: 0x100053620, symSize: 0x8C }
  - { offset: 0x156A41, size: 0x8, addend: 0x0, symName: __ZN5Eigen8internal14evaluator_baseINS_13CwiseBinaryOpINS0_20scalar_difference_opIddEEKNS_12ArrayWrapperINS_6MatrixIdLin1ELi1ELi0ELin1ELi1EEEEEKNS_14CwiseNullaryOpINS0_18scalar_constant_opIdEEKNS_5ArrayIdLin1ELi1ELi0ELin1ELi1EEEEEEEEC2Ev, symObjAddr: 0x52E7C, symBinAddr: 0x10005360C, symSize: 0x14 }
  - { offset: 0x156A8F, size: 0x8, addend: 0x0, symName: __ZN5Eigen8internal15unary_evaluatorINS_12CwiseUnaryOpINS0_18scalar_opposite_opIdEEKNS_13CwiseBinaryOpINS0_20scalar_difference_opIddEEKNS_12ArrayWrapperINS_6MatrixIdLin1ELi1ELi0ELin1ELi1EEEEEKNS_14CwiseNullaryOpINS0_18scalar_constant_opIdEEKNS_5ArrayIdLin1ELi1ELi0ELin1ELi1EEEEEEEEENS0_10IndexBasedEdE4DataC1ERKSN_, symObjAddr: 0x52E24, symBinAddr: 0x1000535B4, symSize: 0x58 }
  - { offset: 0x156AD8, size: 0x8, addend: 0x0, symName: __ZN5Eigen8internal14evaluator_baseINS_12CwiseUnaryOpINS0_18scalar_opposite_opIdEEKNS_13CwiseBinaryOpINS0_20scalar_difference_opIddEEKNS_12ArrayWrapperINS_6MatrixIdLin1ELi1ELi0ELin1ELi1EEEEEKNS_14CwiseNullaryOpINS0_18scalar_constant_opIdEEKNS_5ArrayIdLin1ELi1ELi0ELin1ELi1EEEEEEEEEEC2Ev, symObjAddr: 0x52E10, symBinAddr: 0x1000535A0, symSize: 0x14 }
  - { offset: 0x156AFA, size: 0x8, addend: 0x0, symName: __ZN5Eigen8internal21dense_assignment_loopINS0_31generic_dense_assignment_kernelINS0_9evaluatorINS_5BlockINS4_INS_6MatrixIdLin1ELi1ELi0ELin1ELi1EEELin1ELi1ELb1EEELi1ELi1ELb0EEEEENS3_INS4_IKS7_Li1ELi1ELb0EEEEENS0_9assign_opIddEELi0EEELi3ELi2EE3runERSF_, symObjAddr: 0x52DE8, symBinAddr: 0x100053578, symSize: 0x28 }
  - { offset: 0x156B97, size: 0x8, addend: 0x0, symName: __ZN5Eigen8internal31generic_dense_assignment_kernelINS0_9evaluatorINS_5BlockINS3_INS_6MatrixIdLin1ELi1ELi0ELin1ELi1EEELin1ELi1ELb1EEELi1ELi1ELb0EEEEENS2_INS3_IKS6_Li1ELi1ELb0EEEEENS0_9assign_opIddEELi0EEC1ERS8_RKSB_RKSD_RS7_, symObjAddr: 0x52D94, symBinAddr: 0x100053524, symSize: 0x54 }
  - { offset: 0x156BDD, size: 0x8, addend: 0x0, symName: __ZN5Eigen8internal17resize_if_allowedINS_5BlockINS2_INS_6MatrixIdLin1ELi1ELi0ELin1ELi1EEELin1ELi1ELb1EEELi1ELi1ELb0EEENS2_IKS5_Li1ELi1ELb0EEEddEEvRT_RKT0_RKNS0_9assign_opIT1_T2_EE, symObjAddr: 0x52C7C, symBinAddr: 0x10005340C, symSize: 0x118 }
  - { offset: 0x156C8F, size: 0x8, addend: 0x0, symName: __ZN5Eigen8internal14evaluator_baseINS_5BlockIKNS2_INS_6MatrixIdLin1ELi1ELi0ELin1ELi1EEELin1ELi1ELb1EEELi1ELi1ELb0EEEED2Ev, symObjAddr: 0x52C68, symBinAddr: 0x1000533F8, symSize: 0x14 }
  - { offset: 0x156CDD, size: 0x8, addend: 0x0, symName: __ZN5Eigen8internal9evaluatorINS_5BlockIKNS2_INS_6MatrixIdLin1ELi1ELi0ELin1ELi1EEELin1ELi1ELb1EEELi1ELi1ELb0EEEEC1ERKS7_, symObjAddr: 0x52C40, symBinAddr: 0x1000533D0, symSize: 0x28 }
  - { offset: 0x156D08, size: 0x8, addend: 0x0, symName: __ZN5Eigen8internal24call_assignment_no_aliasINS_3MapINS_6MatrixIdLin1ELi1ELi0ELin1ELi1EEELi0ENS_11OuterStrideILin1EEEEENS2_IS4_Li16ENS_6StrideILi0ELi0EEEEENS0_9assign_opIddEEEEvRT_RKT0_RKT1_, symObjAddr: 0x52C08, symBinAddr: 0x100053398, symSize: 0x38 }
  - { offset: 0x156D9E, size: 0x8, addend: 0x0, symName: __ZN5Eigen8internal24call_assignment_no_aliasINS_3MapINS_6MatrixIdLin1ELi1ELi0ELin1ELi1EEELi16ENS_6StrideILi0ELi0EEEEENS2_IS4_Li0ENS_11OuterStrideILin1EEEEENS0_9assign_opIddEEEEvRT_RKT0_RKT1_, symObjAddr: 0x52BD0, symBinAddr: 0x100053360, symSize: 0x38 }
  - { offset: 0x156E34, size: 0x8, addend: 0x0, symName: __ZN5Eigen8internal10AssignmentINS_3MapINS_6MatrixIdLin1ELi1ELi0ELin1ELi1EEELi0ENS_11OuterStrideILin1EEEEES7_NS0_9assign_opIddEENS0_11Dense2DenseEvE3runERS7_RKS7_RKS9_, symObjAddr: 0x52B94, symBinAddr: 0x100053324, symSize: 0x3C }
  - { offset: 0x156E84, size: 0x8, addend: 0x0, symName: __ZNK5Eigen9DenseBaseINS_13CwiseBinaryOpINS_8internal22scalar_conj_product_opIddEEKNS_9TransposeIKNS_5BlockIKNS_3MapIKNS_6MatrixIdLin1ELin1ELi0ELin1ELin1EEELi0ENS_11OuterStrideILin1EEEEELi1ELin1ELb0EEEEEKNS6_IKNS7_INS8_IdLin1ELi1ELi0ELin1ELi1EEELi0ESC_EELin1ELi1ELb1EEEEEE9outerSizeEv, symObjAddr: 0x52B80, symBinAddr: 0x100053310, symSize: 0x14 }
  - { offset: 0x156EAE, size: 0x8, addend: 0x0, symName: __ZNK5Eigen9DenseBaseINS_13CwiseBinaryOpINS_8internal22scalar_conj_product_opIddEEKNS_9TransposeIKNS_5BlockIKNS_3MapIKNS_6MatrixIdLin1ELin1ELi0ELin1ELin1EEELi0ENS_11OuterStrideILin1EEEEELi1ELin1ELb0EEEEEKNS6_IKNS7_INS8_IdLin1ELi1ELi0ELin1ELi1EEELi0ESC_EELin1ELi1ELb1EEEEEE9innerSizeEv, symObjAddr: 0x52B64, symBinAddr: 0x1000532F4, symSize: 0x1C }
  - { offset: 0x156ED8, size: 0x8, addend: 0x0, symName: __ZNK5Eigen8internal15redux_evaluatorINS_13CwiseBinaryOpINS0_22scalar_conj_product_opIddEEKNS_9TransposeIKNS_5BlockIKNS_3MapIKNS_6MatrixIdLin1ELin1ELi0ELin1ELin1EEELi0ENS_11OuterStrideILin1EEEEELi1ELin1ELb0EEEEEKNS6_IKNS7_INS8_IdLin1ELi1ELi0ELin1ELi1EEELi0ESC_EELin1ELi1ELb1EEEEEE17coeffByOuterInnerEll, symObjAddr: 0x52B30, symBinAddr: 0x1000532C0, symSize: 0x34 }
  - { offset: 0x156F4C, size: 0x8, addend: 0x0, symName: __ZN5Eigen8internal9evaluatorINS_13CwiseBinaryOpINS0_22scalar_conj_product_opIddEEKNS_9TransposeIKNS_5BlockIKNS_3MapIKNS_6MatrixIdLin1ELin1ELi0ELin1ELin1EEELi0ENS_11OuterStrideILin1EEEEELi1ELin1ELb0EEEEEKNS6_IKNS7_INS8_IdLin1ELi1ELi0ELin1ELi1EEELi0ESC_EELin1ELi1ELb1EEEEEEC2ERKSO_, symObjAddr: 0x52B08, symBinAddr: 0x100053298, symSize: 0x28 }
  - { offset: 0x156F7B, size: 0x8, addend: 0x0, symName: __ZNK5Eigen13CwiseBinaryOpINS_8internal22scalar_conj_product_opIddEEKNS_9TransposeIKNS_5BlockIKNS_3MapIKNS_6MatrixIdLin1ELin1ELi0ELin1ELin1EEELi0ENS_11OuterStrideILin1EEEEELi1ELin1ELb0EEEEEKNS5_IKNS6_INS7_IdLin1ELi1ELi0ELin1ELi1EEELi0ESB_EELin1ELi1ELb1EEEE4colsEv, symObjAddr: 0x52AEC, symBinAddr: 0x10005327C, symSize: 0x1C }
  - { offset: 0x156FA5, size: 0x8, addend: 0x0, symName: __ZNK5Eigen13CwiseBinaryOpINS_8internal22scalar_conj_product_opIddEEKNS_9TransposeIKNS_5BlockIKNS_3MapIKNS_6MatrixIdLin1ELin1ELi0ELin1ELin1EEELi0ENS_11OuterStrideILin1EEEEELi1ELin1ELb0EEEEEKNS5_IKNS6_INS7_IdLin1ELi1ELi0ELin1ELi1EEELi0ESB_EELin1ELi1ELb1EEEE4rowsEv, symObjAddr: 0x52ACC, symBinAddr: 0x10005325C, symSize: 0x20 }
  - { offset: 0x156FCF, size: 0x8, addend: 0x0, symName: __ZNK5Eigen7MapBaseINS_5BlockIKNS_3MapINS_6MatrixIdLin1ELi1ELi0ELin1ELi1EEELi0ENS_11OuterStrideILin1EEEEELin1ELi1ELb1EEELi0EE11checkSanityIS9_EEvNS_8internal9enable_ifIXeqsrNSC_6traitsIT_EE9AlignmentLi0EEPvE4typeE, symObjAddr: 0x52AB4, symBinAddr: 0x100053244, symSize: 0x18 }
  - { offset: 0x157025, size: 0x8, addend: 0x0, symName: __ZN5Eigen9DenseBaseINS_5BlockIKNS_3MapINS_6MatrixIdLin1ELi1ELi0ELin1ELi1EEELi0ENS_11OuterStrideILin1EEEEELin1ELi1ELb1EEEEC2Ev, symObjAddr: 0x52AA0, symBinAddr: 0x100053230, symSize: 0x14 }
  - { offset: 0x15704B, size: 0x8, addend: 0x0, symName: __ZNK5Eigen7MapBaseINS_5BlockIKNS_3MapIKNS_6MatrixIdLin1ELin1ELi0ELin1ELin1EEELi0ENS_11OuterStrideILin1EEEEELi1ELin1ELb0EEELi0EE11checkSanityISA_EEvNS_8internal9enable_ifIXeqsrNSD_6traitsIT_EE9AlignmentLi0EEPvE4typeE, symObjAddr: 0x52A88, symBinAddr: 0x100053218, symSize: 0x18 }
  - { offset: 0x1570A1, size: 0x8, addend: 0x0, symName: __ZN5Eigen9DenseBaseINS_5BlockIKNS_3MapIKNS_6MatrixIdLin1ELin1ELi0ELin1ELin1EEELi0ENS_11OuterStrideILin1EEEEELi1ELin1ELb0EEEEC2Ev, symObjAddr: 0x52A74, symBinAddr: 0x100053204, symSize: 0x14 }
  - { offset: 0x1570C3, size: 0x8, addend: 0x0, symName: __ZN5Eigen8internal21dense_assignment_loopINS0_31generic_dense_assignment_kernelINS0_9evaluatorINS_5BlockINS4_INS_6MatrixIdLin1ELi1ELi0ELin1ELi1EEELin1ELi1ELb1EEELi1ELi1ELb0EEEEENS3_INS4_IKNS4_INS_12CwiseUnaryOpINS0_18scalar_opposite_opIdEEKS6_EELin1ELi1ELb1EEELi1ELi1ELb0EEEEENS0_9assign_opIddEELi0EEELi3ELi2EE3runERSL_, symObjAddr: 0x52A4C, symBinAddr: 0x1000531DC, symSize: 0x28 }
  - { offset: 0x157160, size: 0x8, addend: 0x0, symName: __ZN5Eigen8internal31generic_dense_assignment_kernelINS0_9evaluatorINS_5BlockINS3_INS_6MatrixIdLin1ELi1ELi0ELin1ELi1EEELin1ELi1ELb1EEELi1ELi1ELb0EEEEENS2_INS3_IKNS3_INS_12CwiseUnaryOpINS0_18scalar_opposite_opIdEEKS5_EELin1ELi1ELb1EEELi1ELi1ELb0EEEEENS0_9assign_opIddEELi0EEC1ERS8_RKSH_RKSJ_RS7_, symObjAddr: 0x529F8, symBinAddr: 0x100053188, symSize: 0x54 }
  - { offset: 0x1571A6, size: 0x8, addend: 0x0, symName: __ZN5Eigen8internal17resize_if_allowedINS_5BlockINS2_INS_6MatrixIdLin1ELi1ELi0ELin1ELi1EEELin1ELi1ELb1EEELi1ELi1ELb0EEENS2_IKNS2_INS_12CwiseUnaryOpINS0_18scalar_opposite_opIdEEKS4_EELin1ELi1ELb1EEELi1ELi1ELb0EEEddEEvRT_RKT0_RKNS0_9assign_opIT1_T2_EE, symObjAddr: 0x528E0, symBinAddr: 0x100053070, symSize: 0x118 }
  - { offset: 0x157258, size: 0x8, addend: 0x0, symName: __ZN5Eigen8internal14evaluator_baseINS_12CwiseUnaryOpINS0_18scalar_opposite_opIdEEKNS_6MatrixIdLin1ELi1ELi0ELin1ELi1EEEEEED2Ev, symObjAddr: 0x528CC, symBinAddr: 0x10005305C, symSize: 0x14 }
  - { offset: 0x157298, size: 0x8, addend: 0x0, symName: __ZN5Eigen8internal14evaluator_baseINS_5BlockINS_12CwiseUnaryOpINS0_18scalar_opposite_opIdEEKNS_6MatrixIdLin1ELi1ELi0ELin1ELi1EEEEELin1ELi1ELb1EEEED2Ev, symObjAddr: 0x528B8, symBinAddr: 0x100053048, symSize: 0x14 }
  - { offset: 0x1572D8, size: 0x8, addend: 0x0, symName: __ZN5Eigen8internal14evaluator_baseINS_5BlockIKNS2_INS_12CwiseUnaryOpINS0_18scalar_opposite_opIdEEKNS_6MatrixIdLin1ELi1ELi0ELin1ELi1EEEEELin1ELi1ELb1EEELi1ELi1ELb0EEEED2Ev, symObjAddr: 0x528A4, symBinAddr: 0x100053034, symSize: 0x14 }
  - { offset: 0x157326, size: 0x8, addend: 0x0, symName: __ZN5Eigen8internal9evaluatorINS_5BlockIKNS2_INS_12CwiseUnaryOpINS0_18scalar_opposite_opIdEEKNS_6MatrixIdLin1ELi1ELi0ELin1ELi1EEEEELin1ELi1ELb1EEELi1ELi1ELb0EEEEC1ERKSC_, symObjAddr: 0x5287C, symBinAddr: 0x10005300C, symSize: 0x28 }
  - { offset: 0x157351, size: 0x8, addend: 0x0, symName: __ZN5Eigen8internal55copy_using_evaluator_DefaultTraversal_CompleteUnrollingINS0_31generic_dense_assignment_kernelINS0_9evaluatorINS_5BlockINS4_INS_6MatrixIdLin1ELi1ELi0ELin1ELi1EEELin1ELi1ELb1EEELi1ELi1ELb0EEEEES9_NS0_14swap_assign_opIdEELi0EEELi0ELi1EE3runERSC_, symObjAddr: 0x5284C, symBinAddr: 0x100052FDC, symSize: 0x30 }
  - { offset: 0x15737A, size: 0x8, addend: 0x0, symName: __ZN5Eigen8internal47copy_using_evaluator_innervec_CompleteUnrollingINS0_31generic_dense_assignment_kernelINS0_9evaluatorINS_5BlockINS4_INS_6MatrixIdLin1ELi1ELi0ELin1ELi1EEELin1ELi1ELb1EEELi1ELi1ELb0EEEEES9_NS0_14swap_assign_opIdEELi0EEELi0ELi0EE3runERSC_, symObjAddr: 0x52838, symBinAddr: 0x100052FC8, symSize: 0x14 }
  - { offset: 0x1573F2, size: 0x8, addend: 0x0, symName: __ZN5Eigen8internal31generic_dense_assignment_kernelINS0_9evaluatorINS_5BlockINS3_INS_6MatrixIdLin1ELi1ELi0ELin1ELi1EEELin1ELi1ELb1EEELi1ELi1ELb0EEEEES8_NS0_14swap_assign_opIdEELi1EEC2ERS8_RKS8_RKSA_RS7_, symObjAddr: 0x527E4, symBinAddr: 0x100052F74, symSize: 0x54 }
  - { offset: 0x15746E, size: 0x8, addend: 0x0, symName: __ZN5Eigen8internal15block_evaluatorINS_5BlockINS_6MatrixIdLin1ELi1ELi0ELin1ELi1EEELin1ELi1ELb1EEELi1ELi1ELb0ELb1EEC2ERKNS2_IS5_Li1ELi1ELb0EEE, symObjAddr: 0x52750, symBinAddr: 0x100052EE0, symSize: 0x94 }
  - { offset: 0x1574B1, size: 0x8, addend: 0x0, symName: __ZNK5Eigen7MapBaseINS_5BlockIKNS1_INS_6MatrixIdLin1ELi1ELi0ELin1ELi1EEELin1ELi1ELb0EEELin1ELi1ELb1EEELi0EE4dataEv, symObjAddr: 0x52738, symBinAddr: 0x100052EC8, symSize: 0x18 }
  - { offset: 0x157503, size: 0x8, addend: 0x0, symName: __ZN5Eigen8internal17mapbase_evaluatorINS_5BlockIKNS2_INS_6MatrixIdLin1ELi1ELi0ELin1ELi1EEELin1ELi1ELb0EEELin1ELi1ELb1EEES4_EC2ERKS7_, symObjAddr: 0x526AC, symBinAddr: 0x100052E3C, symSize: 0x8C }
  - { offset: 0x157559, size: 0x8, addend: 0x0, symName: __ZN5Eigen8internal9evaluatorIKNS_5BlockIKNS_3MapINS_6MatrixIdLin1ELin1ELi0ELin1ELin1EEELi0ENS_11OuterStrideILin1EEEEELi1ELin1ELb0EEEEC1ERSB_, symObjAddr: 0x52684, symBinAddr: 0x100052E14, symSize: 0x28 }
  - { offset: 0x1575A2, size: 0x8, addend: 0x0, symName: __ZN5Eigen8internal14evaluator_baseINS_9TransposeIKNS_5BlockIKNS_3MapINS_6MatrixIdLin1ELin1ELi0ELin1ELin1EEELi0ENS_11OuterStrideILin1EEEEELi1ELin1ELb0EEEEEEC2Ev, symObjAddr: 0x52670, symBinAddr: 0x100052E00, symSize: 0x14 }
  - { offset: 0x1575C8, size: 0x8, addend: 0x0, symName: __ZNK5Eigen9TransposeIKNS_5BlockIKNS_3MapINS_6MatrixIdLin1ELin1ELi0ELin1ELin1EEELi0ENS_11OuterStrideILin1EEEEELi1ELin1ELb0EEEE16nestedExpressionEv, symObjAddr: 0x5265C, symBinAddr: 0x100052DEC, symSize: 0x14 }
  - { offset: 0x1575F2, size: 0x8, addend: 0x0, symName: __ZNK5Eigen8internal17mapbase_evaluatorINS_3MapINS_6MatrixIdLin1ELi1ELi0ELin1ELi1EEELi16ENS_6StrideILi0ELi0EEEEES4_E6packetILi0E13__Float64x2_tEET0_l, symObjAddr: 0x52604, symBinAddr: 0x100052D94, symSize: 0x58 }
  - { offset: 0x157664, size: 0x8, addend: 0x0, symName: __ZN5Eigen8internal31generic_dense_assignment_kernelINS0_9evaluatorINS_5BlockINS_6MatrixIdLin1ELi1ELi0ELin1ELi1EEELin1ELi1ELb0EEEEENS2_INS_3MapIS5_Li16ENS_6StrideILi0ELi0EEEEEEENS0_9assign_opIddEELi0EE11assignCoeffEl, symObjAddr: 0x525A4, symBinAddr: 0x100052D34, symSize: 0x60 }
  - { offset: 0x15769F, size: 0x8, addend: 0x0, symName: __ZNK5Eigen8internal13sub_assign_opIddE12assignPacketILi16E13__Float64x2_tEEvPdRKT0_, symObjAddr: 0x52538, symBinAddr: 0x100052CC8, symSize: 0x6C }
  - { offset: 0x157749, size: 0x8, addend: 0x0, symName: __ZNK5Eigen8internal16binary_evaluatorINS_13CwiseBinaryOpINS0_17scalar_product_opIddEEKNS_14CwiseNullaryOpINS0_18scalar_constant_opIdEEKNS_6MatrixIdLin1ELi1ELi0ELin1ELi1EEEEEKNS_5BlockIKNSD_IKNS_3MapIKNS8_IdLin1ELin1ELi0ELin1ELin1EEELi0ENS_11OuterStrideILin1EEEEELin1ELi1ELb1EEELin1ELi1ELb0EEEEENS0_10IndexBasedESQ_ddE6packetILi0E13__Float64x2_tEET0_l, symObjAddr: 0x524BC, symBinAddr: 0x100052C4C, symSize: 0x7C }
  - { offset: 0x157797, size: 0x8, addend: 0x0, symName: __ZN5Eigen8internal31generic_dense_assignment_kernelINS0_9evaluatorINS_3MapINS_6MatrixIdLin1ELi1ELi0ELin1ELi1EEELi0ENS_6StrideILi0ELi0EEEEEEENS2_INS_13CwiseBinaryOpINS0_17scalar_product_opIddEEKNS_14CwiseNullaryOpINS0_18scalar_constant_opIdEEKS5_EEKNS_5BlockIKNSJ_IKNS3_IKNS4_IdLin1ELin1ELi0ELin1ELin1EEELi0ENS_11OuterStrideILin1EEEEELin1ELi1ELb1EEELin1ELi1ELb0EEEEEEENS0_13sub_assign_opIddEELi0EE11assignCoeffEl, symObjAddr: 0x52450, symBinAddr: 0x100052BE0, symSize: 0x6C }
  - { offset: 0x1577FA, size: 0x8, addend: 0x0, symName: __ZN5Eigen8internal16binary_evaluatorINS_13CwiseBinaryOpINS0_17scalar_product_opIddEEKNS_14CwiseNullaryOpINS0_18scalar_constant_opIdEEKNS_6MatrixIdLin1ELi1ELi0ELin1ELi1EEEEEKNS_5BlockIKNSD_IKNS_3MapIKNS8_IdLin1ELin1ELi0ELin1ELin1EEELi0ENS_11OuterStrideILin1EEEEELin1ELi1ELb1EEELin1ELi1ELb0EEEEENS0_10IndexBasedESQ_ddE4DataC1ERKSP_, symObjAddr: 0x523C4, symBinAddr: 0x100052B54, symSize: 0x8C }
  - { offset: 0x157843, size: 0x8, addend: 0x0, symName: __ZN5Eigen8internal14evaluator_baseINS_13CwiseBinaryOpINS0_17scalar_product_opIddEEKNS_14CwiseNullaryOpINS0_18scalar_constant_opIdEEKNS_6MatrixIdLin1ELi1ELi0ELin1ELi1EEEEEKNS_5BlockIKNSD_IKNS_3MapIKNS8_IdLin1ELin1ELi0ELin1ELin1EEELi0ENS_11OuterStrideILin1EEEEELin1ELi1ELb1EEELin1ELi1ELb0EEEEEEC2Ev, symObjAddr: 0x523B0, symBinAddr: 0x100052B40, symSize: 0x14 }
  - { offset: 0x157869, size: 0x8, addend: 0x0, symName: __ZN5Eigen8internal31generic_dense_assignment_kernelINS0_9evaluatorINS_3MapINS_6MatrixIdLin1ELi1ELi0ELin1ELi1EEELi16ENS_6StrideILi0ELi0EEEEEEENS2_INS_5BlockIS5_Lin1ELi1ELb0EEEEENS0_9assign_opIddEELi0EE11assignCoeffEl, symObjAddr: 0x52350, symBinAddr: 0x100052AE0, symSize: 0x60 }
  - { offset: 0x1578A4, size: 0x8, addend: 0x0, symName: __ZN5Eigen8internal31generic_dense_assignment_kernelINS0_9evaluatorINS_5BlockINS_6MatrixIdLin1ELi1ELi0ELin1ELi1EEELin1ELi1ELb0EEEEES7_NS0_9assign_opIddEELi0EE12assignPacketILi16ELi0E13__Float64x2_tEEvl, symObjAddr: 0x522E4, symBinAddr: 0x100052A74, symSize: 0x6C }
  - { offset: 0x1578F8, size: 0x8, addend: 0x0, symName: __ZN5Eigen8internal31unaligned_dense_assignment_loopILb0EE3runINS0_31generic_dense_assignment_kernelINS0_9evaluatorINS_5BlockINS_6MatrixIdLin1ELi1ELi0ELin1ELi1EEELin1ELi1ELb0EEEEESA_NS0_9assign_opIddEELi0EEEEEvRT_ll, symObjAddr: 0x5228C, symBinAddr: 0x100052A1C, symSize: 0x58 }
  - { offset: 0x157975, size: 0x8, addend: 0x0, symName: __ZNK5Eigen8internal31generic_dense_assignment_kernelINS0_9evaluatorINS_5BlockINS_6MatrixIdLin1ELi1ELi0ELin1ELi1EEELin1ELi1ELb0EEEEES7_NS0_9assign_opIddEELi0EE10dstDataPtrEv, symObjAddr: 0x5226C, symBinAddr: 0x1000529FC, symSize: 0x20 }
  - { offset: 0x15799F, size: 0x8, addend: 0x0, symName: __ZN5Eigen8internal31generic_dense_assignment_kernelINS0_9evaluatorINS_3MapINS_6MatrixIdLin1ELi1ELi0ELin1ELi1EEELi0ENS_6StrideILi0ELi0EEEEEEENS2_INS3_IS5_Li16ES7_EEEENS0_9assign_opIddEELi0EE12assignPacketILi16ELi0E13__Float64x2_tEEvl, symObjAddr: 0x52200, symBinAddr: 0x100052990, symSize: 0x6C }
  - { offset: 0x1579F3, size: 0x8, addend: 0x0, symName: __ZN5Eigen8internal31unaligned_dense_assignment_loopILb0EE3runINS0_31generic_dense_assignment_kernelINS0_9evaluatorINS_3MapINS_6MatrixIdLin1ELi1ELi0ELin1ELi1EEELi0ENS_6StrideILi0ELi0EEEEEEENS5_INS6_IS8_Li16ESA_EEEENS0_9assign_opIddEELi0EEEEEvRT_ll, symObjAddr: 0x521A8, symBinAddr: 0x100052938, symSize: 0x58 }
  - { offset: 0x157A70, size: 0x8, addend: 0x0, symName: __ZNK5Eigen8internal31generic_dense_assignment_kernelINS0_9evaluatorINS_3MapINS_6MatrixIdLin1ELi1ELi0ELin1ELi1EEELi0ENS_6StrideILi0ELi0EEEEEEENS2_INS3_IS5_Li16ES7_EEEENS0_9assign_opIddEELi0EE10dstDataPtrEv, symObjAddr: 0x52188, symBinAddr: 0x100052918, symSize: 0x20 }
  - { offset: 0x157A96, size: 0x8, addend: 0x0, symName: __ZN5Eigen8internal31unaligned_dense_assignment_loopILb0EE3runINS0_31generic_dense_assignment_kernelINS0_9evaluatorINS_3MapINS_6MatrixIdLin1ELi1ELi0ELin1ELi1EEELi16ENS_6StrideILi0ELi0EEEEEEENS5_INS6_IS8_Li0ESA_EEEENS0_9assign_opIddEELi0EEEEEvRT_ll, symObjAddr: 0x52130, symBinAddr: 0x1000528C0, symSize: 0x58 }
  - { offset: 0x157B13, size: 0x8, addend: 0x0, symName: __ZN5Eigen8internal31generic_dense_assignment_kernelINS0_9evaluatorINS_3MapINS_6MatrixIdLin1ELi1ELi0ELin1ELi1EEELi16ENS_6StrideILi0ELi0EEEEEEENS2_INS3_IS5_Li0ES7_EEEENS0_9assign_opIddEELi0EE12assignPacketILi16ELi0E13__Float64x2_tEEvl, symObjAddr: 0x520C4, symBinAddr: 0x100052854, symSize: 0x6C }
  - { offset: 0x157B67, size: 0x8, addend: 0x0, symName: __ZN5Eigen8internal31unaligned_dense_assignment_loopILb1EE3runINS0_31generic_dense_assignment_kernelINS0_9evaluatorINS_3MapINS_6MatrixIdLin1ELi1ELi0ELin1ELi1EEELi16ENS_6StrideILi0ELi0EEEEEEENS5_INS6_IS8_Li0ESA_EEEENS0_9assign_opIddEELi0EEEEEvRT_ll, symObjAddr: 0x520A8, symBinAddr: 0x100052838, symSize: 0x1C }
  - { offset: 0x157BA8, size: 0x8, addend: 0x0, symName: __ZNK5Eigen8internal17mapbase_evaluatorINS_3MapINS_6MatrixIdLin1ELi1ELi0ELin1ELi1EEELi0ENS_6StrideILi0ELi0EEEEES4_E6packetILi0E13__Float64x2_tEET0_l, symObjAddr: 0x52050, symBinAddr: 0x1000527E0, symSize: 0x58 }
  - { offset: 0x157C1A, size: 0x8, addend: 0x0, symName: __ZN5Eigen8internal17mapbase_evaluatorINS_3MapINS_6MatrixIdLin1ELi1ELi0ELin1ELi1EEELi0ENS_6StrideILi0ELi0EEEEES4_E8coeffRefEl, symObjAddr: 0x52010, symBinAddr: 0x1000527A0, symSize: 0x40 }
  - { offset: 0x157C55, size: 0x8, addend: 0x0, symName: __ZN5Eigen8internal31generic_dense_assignment_kernelINS0_9evaluatorINS_3MapINS_6MatrixIdLin1ELi1ELi0ELin1ELi1EEELi0ENS_6StrideILi0ELi0EEEEEEES9_NS0_9assign_opIddEELi0EE11assignCoeffEl, symObjAddr: 0x51FB0, symBinAddr: 0x100052740, symSize: 0x60 }
  - { offset: 0x157CAA, size: 0x8, addend: 0x0, symName: __ZN5Eigen8internal14evaluator_baseINS_3MapINS_6MatrixIdLin1ELi1ELi0ELin1ELi1EEELi0ENS_6StrideILi0ELi0EEEEEEC2Ev, symObjAddr: 0x51F9C, symBinAddr: 0x10005272C, symSize: 0x14 }
  - { offset: 0x157CCC, size: 0x8, addend: 0x0, symName: __ZN5Eigen8internal20redux_novec_unrollerINS0_13scalar_sum_opIddEENS0_15redux_evaluatorINS_13CwiseBinaryOpINS0_17scalar_product_opIddEEKNS_9TransposeIKNS_5BlockIKNS9_IKNS_3MapINS_6MatrixIdLi3ELi3ELi0ELi3ELi3EEELi0ENS_11OuterStrideILin1EEEEELi1ELi3ELb0EEELi1ELi2ELb0EEEEEKNS9_INSA_INSB_IdLi3ELi1ELi0ELi3ELi1EEELi0ENS_6StrideILi0ELi0EEEEELi2ELi1ELb0EEEEEEELi1ELi1EE3runERKSU_RKS3_, symObjAddr: 0x51F6C, symBinAddr: 0x1000526FC, symSize: 0x30 }
  - { offset: 0x157CFE, size: 0x8, addend: 0x0, symName: __ZN5Eigen8internal20redux_novec_unrollerINS0_13scalar_sum_opIddEENS0_15redux_evaluatorINS_13CwiseBinaryOpINS0_17scalar_product_opIddEEKNS_9TransposeIKNS_5BlockIKNS9_IKNS_3MapINS_6MatrixIdLi3ELi3ELi0ELi3ELi3EEELi0ENS_11OuterStrideILin1EEEEELi1ELi3ELb0EEELi1ELi2ELb0EEEEEKNS9_INSA_INSB_IdLi3ELi1ELi0ELi3ELi1EEELi0ENS_6StrideILi0ELi0EEEEELi2ELi1ELb0EEEEEEELi0ELi1EE3runERKSU_RKS3_, symObjAddr: 0x51F3C, symBinAddr: 0x1000526CC, symSize: 0x30 }
  - { offset: 0x157D5C, size: 0x8, addend: 0x0, symName: __ZN5Eigen8internal16binary_evaluatorINS_13CwiseBinaryOpINS0_17scalar_product_opIddEEKNS_9TransposeIKNS_5BlockIKNS6_IKNS_3MapINS_6MatrixIdLi3ELi3ELi0ELi3ELi3EEELi0ENS_11OuterStrideILin1EEEEELi1ELi3ELb0EEELi1ELi2ELb0EEEEEKNS6_INS7_INS8_IdLi3ELi1ELi0ELi3ELi1EEELi0ENS_6StrideILi0ELi0EEEEELi2ELi1ELb0EEEEENS0_10IndexBasedESR_ddEC2ERKSQ_, symObjAddr: 0x51EF0, symBinAddr: 0x100052680, symSize: 0x4C }
  - { offset: 0x157DEB, size: 0x8, addend: 0x0, symName: __ZN5Eigen8internal15BlockImpl_denseINS_3MapINS_6MatrixIdLi3ELi1ELi0ELi3ELi1EEELi0ENS_6StrideILi0ELi0EEEEELi2ELi1ELb0ELb1EEC2ERS7_llll, symObjAddr: 0x51E20, symBinAddr: 0x1000525B0, symSize: 0xD0 }
  - { offset: 0x157E9E, size: 0x8, addend: 0x0, symName: __ZN5Eigen8internal15BlockImpl_denseIKNS_5BlockIKNS_3MapINS_6MatrixIdLi3ELi3ELi0ELi3ELi3EEELi0ENS_11OuterStrideILin1EEEEELi1ELi3ELb0EEELi1ELi2ELb0ELb1EEC2ERSB_llll, symObjAddr: 0x51D50, symBinAddr: 0x1000524E0, symSize: 0xD0 }
  - { offset: 0x157EF1, size: 0x8, addend: 0x0, symName: __ZNK5Eigen8internal16binary_evaluatorINS_13CwiseBinaryOpINS0_17scalar_product_opIddEEKNS_9TransposeIKNS_5BlockIKNS6_IKNS_3MapINS_6MatrixIdLi3ELi3ELi0ELi3ELi3EEELi0ENS_11OuterStrideILin1EEEEELi1ELi3ELb0EEELi1ELi1ELb0EEEEEKNS6_INS7_INS8_IdLi3ELi1ELi0ELi3ELi1EEELi0ENS_6StrideILi0ELi0EEEEELi1ELi1ELb0EEEEENS0_10IndexBasedESR_ddE5coeffEll, symObjAddr: 0x51CD0, symBinAddr: 0x100052460, symSize: 0x80 }
  - { offset: 0x157F65, size: 0x8, addend: 0x0, symName: __ZN5Eigen8internal16binary_evaluatorINS_13CwiseBinaryOpINS0_17scalar_product_opIddEEKNS_9TransposeIKNS_5BlockIKNS6_IKNS_3MapINS_6MatrixIdLi3ELi3ELi0ELi3ELi3EEELi0ENS_11OuterStrideILin1EEEEELi1ELi3ELb0EEELi1ELi1ELb0EEEEEKNS6_INS7_INS8_IdLi3ELi1ELi0ELi3ELi1EEELi0ENS_6StrideILi0ELi0EEEEELi1ELi1ELb0EEEEENS0_10IndexBasedESR_ddE4DataC1ERKSQ_, symObjAddr: 0x51C44, symBinAddr: 0x1000523D4, symSize: 0x8C }
  - { offset: 0x157FAE, size: 0x8, addend: 0x0, symName: __ZN5Eigen8internal14evaluator_baseINS_13CwiseBinaryOpINS0_17scalar_product_opIddEEKNS_9TransposeIKNS_5BlockIKNS6_IKNS_3MapINS_6MatrixIdLi3ELi3ELi0ELi3ELi3EEELi0ENS_11OuterStrideILin1EEEEELi1ELi3ELb0EEELi1ELi1ELb0EEEEEKNS6_INS7_INS8_IdLi3ELi1ELi0ELi3ELi1EEELi0ENS_6StrideILi0ELi0EEEEELi1ELi1ELb0EEEEEEC2Ev, symObjAddr: 0x51C30, symBinAddr: 0x1000523C0, symSize: 0x14 }
  - { offset: 0x157FD4, size: 0x8, addend: 0x0, symName: __ZN5Eigen8internal15BlockImpl_denseINS_3MapINS_6MatrixIdLi3ELi1ELi0ELi3ELi1EEELi0ENS_6StrideILi0ELi0EEEEELi1ELi1ELb0ELb1EE4initEv, symObjAddr: 0x51C00, symBinAddr: 0x100052390, symSize: 0x30 }
  - { offset: 0x158042, size: 0x8, addend: 0x0, symName: __ZN5Eigen7MapBaseINS_5BlockINS_3MapINS_6MatrixIdLi3ELi1ELi0ELi3ELi1EEELi0ENS_6StrideILi0ELi0EEEEELi1ELi1ELb0EEELi1EEC2EPdll, symObjAddr: 0x51BC8, symBinAddr: 0x100052358, symSize: 0x38 }
  - { offset: 0x158083, size: 0x8, addend: 0x0, symName: __ZN5Eigen8internal15BlockImpl_denseIKNS_5BlockIKNS_3MapINS_6MatrixIdLi3ELi3ELi0ELi3ELi3EEELi0ENS_11OuterStrideILin1EEEEELi1ELi3ELb0EEELi1ELi1ELb0ELb1EE4initEv, symObjAddr: 0x51B98, symBinAddr: 0x100052328, symSize: 0x30 }
  - { offset: 0x1580F8, size: 0x8, addend: 0x0, symName: __ZN5Eigen7MapBaseINS_5BlockIKNS1_IKNS_3MapINS_6MatrixIdLi3ELi3ELi0ELi3ELi3EEELi0ENS_11OuterStrideILin1EEEEELi1ELi3ELb0EEELi1ELi1ELb0EEELi0EEC2EPKdll, symObjAddr: 0x51A30, symBinAddr: 0x1000521C0, symSize: 0x168 }
  - { offset: 0x158167, size: 0x8, addend: 0x0, symName: __ZN5Eigen10MatrixBaseINS_5BlockIKNS1_IKNS_3MapINS_6MatrixIdLi3ELi3ELi0ELi3ELi3EEELi0ENS_11OuterStrideILin1EEEEELi1ELi3ELb0EEELi1ELi1ELb0EEEEC2Ev, symObjAddr: 0x51A10, symBinAddr: 0x1000521A0, symSize: 0x20 }
  - { offset: 0x158189, size: 0x8, addend: 0x0, symName: __ZN5Eigen8internal55copy_using_evaluator_DefaultTraversal_CompleteUnrollingINS0_31generic_dense_assignment_kernelINS0_9evaluatorINS_3MapINS_6MatrixIdLi3ELi1ELi0ELi3ELi1EEELi0ENS_6StrideILi0ELi0EEEEEEESA_NS0_9assign_opIddEELi0EEELi3ELi3EE3runERSD_, symObjAddr: 0x519FC, symBinAddr: 0x10005218C, symSize: 0x14 }
  - { offset: 0x1581AF, size: 0x8, addend: 0x0, symName: __ZN5Eigen8internal31generic_dense_assignment_kernelINS0_9evaluatorINS_3MapINS_6MatrixIdLi3ELi1ELi0ELi3ELi1EEELi0ENS_6StrideILi0ELi0EEEEEEES9_NS0_9assign_opIddEELi0EE23assignCoeffByOuterInnerEll, symObjAddr: 0x519AC, symBinAddr: 0x10005213C, symSize: 0x50 }
  - { offset: 0x158219, size: 0x8, addend: 0x0, symName: __ZN5Eigen8internal47copy_using_evaluator_innervec_CompleteUnrollingINS0_31generic_dense_assignment_kernelINS0_9evaluatorINS_3MapINS_6MatrixIdLi3ELi1ELi0ELi3ELi1EEELi0ENS_6StrideILi0ELi0EEEEEEESA_NS0_9assign_opIddEELi0EEELi2ELi2EE3runERSD_, symObjAddr: 0x51998, symBinAddr: 0x100052128, symSize: 0x14 }
  - { offset: 0x15823F, size: 0x8, addend: 0x0, symName: __ZN5Eigen8internal31generic_dense_assignment_kernelINS0_9evaluatorINS_3MapINS_6MatrixIdLi3ELi1ELi0ELi3ELi1EEELi0ENS_6StrideILi0ELi0EEEEEEES9_NS0_9assign_opIddEELi0EE24assignPacketByOuterInnerILi0ELi0E13__Float64x2_tEEvll, symObjAddr: 0x51948, symBinAddr: 0x1000520D8, symSize: 0x50 }
  - { offset: 0x1582E4, size: 0x8, addend: 0x0, symName: __ZN5Eigen8internal14evaluator_baseINS_3MapINS_6MatrixIdLi3ELi1ELi0ELi3ELi1EEELi0ENS_6StrideILi0ELi0EEEEEEC2Ev, symObjAddr: 0x51934, symBinAddr: 0x1000520C4, symSize: 0x14 }
  - { offset: 0x15830A, size: 0x8, addend: 0x0, symName: __ZNK5Eigen8internal16binary_evaluatorINS_13CwiseBinaryOpINS0_17scalar_product_opIddEEKNS_9TransposeIKNS_5BlockIKNS6_IKNS_3MapINS_6MatrixIdLi2ELi2ELi0ELi2ELi2EEELi0ENS_11OuterStrideILin1EEEEELi1ELi2ELb0EEELi1ELi1ELb0EEEEEKNS6_INS7_INS8_IdLi2ELi1ELi0ELi2ELi1EEELi0ENS_6StrideILi0ELi0EEEEELi1ELi1ELb0EEEEENS0_10IndexBasedESR_ddE5coeffEll, symObjAddr: 0x518B4, symBinAddr: 0x100052044, symSize: 0x80 }
  - { offset: 0x15837E, size: 0x8, addend: 0x0, symName: __ZN5Eigen8internal16binary_evaluatorINS_13CwiseBinaryOpINS0_17scalar_product_opIddEEKNS_9TransposeIKNS_5BlockIKNS6_IKNS_3MapINS_6MatrixIdLi2ELi2ELi0ELi2ELi2EEELi0ENS_11OuterStrideILin1EEEEELi1ELi2ELb0EEELi1ELi1ELb0EEEEEKNS6_INS7_INS8_IdLi2ELi1ELi0ELi2ELi1EEELi0ENS_6StrideILi0ELi0EEEEELi1ELi1ELb0EEEEENS0_10IndexBasedESR_ddE4DataC1ERKSQ_, symObjAddr: 0x51828, symBinAddr: 0x100051FB8, symSize: 0x8C }
  - { offset: 0x1583C7, size: 0x8, addend: 0x0, symName: __ZN5Eigen8internal14evaluator_baseINS_13CwiseBinaryOpINS0_17scalar_product_opIddEEKNS_9TransposeIKNS_5BlockIKNS6_IKNS_3MapINS_6MatrixIdLi2ELi2ELi0ELi2ELi2EEELi0ENS_11OuterStrideILin1EEEEELi1ELi2ELb0EEELi1ELi1ELb0EEEEEKNS6_INS7_INS8_IdLi2ELi1ELi0ELi2ELi1EEELi0ENS_6StrideILi0ELi0EEEEELi1ELi1ELb0EEEEEEC2Ev, symObjAddr: 0x51814, symBinAddr: 0x100051FA4, symSize: 0x14 }
  - { offset: 0x1583ED, size: 0x8, addend: 0x0, symName: __ZN5Eigen8internal15BlockImpl_denseINS_3MapINS_6MatrixIdLi2ELi1ELi0ELi2ELi1EEELi0ENS_6StrideILi0ELi0EEEEELi1ELi1ELb0ELb1EE4initEv, symObjAddr: 0x517E4, symBinAddr: 0x100051F74, symSize: 0x30 }
  - { offset: 0x15845B, size: 0x8, addend: 0x0, symName: __ZN5Eigen7MapBaseINS_5BlockINS_3MapINS_6MatrixIdLi2ELi1ELi0ELi2ELi1EEELi0ENS_6StrideILi0ELi0EEEEELi1ELi1ELb0EEELi1EEC2EPdll, symObjAddr: 0x517AC, symBinAddr: 0x100051F3C, symSize: 0x38 }
  - { offset: 0x15849C, size: 0x8, addend: 0x0, symName: __ZN5Eigen8internal15BlockImpl_denseIKNS_5BlockIKNS_3MapINS_6MatrixIdLi2ELi2ELi0ELi2ELi2EEELi0ENS_11OuterStrideILin1EEEEELi1ELi2ELb0EEELi1ELi1ELb0ELb1EE4initEv, symObjAddr: 0x5177C, symBinAddr: 0x100051F0C, symSize: 0x30 }
  - { offset: 0x158511, size: 0x8, addend: 0x0, symName: __ZN5Eigen7MapBaseINS_5BlockIKNS1_IKNS_3MapINS_6MatrixIdLi2ELi2ELi0ELi2ELi2EEELi0ENS_11OuterStrideILin1EEEEELi1ELi2ELb0EEELi1ELi1ELb0EEELi0EEC2EPKdll, symObjAddr: 0x51614, symBinAddr: 0x100051DA4, symSize: 0x168 }
  - { offset: 0x158580, size: 0x8, addend: 0x0, symName: __ZN5Eigen10MatrixBaseINS_5BlockIKNS1_IKNS_3MapINS_6MatrixIdLi2ELi2ELi0ELi2ELi2EEELi0ENS_11OuterStrideILin1EEEEELi1ELi2ELb0EEELi1ELi1ELb0EEEEC2Ev, symObjAddr: 0x515F4, symBinAddr: 0x100051D84, symSize: 0x20 }
  - { offset: 0x1585A2, size: 0x8, addend: 0x0, symName: __ZN5Eigen8internal47copy_using_evaluator_innervec_CompleteUnrollingINS0_31generic_dense_assignment_kernelINS0_9evaluatorINS_3MapINS_6MatrixIdLi2ELi1ELi0ELi2ELi1EEELi0ENS_6StrideILi0ELi0EEEEEEESA_NS0_9assign_opIddEELi0EEELi2ELi2EE3runERSD_, symObjAddr: 0x515E0, symBinAddr: 0x100051D70, symSize: 0x14 }
  - { offset: 0x1585C8, size: 0x8, addend: 0x0, symName: __ZN5Eigen8internal31generic_dense_assignment_kernelINS0_9evaluatorINS_3MapINS_6MatrixIdLi2ELi1ELi0ELi2ELi1EEELi0ENS_6StrideILi0ELi0EEEEEEES9_NS0_9assign_opIddEELi0EE24assignPacketByOuterInnerILi0ELi0E13__Float64x2_tEEvll, symObjAddr: 0x51590, symBinAddr: 0x100051D20, symSize: 0x50 }
  - { offset: 0x15866D, size: 0x8, addend: 0x0, symName: __ZN5Eigen8internal14evaluator_baseINS_3MapINS_6MatrixIdLi2ELi1ELi0ELi2ELi1EEELi0ENS_6StrideILi0ELi0EEEEEEC2Ev, symObjAddr: 0x5157C, symBinAddr: 0x100051D0C, symSize: 0x14 }
  - { offset: 0x158693, size: 0x8, addend: 0x0, symName: __ZNK5Eigen8internal17mapbase_evaluatorINS_3MapINS_6MatrixIdLin1ELin1ELi0ELin1ELin1EEELi16ENS_11OuterStrideILin1EEEEES4_E6packetILi0E13__Float64x2_tEET0_ll, symObjAddr: 0x514F8, symBinAddr: 0x100051C88, symSize: 0x84 }
  - { offset: 0x158727, size: 0x8, addend: 0x0, symName: __ZNK5Eigen8internal17mapbase_evaluatorINS_3MapINS_6MatrixIdLin1ELin1ELi0ELin1ELin1EEELi16ENS_11OuterStrideILin1EEEEES4_E5coeffEll, symObjAddr: 0x51498, symBinAddr: 0x100051C28, symSize: 0x60 }
  - { offset: 0x15879B, size: 0x8, addend: 0x0, symName: __ZN5Eigen8internal16binary_evaluatorINS_13CwiseBinaryOpINS0_20scalar_difference_opIddEEKNS_12ArrayWrapperINS_6MatrixIdLin1ELi1ELi0ELin1ELi1EEEEEKNS_14CwiseNullaryOpINS0_18scalar_constant_opIdEEKNS_5ArrayIdLin1ELi1ELi0ELin1ELi1EEEEEEENS0_10IndexBasedESJ_ddEC2ERKSI_, symObjAddr: 0x5144C, symBinAddr: 0x100051BDC, symSize: 0x4C }
  - { offset: 0x1587F2, size: 0x8, addend: 0x0, symName: __ZN5Eigen8internal15unary_evaluatorINS_12CwiseUnaryOpINS0_18scalar_opposite_opIdEEKNS_13CwiseBinaryOpINS0_20scalar_difference_opIddEEKNS_12ArrayWrapperINS_6MatrixIdLin1ELi1ELi0ELin1ELi1EEEEEKNS_14CwiseNullaryOpINS0_18scalar_constant_opIdEEKNS_5ArrayIdLin1ELi1ELi0ELin1ELi1EEEEEEEEENS0_10IndexBasedEdEC2ERKSN_, symObjAddr: 0x51400, symBinAddr: 0x100051B90, symSize: 0x4C }
  - { offset: 0x15881D, size: 0x8, addend: 0x0, symName: __ZN5Eigen8internal26call_dense_assignment_loopINS_5BlockINS2_INS_6MatrixIdLin1ELi1ELi0ELin1ELi1EEELin1ELi1ELb1EEELi1ELi1ELb0EEENS2_IKS5_Li1ELi1ELb0EEENS0_9assign_opIddEEEEvRT_RKT0_RKT1_, symObjAddr: 0x51350, symBinAddr: 0x100051AE0, symSize: 0xB0 }
  - { offset: 0x158904, size: 0x8, addend: 0x0, symName: __ZN5Eigen8internal9evaluatorINS_5BlockIKNS2_INS_6MatrixIdLin1ELi1ELi0ELin1ELi1EEELin1ELi1ELb1EEELi1ELi1ELb0EEEED1Ev, symObjAddr: 0x51330, symBinAddr: 0x100051AC0, symSize: 0x20 }
  - { offset: 0x158948, size: 0x8, addend: 0x0, symName: __ZN5Eigen8internal15block_evaluatorIKNS_5BlockINS_6MatrixIdLin1ELi1ELi0ELin1ELi1EEELin1ELi1ELb1EEELi1ELi1ELb0ELb1EED2Ev, symObjAddr: 0x51310, symBinAddr: 0x100051AA0, symSize: 0x20 }
  - { offset: 0x15898C, size: 0x8, addend: 0x0, symName: __ZN5Eigen8internal17mapbase_evaluatorINS_5BlockIKNS2_INS_6MatrixIdLin1ELi1ELi0ELin1ELi1EEELin1ELi1ELb1EEELi1ELi1ELb0EEENS3_IdLi1ELi1ELi0ELi1ELi1EEEED2Ev, symObjAddr: 0x512F0, symBinAddr: 0x100051A80, symSize: 0x20 }
  - { offset: 0x1589AE, size: 0x8, addend: 0x0, symName: __ZN5Eigen8internal18check_for_aliasingINS_5BlockINS2_INS_6MatrixIdLin1ELi1ELi0ELin1ELi1EEELin1ELi1ELb1EEELi1ELi1ELb0EEENS2_IKS5_Li1ELi1ELb0EEEEEvRKT_RKT0_, symObjAddr: 0x512D8, symBinAddr: 0x100051A68, symSize: 0x18 }
  - { offset: 0x1589FB, size: 0x8, addend: 0x0, symName: __ZN5Eigen8internal15call_assignmentINS_3MapINS_6MatrixIdLin1ELi1ELi0ELin1ELi1EEELi0ENS_11OuterStrideILin1EEEEENS2_IS4_Li16ENS_6StrideILi0ELi0EEEEENS0_9assign_opIddEEEEvRT_RKT0_RKT1_NS0_9enable_ifIXntsrNS0_25evaluator_assume_aliasingISF_NS0_16evaluator_traitsISF_E5ShapeEEE5valueEPvE4typeE, symObjAddr: 0x512A4, symBinAddr: 0x100051A34, symSize: 0x34 }
  - { offset: 0x158A6B, size: 0x8, addend: 0x0, symName: __ZN5Eigen8internal15call_assignmentINS_3MapINS_6MatrixIdLin1ELi1ELi0ELin1ELi1EEELi16ENS_6StrideILi0ELi0EEEEENS2_IS4_Li0ENS_11OuterStrideILin1EEEEENS0_9assign_opIddEEEEvRT_RKT0_RKT1_NS0_9enable_ifIXntsrNS0_25evaluator_assume_aliasingISF_NS0_16evaluator_traitsISF_E5ShapeEEE5valueEPvE4typeE, symObjAddr: 0x51270, symBinAddr: 0x100051A00, symSize: 0x34 }
  - { offset: 0x158ADB, size: 0x8, addend: 0x0, symName: __ZN5Eigen8internal24call_assignment_no_aliasINS_3MapINS_6MatrixIdLin1ELi1ELi0ELin1ELi1EEELi0ENS_11OuterStrideILin1EEEEES7_NS0_9assign_opIddEEEEvRT_RKT0_RKT1_, symObjAddr: 0x51238, symBinAddr: 0x1000519C8, symSize: 0x38 }
  - { offset: 0x158B77, size: 0x8, addend: 0x0, symName: __ZN5Eigen8internal10redux_implINS0_13scalar_sum_opIddEENS0_15redux_evaluatorINS_13CwiseBinaryOpINS0_22scalar_conj_product_opIddEEKNS_9TransposeIKNS_5BlockIKNS_3MapIKNS_6MatrixIdLin1ELin1ELi0ELin1ELin1EEELi0ENS_11OuterStrideILin1EEEEELi1ELin1ELb0EEEEEKNS9_IKNSA_INSB_IdLin1ELi1ELi0ELin1ELi1EEELi0ESF_EELin1ELi1ELb1EEEEEEELi0ELi0EE3runISR_EEdRKSS_RKS3_RKT_, symObjAddr: 0x51040, symBinAddr: 0x1000517D0, symSize: 0x1F8 }
  - { offset: 0x158C7C, size: 0x8, addend: 0x0, symName: __ZN5Eigen8internal14evaluator_baseINS_5BlockIKNS_3MapINS_6MatrixIdLin1ELi1ELi0ELin1ELi1EEELi0ENS_11OuterStrideILin1EEEEELin1ELi1ELb1EEEED2Ev, symObjAddr: 0x5102C, symBinAddr: 0x1000517BC, symSize: 0x14 }
  - { offset: 0x158CBC, size: 0x8, addend: 0x0, symName: __ZN5Eigen8internal14evaluator_baseINS_5BlockIKNS_3MapIKNS_6MatrixIdLin1ELin1ELi0ELin1ELin1EEELi0ENS_11OuterStrideILin1EEEEELi1ELin1ELb0EEEED2Ev, symObjAddr: 0x51018, symBinAddr: 0x1000517A8, symSize: 0x14 }
  - { offset: 0x158CFC, size: 0x8, addend: 0x0, symName: __ZN5Eigen8internal14evaluator_baseINS_9TransposeIKNS_5BlockIKNS_3MapIKNS_6MatrixIdLin1ELin1ELi0ELin1ELin1EEELi0ENS_11OuterStrideILin1EEEEELi1ELin1ELb0EEEEEED2Ev, symObjAddr: 0x51004, symBinAddr: 0x100051794, symSize: 0x14 }
  - { offset: 0x158D3C, size: 0x8, addend: 0x0, symName: __ZN5Eigen8internal14evaluator_baseINS_13CwiseBinaryOpINS0_22scalar_conj_product_opIddEEKNS_9TransposeIKNS_5BlockIKNS_3MapIKNS_6MatrixIdLin1ELin1ELi0ELin1ELin1EEELi0ENS_11OuterStrideILin1EEEEELi1ELin1ELb0EEEEEKNS6_IKNS7_INS8_IdLin1ELi1ELi0ELin1ELi1EEELi0ESC_EELin1ELi1ELb1EEEEEED2Ev, symObjAddr: 0x50FF0, symBinAddr: 0x100051780, symSize: 0x14 }
  - { offset: 0x158D8A, size: 0x8, addend: 0x0, symName: __ZN5Eigen8internal15redux_evaluatorINS_13CwiseBinaryOpINS0_22scalar_conj_product_opIddEEKNS_9TransposeIKNS_5BlockIKNS_3MapIKNS_6MatrixIdLin1ELin1ELi0ELin1ELin1EEELi0ENS_11OuterStrideILin1EEEEELi1ELin1ELb0EEEEEKNS6_IKNS7_INS8_IdLin1ELi1ELi0ELin1ELi1EEELi0ESC_EELin1ELi1ELb1EEEEEEC1ERKSO_, symObjAddr: 0x50FC8, symBinAddr: 0x100051758, symSize: 0x28 }
  - { offset: 0x158DB9, size: 0x8, addend: 0x0, symName: __ZNK5Eigen9EigenBaseINS_13CwiseBinaryOpINS_8internal22scalar_conj_product_opIddEEKNS_9TransposeIKNS_5BlockIKNS_3MapIKNS_6MatrixIdLin1ELin1ELi0ELin1ELin1EEELi0ENS_11OuterStrideILin1EEEEELi1ELin1ELb0EEEEEKNS6_IKNS7_INS8_IdLin1ELi1ELi0ELin1ELi1EEELi0ESC_EELin1ELi1ELb1EEEEEE4colsEv, symObjAddr: 0x50FA8, symBinAddr: 0x100051738, symSize: 0x20 }
  - { offset: 0x158DE3, size: 0x8, addend: 0x0, symName: __ZNK5Eigen9EigenBaseINS_13CwiseBinaryOpINS_8internal22scalar_conj_product_opIddEEKNS_9TransposeIKNS_5BlockIKNS_3MapIKNS_6MatrixIdLin1ELin1ELi0ELin1ELin1EEELi0ENS_11OuterStrideILin1EEEEELi1ELin1ELb0EEEEEKNS6_IKNS7_INS8_IdLin1ELi1ELi0ELin1ELi1EEELi0ESC_EELin1ELi1ELb1EEEEEE4rowsEv, symObjAddr: 0x50F88, symBinAddr: 0x100051718, symSize: 0x20 }
  - { offset: 0x158E0D, size: 0x8, addend: 0x0, symName: __ZNK5Eigen9TransposeIKNS_5BlockIKNS_3MapIKNS_6MatrixIdLin1ELin1ELi0ELin1ELin1EEELi0ENS_11OuterStrideILin1EEEEELi1ELin1ELb0EEEE4colsEv, symObjAddr: 0x50F6C, symBinAddr: 0x1000516FC, symSize: 0x1C }
  - { offset: 0x158E37, size: 0x8, addend: 0x0, symName: __ZNK5Eigen9TransposeIKNS_5BlockIKNS_3MapIKNS_6MatrixIdLin1ELin1ELi0ELin1ELin1EEELi0ENS_11OuterStrideILin1EEEEELi1ELin1ELb0EEEE4rowsEv, symObjAddr: 0x50F50, symBinAddr: 0x1000516E0, symSize: 0x1C }
  - { offset: 0x158E7B, size: 0x8, addend: 0x0, symName: __ZN5Eigen9DenseBaseINS_13CwiseBinaryOpINS_8internal22scalar_conj_product_opIddEEKNS_9TransposeIKNS_5BlockIKNS_3MapIKNS_6MatrixIdLin1ELin1ELi0ELin1ELin1EEELi0ENS_11OuterStrideILin1EEEEELi1ELin1ELb0EEEEEKNS6_IKNS7_INS8_IdLin1ELi1ELi0ELin1ELi1EEELi0ESC_EELin1ELi1ELb1EEEEEEC2Ev, symObjAddr: 0x50F3C, symBinAddr: 0x1000516CC, symSize: 0x14 }
  - { offset: 0x158EBB, size: 0x8, addend: 0x0, symName: __ZN5Eigen9DenseBaseINS_9TransposeIKNS_5BlockIKNS_3MapIKNS_6MatrixIdLin1ELin1ELi0ELin1ELin1EEELi0ENS_11OuterStrideILin1EEEEELi1ELin1ELb0EEEEEEC2Ev, symObjAddr: 0x50F28, symBinAddr: 0x1000516B8, symSize: 0x14 }
  - { offset: 0x158EE1, size: 0x8, addend: 0x0, symName: __ZN5Eigen8internal15BlockImpl_denseIKNS_3MapINS_6MatrixIdLin1ELi1ELi0ELin1ELi1EEELi0ENS_11OuterStrideILin1EEEEELin1ELi1ELb1ELb1EE4initEv, symObjAddr: 0x50EF8, symBinAddr: 0x100051688, symSize: 0x30 }
  - { offset: 0x158F56, size: 0x8, addend: 0x0, symName: __ZN5Eigen7MapBaseINS_5BlockIKNS_3MapINS_6MatrixIdLin1ELi1ELi0ELin1ELi1EEELi0ENS_11OuterStrideILin1EEEEELin1ELi1ELb1EEELi0EEC2EPKdll, symObjAddr: 0x50DC4, symBinAddr: 0x100051554, symSize: 0x134 }
  - { offset: 0x158FC5, size: 0x8, addend: 0x0, symName: __ZN5Eigen10MatrixBaseINS_5BlockIKNS_3MapINS_6MatrixIdLin1ELi1ELi0ELin1ELi1EEELi0ENS_11OuterStrideILin1EEEEELin1ELi1ELb1EEEEC2Ev, symObjAddr: 0x50DA4, symBinAddr: 0x100051534, symSize: 0x20 }
  - { offset: 0x158FEB, size: 0x8, addend: 0x0, symName: __ZN5Eigen8internal15BlockImpl_denseIKNS_3MapIKNS_6MatrixIdLin1ELin1ELi0ELin1ELin1EEELi0ENS_11OuterStrideILin1EEEEELi1ELin1ELb0ELb1EE4initEv, symObjAddr: 0x50D74, symBinAddr: 0x100051504, symSize: 0x30 }
  - { offset: 0x159060, size: 0x8, addend: 0x0, symName: __ZN5Eigen7MapBaseINS_5BlockIKNS_3MapIKNS_6MatrixIdLin1ELin1ELi0ELin1ELin1EEELi0ENS_11OuterStrideILin1EEEEELi1ELin1ELb0EEELi0EEC2EPKdll, symObjAddr: 0x50C40, symBinAddr: 0x1000513D0, symSize: 0x134 }
  - { offset: 0x1590CF, size: 0x8, addend: 0x0, symName: __ZN5Eigen10MatrixBaseINS_5BlockIKNS_3MapIKNS_6MatrixIdLin1ELin1ELi0ELin1ELin1EEELi0ENS_11OuterStrideILin1EEEEELi1ELin1ELb0EEEEC2Ev, symObjAddr: 0x50C20, symBinAddr: 0x1000513B0, symSize: 0x20 }
  - { offset: 0x1590F1, size: 0x8, addend: 0x0, symName: __ZN5Eigen8internal26call_dense_assignment_loopINS_5BlockINS2_INS_6MatrixIdLin1ELi1ELi0ELin1ELi1EEELin1ELi1ELb1EEELi1ELi1ELb0EEENS2_IKNS2_INS_12CwiseUnaryOpINS0_18scalar_opposite_opIdEEKS4_EELin1ELi1ELb1EEELi1ELi1ELb0EEENS0_9assign_opIddEEEEvRT_RKT0_RKT1_, symObjAddr: 0x50B70, symBinAddr: 0x100051300, symSize: 0xB0 }
  - { offset: 0x1591D9, size: 0x8, addend: 0x0, symName: __ZN5Eigen8internal9evaluatorINS_5BlockIKNS2_INS_12CwiseUnaryOpINS0_18scalar_opposite_opIdEEKNS_6MatrixIdLin1ELi1ELi0ELin1ELi1EEEEELin1ELi1ELb1EEELi1ELi1ELb0EEEED1Ev, symObjAddr: 0x50B50, symBinAddr: 0x1000512E0, symSize: 0x20 }
  - { offset: 0x15921D, size: 0x8, addend: 0x0, symName: __ZN5Eigen8internal15block_evaluatorIKNS_5BlockINS_12CwiseUnaryOpINS0_18scalar_opposite_opIdEEKNS_6MatrixIdLin1ELi1ELi0ELin1ELi1EEEEELin1ELi1ELb1EEELi1ELi1ELb0ELb0EED2Ev, symObjAddr: 0x50B30, symBinAddr: 0x1000512C0, symSize: 0x20 }
  - { offset: 0x159261, size: 0x8, addend: 0x0, symName: __ZN5Eigen8internal15unary_evaluatorINS_5BlockIKNS2_INS_12CwiseUnaryOpINS0_18scalar_opposite_opIdEEKNS_6MatrixIdLin1ELi1ELi0ELin1ELi1EEEEELin1ELi1ELb1EEELi1ELi1ELb0EEENS0_10IndexBasedEdED2Ev, symObjAddr: 0x50B08, symBinAddr: 0x100051298, symSize: 0x28 }
  - { offset: 0x1592A4, size: 0x8, addend: 0x0, symName: __ZN5Eigen8internal9evaluatorIKNS_5BlockINS_12CwiseUnaryOpINS0_18scalar_opposite_opIdEEKNS_6MatrixIdLin1ELi1ELi0ELin1ELi1EEEEELin1ELi1ELb1EEEED1Ev, symObjAddr: 0x50AE8, symBinAddr: 0x100051278, symSize: 0x20 }
  - { offset: 0x1592E8, size: 0x8, addend: 0x0, symName: __ZN5Eigen8internal9evaluatorINS_5BlockINS_12CwiseUnaryOpINS0_18scalar_opposite_opIdEEKNS_6MatrixIdLin1ELi1ELi0ELin1ELi1EEEEELin1ELi1ELb1EEEED2Ev, symObjAddr: 0x50AC8, symBinAddr: 0x100051258, symSize: 0x20 }
  - { offset: 0x15932C, size: 0x8, addend: 0x0, symName: __ZN5Eigen8internal15block_evaluatorINS_12CwiseUnaryOpINS0_18scalar_opposite_opIdEEKNS_6MatrixIdLin1ELi1ELi0ELin1ELi1EEEEELin1ELi1ELb1ELb0EED2Ev, symObjAddr: 0x50AA8, symBinAddr: 0x100051238, symSize: 0x20 }
  - { offset: 0x159370, size: 0x8, addend: 0x0, symName: __ZN5Eigen8internal15unary_evaluatorINS_5BlockINS_12CwiseUnaryOpINS0_18scalar_opposite_opIdEEKNS_6MatrixIdLin1ELi1ELi0ELin1ELi1EEEEELin1ELi1ELb1EEENS0_10IndexBasedEdED2Ev, symObjAddr: 0x50A80, symBinAddr: 0x100051210, symSize: 0x28 }
  - { offset: 0x1593B3, size: 0x8, addend: 0x0, symName: __ZN5Eigen8internal9evaluatorINS_12CwiseUnaryOpINS0_18scalar_opposite_opIdEEKNS_6MatrixIdLin1ELi1ELi0ELin1ELi1EEEEEED1Ev, symObjAddr: 0x50A60, symBinAddr: 0x1000511F0, symSize: 0x20 }
  - { offset: 0x1593F7, size: 0x8, addend: 0x0, symName: __ZN5Eigen8internal15unary_evaluatorINS_12CwiseUnaryOpINS0_18scalar_opposite_opIdEEKNS_6MatrixIdLin1ELi1ELi0ELin1ELi1EEEEENS0_10IndexBasedEdED2Ev, symObjAddr: 0x50A38, symBinAddr: 0x1000511C8, symSize: 0x28 }
  - { offset: 0x15943B, size: 0x8, addend: 0x0, symName: __ZN5Eigen8internal15unary_evaluatorINS_12CwiseUnaryOpINS0_18scalar_opposite_opIdEEKNS_6MatrixIdLin1ELi1ELi0ELin1ELi1EEEEENS0_10IndexBasedEdE4DataD1Ev, symObjAddr: 0x50A14, symBinAddr: 0x1000511A4, symSize: 0x24 }
  - { offset: 0x15945D, size: 0x8, addend: 0x0, symName: __ZN5Eigen8internal18check_for_aliasingINS_5BlockINS2_INS_6MatrixIdLin1ELi1ELi0ELin1ELi1EEELin1ELi1ELb1EEELi1ELi1ELb0EEENS2_IKNS2_INS_12CwiseUnaryOpINS0_18scalar_opposite_opIdEEKS4_EELin1ELi1ELb1EEELi1ELi1ELb0EEEEEvRKT_RKT0_, symObjAddr: 0x509FC, symBinAddr: 0x10005118C, symSize: 0x18 }
  - { offset: 0x1594AA, size: 0x8, addend: 0x0, symName: __ZN5Eigen8internal21dense_assignment_loopINS0_31generic_dense_assignment_kernelINS0_9evaluatorINS_5BlockINS4_INS_6MatrixIdLin1ELi1ELi0ELin1ELi1EEELin1ELi1ELb1EEELi1ELi1ELb0EEEEES9_NS0_14swap_assign_opIdEELi0EEELi3ELi2EE3runERSC_, symObjAddr: 0x509D4, symBinAddr: 0x100051164, symSize: 0x28 }
  - { offset: 0x159543, size: 0x8, addend: 0x0, symName: __ZN5Eigen8internal31generic_dense_assignment_kernelINS0_9evaluatorINS_5BlockINS3_INS_6MatrixIdLin1ELi1ELi0ELin1ELi1EEELin1ELi1ELb1EEELi1ELi1ELb0EEEEES8_NS0_14swap_assign_opIdEELi0EEC1ERS8_RKS8_RKSA_RS7_, symObjAddr: 0x50994, symBinAddr: 0x100051124, symSize: 0x40 }
  - { offset: 0x159589, size: 0x8, addend: 0x0, symName: __ZN5Eigen8internal17resize_if_allowedINS_5BlockINS2_INS_6MatrixIdLin1ELi1ELi0ELin1ELi1EEELin1ELi1ELb1EEELi1ELi1ELb0EEES6_NS0_14swap_assign_opIdEEEEvRT_RKT0_RKT1_, symObjAddr: 0x508DC, symBinAddr: 0x10005106C, symSize: 0xB8 }
  - { offset: 0x159610, size: 0x8, addend: 0x0, symName: __ZN5Eigen8internal14evaluator_baseINS_5BlockINS2_INS_6MatrixIdLin1ELi1ELi0ELin1ELi1EEELin1ELi1ELb1EEELi1ELi1ELb0EEEED2Ev, symObjAddr: 0x508C8, symBinAddr: 0x100051058, symSize: 0x14 }
  - { offset: 0x15965E, size: 0x8, addend: 0x0, symName: __ZN5Eigen8internal9evaluatorINS_5BlockINS2_INS_6MatrixIdLin1ELi1ELi0ELin1ELi1EEELin1ELi1ELb1EEELi1ELi1ELb0EEEEC1ERKS6_, symObjAddr: 0x508A0, symBinAddr: 0x100051030, symSize: 0x28 }
  - { offset: 0x15968D, size: 0x8, addend: 0x0, symName: __ZNK5Eigen7MapBaseINS_5BlockINS1_INS_6MatrixIdLin1ELi1ELi0ELin1ELi1EEELin1ELi1ELb1EEELi1ELi1ELb0EEELi0EE11checkSanityIS5_EEvNS_8internal9enable_ifIXeqsrNS8_6traitsIT_EE9AlignmentLi0EEPvE4typeE, symObjAddr: 0x50888, symBinAddr: 0x100051018, symSize: 0x18 }
  - { offset: 0x1596E3, size: 0x8, addend: 0x0, symName: __ZN5Eigen9DenseBaseINS_5BlockINS1_INS_6MatrixIdLin1ELi1ELi0ELin1ELi1EEELin1ELi1ELb1EEELi1ELi1ELb0EEEEC2Ev, symObjAddr: 0x50874, symBinAddr: 0x100051004, symSize: 0x14 }
  - { offset: 0x15973B, size: 0x8, addend: 0x0, symName: __ZN5Eigen8internal15block_evaluatorIKNS_5BlockINS_6MatrixIdLin1ELi1ELi0ELin1ELi1EEELin1ELi1ELb0EEELin1ELi1ELb1ELb1EEC2ERKNS2_IS6_Lin1ELi1ELb1EEE, symObjAddr: 0x507E0, symBinAddr: 0x100050F70, symSize: 0x94 }
  - { offset: 0x1597A6, size: 0x8, addend: 0x0, symName: __ZN5Eigen8internal15unary_evaluatorINS_9TransposeIKNS_5BlockIKNS_3MapINS_6MatrixIdLin1ELin1ELi0ELin1ELin1EEELi0ENS_11OuterStrideILin1EEEEELi1ELin1ELb0EEEEENS0_10IndexBasedEdEC2ERKSD_, symObjAddr: 0x50788, symBinAddr: 0x100050F18, symSize: 0x58 }
  - { offset: 0x1597D5, size: 0x8, addend: 0x0, symName: __ZN5Eigen8internal31generic_dense_assignment_kernelINS0_9evaluatorINS_5BlockINS_6MatrixIdLin1ELi1ELi0ELin1ELi1EEELin1ELi1ELb0EEEEENS2_INS_3MapIS5_Li16ENS_6StrideILi0ELi0EEEEEEENS0_9assign_opIddEELi0EE12assignPacketILi16ELi0E13__Float64x2_tEEvl, symObjAddr: 0x5071C, symBinAddr: 0x100050EAC, symSize: 0x6C }
  - { offset: 0x159829, size: 0x8, addend: 0x0, symName: __ZN5Eigen8internal31unaligned_dense_assignment_loopILb0EE3runINS0_31generic_dense_assignment_kernelINS0_9evaluatorINS_5BlockINS_6MatrixIdLin1ELi1ELi0ELin1ELi1EEELin1ELi1ELb0EEEEENS5_INS_3MapIS8_Li16ENS_6StrideILi0ELi0EEEEEEENS0_9assign_opIddEELi0EEEEEvRT_ll, symObjAddr: 0x506C4, symBinAddr: 0x100050E54, symSize: 0x58 }
  - { offset: 0x1598A6, size: 0x8, addend: 0x0, symName: __ZNK5Eigen8internal31generic_dense_assignment_kernelINS0_9evaluatorINS_5BlockINS_6MatrixIdLin1ELi1ELi0ELin1ELi1EEELin1ELi1ELb0EEEEENS2_INS_3MapIS5_Li16ENS_6StrideILi0ELi0EEEEEEENS0_9assign_opIddEELi0EE10dstDataPtrEv, symObjAddr: 0x506A4, symBinAddr: 0x100050E34, symSize: 0x20 }
  - { offset: 0x1598D0, size: 0x8, addend: 0x0, symName: __ZN5Eigen8internal31generic_dense_assignment_kernelINS0_9evaluatorINS_3MapINS_6MatrixIdLin1ELi1ELi0ELin1ELi1EEELi0ENS_6StrideILi0ELi0EEEEEEENS2_INS_13CwiseBinaryOpINS0_17scalar_product_opIddEEKNS_14CwiseNullaryOpINS0_18scalar_constant_opIdEEKS5_EEKNS_5BlockIKNSJ_IKNS3_IKNS4_IdLin1ELin1ELi0ELin1ELin1EEELi0ENS_11OuterStrideILin1EEEEELin1ELi1ELb1EEELin1ELi1ELb0EEEEEEENS0_13sub_assign_opIddEELi0EE12assignPacketILi16ELi0E13__Float64x2_tEEvl, symObjAddr: 0x50638, symBinAddr: 0x100050DC8, symSize: 0x6C }
  - { offset: 0x159924, size: 0x8, addend: 0x0, symName: __ZN5Eigen8internal31unaligned_dense_assignment_loopILb0EE3runINS0_31generic_dense_assignment_kernelINS0_9evaluatorINS_3MapINS_6MatrixIdLin1ELi1ELi0ELin1ELi1EEELi0ENS_6StrideILi0ELi0EEEEEEENS5_INS_13CwiseBinaryOpINS0_17scalar_product_opIddEEKNS_14CwiseNullaryOpINS0_18scalar_constant_opIdEEKS8_EEKNS_5BlockIKNSM_IKNS6_IKNS7_IdLin1ELin1ELi0ELin1ELin1EEELi0ENS_11OuterStrideILin1EEEEELin1ELi1ELb1EEELin1ELi1ELb0EEEEEEENS0_13sub_assign_opIddEELi0EEEEEvRT_ll, symObjAddr: 0x505E0, symBinAddr: 0x100050D70, symSize: 0x58 }
  - { offset: 0x1599A1, size: 0x8, addend: 0x0, symName: __ZNK5Eigen8internal31generic_dense_assignment_kernelINS0_9evaluatorINS_3MapINS_6MatrixIdLin1ELi1ELi0ELin1ELi1EEELi0ENS_6StrideILi0ELi0EEEEEEENS2_INS_13CwiseBinaryOpINS0_17scalar_product_opIddEEKNS_14CwiseNullaryOpINS0_18scalar_constant_opIdEEKS5_EEKNS_5BlockIKNSJ_IKNS3_IKNS4_IdLin1ELin1ELi0ELin1ELin1EEELi0ENS_11OuterStrideILin1EEEEELin1ELi1ELb1EEELin1ELi1ELb0EEEEEEENS0_13sub_assign_opIddEELi0EE10dstDataPtrEv, symObjAddr: 0x505C0, symBinAddr: 0x100050D50, symSize: 0x20 }
  - { offset: 0x1599CB, size: 0x8, addend: 0x0, symName: __ZNK5Eigen13CwiseBinaryOpINS_8internal17scalar_product_opIddEEKNS_14CwiseNullaryOpINS1_18scalar_constant_opIdEEKNS_6MatrixIdLin1ELi1ELi0ELin1ELi1EEEEEKNS_5BlockIKNSC_IKNS_3MapIKNS7_IdLin1ELin1ELi0ELin1ELin1EEELi0ENS_11OuterStrideILin1EEEEELin1ELi1ELb1EEELin1ELi1ELb0EEEE4colsEv, symObjAddr: 0x505A0, symBinAddr: 0x100050D30, symSize: 0x20 }
  - { offset: 0x1599F5, size: 0x8, addend: 0x0, symName: __ZNK5Eigen13CwiseBinaryOpINS_8internal17scalar_product_opIddEEKNS_14CwiseNullaryOpINS1_18scalar_constant_opIdEEKNS_6MatrixIdLin1ELi1ELi0ELin1ELi1EEEEEKNS_5BlockIKNSC_IKNS_3MapIKNS7_IdLin1ELin1ELi0ELin1ELin1EEELi0ENS_11OuterStrideILin1EEEEELin1ELi1ELb1EEELin1ELi1ELb0EEEE4rowsEv, symObjAddr: 0x50580, symBinAddr: 0x100050D10, symSize: 0x20 }
  - { offset: 0x159A47, size: 0x8, addend: 0x0, symName: __ZN5Eigen8internal16binary_evaluatorINS_13CwiseBinaryOpINS0_17scalar_product_opIddEEKNS_14CwiseNullaryOpINS0_18scalar_constant_opIdEEKNS_6MatrixIdLin1ELi1ELi0ELin1ELi1EEEEEKNS_5BlockIKNSD_IKNS_3MapIKNS8_IdLin1ELin1ELi0ELin1ELin1EEELi0ENS_11OuterStrideILin1EEEEELin1ELi1ELb1EEELin1ELi1ELb0EEEEENS0_10IndexBasedESQ_ddEC2ERKSP_, symObjAddr: 0x50534, symBinAddr: 0x100050CC4, symSize: 0x4C }
  - { offset: 0x159A76, size: 0x8, addend: 0x0, symName: __ZNK5Eigen7MapBaseINS_5BlockIKNS1_IKNS_3MapIKNS_6MatrixIdLin1ELin1ELi0ELin1ELin1EEELi0ENS_11OuterStrideILin1EEEEELin1ELi1ELb1EEELin1ELi1ELb0EEELi0EE11checkSanityISC_EEvNS_8internal9enable_ifIXeqsrNSF_6traitsIT_EE9AlignmentLi0EEPvE4typeE, symObjAddr: 0x5051C, symBinAddr: 0x100050CAC, symSize: 0x18 }
  - { offset: 0x159ACC, size: 0x8, addend: 0x0, symName: __ZN5Eigen9DenseBaseINS_5BlockIKNS1_IKNS_3MapIKNS_6MatrixIdLin1ELin1ELi0ELin1ELin1EEELi0ENS_11OuterStrideILin1EEEEELin1ELi1ELb1EEELin1ELi1ELb0EEEEC2Ev, symObjAddr: 0x50508, symBinAddr: 0x100050C98, symSize: 0x14 }
  - { offset: 0x159AEE, size: 0x8, addend: 0x0, symName: __ZN5Eigen8internal31unaligned_dense_assignment_loopILb0EE3runINS0_31generic_dense_assignment_kernelINS0_9evaluatorINS_3MapINS_6MatrixIdLin1ELi1ELi0ELin1ELi1EEELi16ENS_6StrideILi0ELi0EEEEEEENS5_INS_5BlockIS8_Lin1ELi1ELb0EEEEENS0_9assign_opIddEELi0EEEEEvRT_ll, symObjAddr: 0x504B0, symBinAddr: 0x100050C40, symSize: 0x58 }
  - { offset: 0x159B6B, size: 0x8, addend: 0x0, symName: __ZN5Eigen8internal31generic_dense_assignment_kernelINS0_9evaluatorINS_3MapINS_6MatrixIdLin1ELi1ELi0ELin1ELi1EEELi16ENS_6StrideILi0ELi0EEEEEEENS2_INS_5BlockIS5_Lin1ELi1ELb0EEEEENS0_9assign_opIddEELi0EE12assignPacketILi16ELi0E13__Float64x2_tEEvl, symObjAddr: 0x50444, symBinAddr: 0x100050BD4, symSize: 0x6C }
  - { offset: 0x159BBF, size: 0x8, addend: 0x0, symName: __ZN5Eigen8internal31unaligned_dense_assignment_loopILb1EE3runINS0_31generic_dense_assignment_kernelINS0_9evaluatorINS_3MapINS_6MatrixIdLin1ELi1ELi0ELin1ELi1EEELi16ENS_6StrideILi0ELi0EEEEEEENS5_INS_5BlockIS8_Lin1ELi1ELb0EEEEENS0_9assign_opIddEELi0EEEEEvRT_ll, symObjAddr: 0x50428, symBinAddr: 0x100050BB8, symSize: 0x1C }
  - { offset: 0x159C00, size: 0x8, addend: 0x0, symName: __ZN5Eigen9DenseBaseINS_3MapINS_6MatrixIdLin1ELi1ELi0ELin1ELi1EEELi16ENS_6StrideILi0ELi0EEEEEE6resizeEll, symObjAddr: 0x50368, symBinAddr: 0x100050AF8, symSize: 0xC0 }
  - { offset: 0x159C52, size: 0x8, addend: 0x0, symName: __ZN5Eigen8internal21dense_assignment_loopINS0_31generic_dense_assignment_kernelINS0_9evaluatorINS_5BlockINS_6MatrixIdLin1ELi1ELi0ELin1ELi1EEELin1ELi1ELb0EEEEES8_NS0_9assign_opIddEELi0EEELi3ELi0EE3runERSB_, symObjAddr: 0x502B4, symBinAddr: 0x100050A44, symSize: 0xB4 }
  - { offset: 0x159D00, size: 0x8, addend: 0x0, symName: __ZNK5Eigen8internal31generic_dense_assignment_kernelINS0_9evaluatorINS_5BlockINS_6MatrixIdLin1ELi1ELi0ELin1ELi1EEELin1ELi1ELb0EEEEES7_NS0_9assign_opIddEELi0EE4sizeEv, symObjAddr: 0x50294, symBinAddr: 0x100050A24, symSize: 0x20 }
  - { offset: 0x159D7C, size: 0x8, addend: 0x0, symName: __ZN5Eigen8internal31generic_dense_assignment_kernelINS0_9evaluatorINS_5BlockINS_6MatrixIdLin1ELi1ELi0ELin1ELi1EEELin1ELi1ELb0EEEEES7_NS0_9assign_opIddEELi0EEC1ERS7_RKS7_RKS9_RS6_, symObjAddr: 0x50240, symBinAddr: 0x1000509D0, symSize: 0x54 }
  - { offset: 0x159DC2, size: 0x8, addend: 0x0, symName: __ZN5Eigen8internal17resize_if_allowedINS_5BlockINS_6MatrixIdLin1ELi1ELi0ELin1ELi1EEELin1ELi1ELb0EEES5_ddEEvRT_RKT0_RKNS0_9assign_opIT1_T2_EE, symObjAddr: 0x50128, symBinAddr: 0x1000508B8, symSize: 0x118 }
  - { offset: 0x159E56, size: 0x8, addend: 0x0, symName: __ZN5Eigen8internal21dense_assignment_loopINS0_31generic_dense_assignment_kernelINS0_9evaluatorINS_3MapINS_6MatrixIdLin1ELi1ELi0ELin1ELi1EEELi0ENS_6StrideILi0ELi0EEEEEEENS3_INS4_IS6_Li16ES8_EEEENS0_9assign_opIddEELi0EEELi3ELi0EE3runERSF_, symObjAddr: 0x50074, symBinAddr: 0x100050804, symSize: 0xB4 }
  - { offset: 0x159F04, size: 0x8, addend: 0x0, symName: __ZNK5Eigen8internal31generic_dense_assignment_kernelINS0_9evaluatorINS_3MapINS_6MatrixIdLin1ELi1ELi0ELin1ELi1EEELi0ENS_6StrideILi0ELi0EEEEEEENS2_INS3_IS5_Li16ES7_EEEENS0_9assign_opIddEELi0EE4sizeEv, symObjAddr: 0x50054, symBinAddr: 0x1000507E4, symSize: 0x20 }
  - { offset: 0x159F80, size: 0x8, addend: 0x0, symName: __ZN5Eigen8internal31generic_dense_assignment_kernelINS0_9evaluatorINS_3MapINS_6MatrixIdLin1ELi1ELi0ELin1ELi1EEELi0ENS_6StrideILi0ELi0EEEEEEENS2_INS3_IS5_Li16ES7_EEEENS0_9assign_opIddEELi0EEC1ERS9_RKSB_RKSD_RS8_, symObjAddr: 0x50000, symBinAddr: 0x100050790, symSize: 0x54 }
  - { offset: 0x159FC6, size: 0x8, addend: 0x0, symName: __ZN5Eigen8internal17resize_if_allowedINS_3MapINS_6MatrixIdLin1ELi1ELi0ELin1ELi1EEELi0ENS_6StrideILi0ELi0EEEEENS2_IS4_Li16ES6_EEddEEvRT_RKT0_RKNS0_9assign_opIT1_T2_EE, symObjAddr: 0x4FEE8, symBinAddr: 0x100050678, symSize: 0x118 }
  - { offset: 0x15A05A, size: 0x8, addend: 0x0, symName: __ZN5Eigen8internal21dense_assignment_loopINS0_31generic_dense_assignment_kernelINS0_9evaluatorINS_3MapINS_6MatrixIdLin1ELi1ELi0ELin1ELi1EEELi16ENS_6StrideILi0ELi0EEEEEEENS3_INS4_IS6_Li0ES8_EEEENS0_9assign_opIddEELi0EEELi3ELi0EE3runERSF_, symObjAddr: 0x4FE58, symBinAddr: 0x1000505E8, symSize: 0x90 }
  - { offset: 0x15A108, size: 0x8, addend: 0x0, symName: __ZNK5Eigen8internal31generic_dense_assignment_kernelINS0_9evaluatorINS_3MapINS_6MatrixIdLin1ELi1ELi0ELin1ELi1EEELi16ENS_6StrideILi0ELi0EEEEEEENS2_INS3_IS5_Li0ES7_EEEENS0_9assign_opIddEELi0EE4sizeEv, symObjAddr: 0x4FE38, symBinAddr: 0x1000505C8, symSize: 0x20 }
  - { offset: 0x15A184, size: 0x8, addend: 0x0, symName: __ZN5Eigen8internal31generic_dense_assignment_kernelINS0_9evaluatorINS_3MapINS_6MatrixIdLin1ELi1ELi0ELin1ELi1EEELi16ENS_6StrideILi0ELi0EEEEEEENS2_INS3_IS5_Li0ES7_EEEENS0_9assign_opIddEELi0EEC1ERS9_RKSB_RKSD_RS8_, symObjAddr: 0x4FDE4, symBinAddr: 0x100050574, symSize: 0x54 }
  - { offset: 0x15A1CA, size: 0x8, addend: 0x0, symName: __ZN5Eigen8internal17resize_if_allowedINS_3MapINS_6MatrixIdLin1ELi1ELi0ELin1ELi1EEELi16ENS_6StrideILi0ELi0EEEEENS2_IS4_Li0ES6_EEddEEvRT_RKT0_RKNS0_9assign_opIT1_T2_EE, symObjAddr: 0x4FCCC, symBinAddr: 0x10005045C, symSize: 0x118 }
  - { offset: 0x15A262, size: 0x8, addend: 0x0, symName: __ZN5Eigen8internal31generic_dense_assignment_kernelINS0_9evaluatorINS_3MapINS_6MatrixIdLin1ELi1ELi0ELin1ELi1EEELi0ENS_6StrideILi0ELi0EEEEEEES9_NS0_9assign_opIddEELi0EE12assignPacketILi16ELi0E13__Float64x2_tEEvl, symObjAddr: 0x4FC60, symBinAddr: 0x1000503F0, symSize: 0x6C }
  - { offset: 0x15A2B6, size: 0x8, addend: 0x0, symName: __ZN5Eigen8internal31unaligned_dense_assignment_loopILb0EE3runINS0_31generic_dense_assignment_kernelINS0_9evaluatorINS_3MapINS_6MatrixIdLin1ELi1ELi0ELin1ELi1EEELi0ENS_6StrideILi0ELi0EEEEEEESC_NS0_9assign_opIddEELi0EEEEEvRT_ll, symObjAddr: 0x4FC08, symBinAddr: 0x100050398, symSize: 0x58 }
  - { offset: 0x15A333, size: 0x8, addend: 0x0, symName: __ZNK5Eigen8internal31generic_dense_assignment_kernelINS0_9evaluatorINS_3MapINS_6MatrixIdLin1ELi1ELi0ELin1ELi1EEELi0ENS_6StrideILi0ELi0EEEEEEES9_NS0_9assign_opIddEELi0EE10dstDataPtrEv, symObjAddr: 0x4FBE8, symBinAddr: 0x100050378, symSize: 0x20 }
  - { offset: 0x15A385, size: 0x8, addend: 0x0, symName: __ZN5Eigen8internal17mapbase_evaluatorINS_3MapINS_6MatrixIdLin1ELi1ELi0ELin1ELi1EEELi0ENS_6StrideILi0ELi0EEEEES4_EC2ERKS7_, symObjAddr: 0x4FB5C, symBinAddr: 0x1000502EC, symSize: 0x8C }
  - { offset: 0x15A3B0, size: 0x8, addend: 0x0, symName: __ZN5Eigen8internal20redux_novec_unrollerINS0_13scalar_sum_opIddEENS0_15redux_evaluatorINS_13CwiseBinaryOpINS0_17scalar_product_opIddEEKNS_9TransposeIKNS_5BlockIKNS9_IKNS_3MapINS_6MatrixIdLi3ELi3ELi0ELi3ELi3EEELi0ENS_11OuterStrideILin1EEEEELi1ELi3ELb0EEELi1ELi2ELb0EEEEEKNS9_INSA_INSB_IdLi3ELi1ELi0ELi3ELi1EEELi0ENS_6StrideILi0ELi0EEEEELi2ELi1ELb0EEEEEEELi0ELi2EE3runERKSU_RKS3_, symObjAddr: 0x4FAFC, symBinAddr: 0x10005028C, symSize: 0x60 }
  - { offset: 0x15A415, size: 0x8, addend: 0x0, symName: __ZN5Eigen8internal9evaluatorINS_13CwiseBinaryOpINS0_17scalar_product_opIddEEKNS_9TransposeIKNS_5BlockIKNS6_IKNS_3MapINS_6MatrixIdLi3ELi3ELi0ELi3ELi3EEELi0ENS_11OuterStrideILin1EEEEELi1ELi3ELb0EEELi1ELi2ELb0EEEEEKNS6_INS7_INS8_IdLi3ELi1ELi0ELi3ELi1EEELi0ENS_6StrideILi0ELi0EEEEELi2ELi1ELb0EEEEEEC2ERKSQ_, symObjAddr: 0x4FAD4, symBinAddr: 0x100050264, symSize: 0x28 }
  - { offset: 0x15A444, size: 0x8, addend: 0x0, symName: __ZNK5Eigen13CwiseBinaryOpINS_8internal17scalar_product_opIddEEKNS_9TransposeIKNS_5BlockIKNS5_IKNS_3MapINS_6MatrixIdLi3ELi3ELi0ELi3ELi3EEELi0ENS_11OuterStrideILin1EEEEELi1ELi3ELb0EEELi1ELi2ELb0EEEEEKNS5_INS6_INS7_IdLi3ELi1ELi0ELi3ELi1EEELi0ENS_6StrideILi0ELi0EEEEELi2ELi1ELb0EEEE4colsEv, symObjAddr: 0x4FAB8, symBinAddr: 0x100050248, symSize: 0x1C }
  - { offset: 0x15A46E, size: 0x8, addend: 0x0, symName: __ZNK5Eigen13CwiseBinaryOpINS_8internal17scalar_product_opIddEEKNS_9TransposeIKNS_5BlockIKNS5_IKNS_3MapINS_6MatrixIdLi3ELi3ELi0ELi3ELi3EEELi0ENS_11OuterStrideILin1EEEEELi1ELi3ELb0EEELi1ELi2ELb0EEEEEKNS5_INS6_INS7_IdLi3ELi1ELi0ELi3ELi1EEELi0ENS_6StrideILi0ELi0EEEEELi2ELi1ELb0EEEE4rowsEv, symObjAddr: 0x4FA9C, symBinAddr: 0x10005022C, symSize: 0x1C }
  - { offset: 0x15A498, size: 0x8, addend: 0x0, symName: __ZNK5Eigen7MapBaseINS_5BlockIKNS1_IKNS_3MapINS_6MatrixIdLi3ELi3ELi0ELi3ELi3EEELi0ENS_11OuterStrideILin1EEEEELi1ELi3ELb0EEELi1ELi2ELb0EEELi0EE4rowsEv, symObjAddr: 0x4FA84, symBinAddr: 0x100050214, symSize: 0x18 }
  - { offset: 0x15A4C2, size: 0x8, addend: 0x0, symName: __ZNK5Eigen7MapBaseINS_5BlockIKNS1_IKNS_3MapINS_6MatrixIdLi3ELi3ELi0ELi3ELi3EEELi0ENS_11OuterStrideILin1EEEEELi1ELi3ELb0EEELi1ELi2ELb0EEELi0EE4colsEv, symObjAddr: 0x4FA6C, symBinAddr: 0x1000501FC, symSize: 0x18 }
  - { offset: 0x15A547, size: 0x8, addend: 0x0, symName: __ZN5Eigen9BlockImplINS_3MapINS_6MatrixIdLi3ELi1ELi0ELi3ELi1EEELi0ENS_6StrideILi0ELi0EEEEELi2ELi1ELb0ENS_5DenseEEC2ERS6_llll, symObjAddr: 0x4FA24, symBinAddr: 0x1000501B4, symSize: 0x48 }
  - { offset: 0x15A5F5, size: 0x8, addend: 0x0, symName: __ZN5Eigen9BlockImplIKNS_5BlockIKNS_3MapINS_6MatrixIdLi3ELi3ELi0ELi3ELi3EEELi0ENS_11OuterStrideILin1EEEEELi1ELi3ELb0EEELi1ELi2ELb0ENS_5DenseEEC2ERSA_llll, symObjAddr: 0x4F9DC, symBinAddr: 0x10005016C, symSize: 0x48 }
  - { offset: 0x15A648, size: 0x8, addend: 0x0, symName: __ZNK5Eigen8internal15redux_evaluatorINS_13CwiseBinaryOpINS0_17scalar_product_opIddEEKNS_9TransposeIKNS_5BlockIKNS6_IKNS_3MapINS_6MatrixIdLi3ELi3ELi0ELi3ELi3EEELi0ENS_11OuterStrideILin1EEEEELi1ELi3ELb0EEELi1ELi1ELb0EEEEEKNS6_INS7_INS8_IdLi3ELi1ELi0ELi3ELi1EEELi0ENS_6StrideILi0ELi0EEEEELi1ELi1ELb0EEEEEE17coeffByOuterInnerEll, symObjAddr: 0x4F9A8, symBinAddr: 0x100050138, symSize: 0x34 }
  - { offset: 0x15A6BC, size: 0x8, addend: 0x0, symName: __ZN5Eigen8internal16binary_evaluatorINS_13CwiseBinaryOpINS0_17scalar_product_opIddEEKNS_9TransposeIKNS_5BlockIKNS6_IKNS_3MapINS_6MatrixIdLi3ELi3ELi0ELi3ELi3EEELi0ENS_11OuterStrideILin1EEEEELi1ELi3ELb0EEELi1ELi1ELb0EEEEEKNS6_INS7_INS8_IdLi3ELi1ELi0ELi3ELi1EEELi0ENS_6StrideILi0ELi0EEEEELi1ELi1ELb0EEEEENS0_10IndexBasedESR_ddEC2ERKSQ_, symObjAddr: 0x4F95C, symBinAddr: 0x1000500EC, symSize: 0x4C }
  - { offset: 0x15A74B, size: 0x8, addend: 0x0, symName: __ZN5Eigen8internal15BlockImpl_denseINS_3MapINS_6MatrixIdLi3ELi1ELi0ELi3ELi1EEELi0ENS_6StrideILi0ELi0EEEEELi1ELi1ELb0ELb1EEC2ERS7_llll, symObjAddr: 0x4F88C, symBinAddr: 0x10005001C, symSize: 0xD0 }
  - { offset: 0x15A7FE, size: 0x8, addend: 0x0, symName: __ZN5Eigen8internal15BlockImpl_denseIKNS_5BlockIKNS_3MapINS_6MatrixIdLi3ELi3ELi0ELi3ELi3EEELi0ENS_11OuterStrideILin1EEEEELi1ELi3ELb0EEELi1ELi1ELb0ELb1EEC2ERSB_llll, symObjAddr: 0x4F7BC, symBinAddr: 0x10004FF4C, symSize: 0xD0 }
  - { offset: 0x15A851, size: 0x8, addend: 0x0, symName: __ZNK5Eigen8internal15BlockImpl_denseIKNS_3MapINS_6MatrixIdLi3ELi3ELi0ELi3ELi3EEELi0ENS_11OuterStrideILin1EEEEELi1ELi3ELb0ELb1EE11outerStrideEv, symObjAddr: 0x4F79C, symBinAddr: 0x10004FF2C, symSize: 0x20 }
  - { offset: 0x15A87B, size: 0x8, addend: 0x0, symName: __ZNK5Eigen8internal15BlockImpl_denseIKNS_3MapINS_6MatrixIdLi3ELi3ELi0ELi3ELi3EEELi0ENS_11OuterStrideILin1EEEEELi1ELi3ELb0ELb1EE11innerStrideEv, symObjAddr: 0x4F77C, symBinAddr: 0x10004FF0C, symSize: 0x20 }
  - { offset: 0x15A8A5, size: 0x8, addend: 0x0, symName: __ZNK5Eigen7MapBaseINS_5BlockIKNS_3MapINS_6MatrixIdLi3ELi3ELi0ELi3ELi3EEELi0ENS_11OuterStrideILin1EEEEELi1ELi3ELb0EEELi0EE4dataEv, symObjAddr: 0x4F764, symBinAddr: 0x10004FEF4, symSize: 0x18 }
  - { offset: 0x15A8CF, size: 0x8, addend: 0x0, symName: __ZNK5Eigen7MapBaseINS_5BlockIKNS_3MapINS_6MatrixIdLi3ELi3ELi0ELi3ELi3EEELi0ENS_11OuterStrideILin1EEEEELi1ELi3ELb0EEELi0EE11checkSanityIS9_EEvNS_8internal9enable_ifIXeqsrNSC_6traitsIT_EE9AlignmentLi0EEPvE4typeE, symObjAddr: 0x4F74C, symBinAddr: 0x10004FEDC, symSize: 0x18 }
  - { offset: 0x15A925, size: 0x8, addend: 0x0, symName: __ZN5Eigen9DenseBaseINS_5BlockIKNS_3MapINS_6MatrixIdLi3ELi3ELi0ELi3ELi3EEELi0ENS_11OuterStrideILin1EEEEELi1ELi3ELb0EEEEC2Ev, symObjAddr: 0x4F738, symBinAddr: 0x10004FEC8, symSize: 0x14 }
  - { offset: 0x15A947, size: 0x8, addend: 0x0, symName: __ZN5Eigen8internal55copy_using_evaluator_DefaultTraversal_CompleteUnrollingINS0_31generic_dense_assignment_kernelINS0_9evaluatorINS_3MapINS_6MatrixIdLi3ELi1ELi0ELi3ELi1EEELi0ENS_6StrideILi0ELi0EEEEEEESA_NS0_9assign_opIddEELi0EEELi2ELi3EE3runERSD_, symObjAddr: 0x4F708, symBinAddr: 0x10004FE98, symSize: 0x30 }
  - { offset: 0x15A970, size: 0x8, addend: 0x0, symName: __ZN5Eigen8internal47copy_using_evaluator_innervec_CompleteUnrollingINS0_31generic_dense_assignment_kernelINS0_9evaluatorINS_3MapINS_6MatrixIdLi3ELi1ELi0ELi3ELi1EEELi0ENS_6StrideILi0ELi0EEEEEEESA_NS0_9assign_opIddEELi0EEELi0ELi2EE3runERSD_, symObjAddr: 0x4F6D8, symBinAddr: 0x10004FE68, symSize: 0x30 }
  - { offset: 0x15A9D7, size: 0x8, addend: 0x0, symName: __ZN5Eigen8internal17mapbase_evaluatorINS_3MapINS_6MatrixIdLi3ELi1ELi0ELi3ELi1EEELi0ENS_6StrideILi0ELi0EEEEES4_EC2ERKS7_, symObjAddr: 0x4F64C, symBinAddr: 0x10004FDDC, symSize: 0x8C }
  - { offset: 0x15AA06, size: 0x8, addend: 0x0, symName: __ZNK5Eigen8internal15redux_evaluatorINS_13CwiseBinaryOpINS0_17scalar_product_opIddEEKNS_9TransposeIKNS_5BlockIKNS6_IKNS_3MapINS_6MatrixIdLi2ELi2ELi0ELi2ELi2EEELi0ENS_11OuterStrideILin1EEEEELi1ELi2ELb0EEELi1ELi1ELb0EEEEEKNS6_INS7_INS8_IdLi2ELi1ELi0ELi2ELi1EEELi0ENS_6StrideILi0ELi0EEEEELi1ELi1ELb0EEEEEE17coeffByOuterInnerEll, symObjAddr: 0x4F618, symBinAddr: 0x10004FDA8, symSize: 0x34 }
  - { offset: 0x15AA7A, size: 0x8, addend: 0x0, symName: __ZN5Eigen8internal16binary_evaluatorINS_13CwiseBinaryOpINS0_17scalar_product_opIddEEKNS_9TransposeIKNS_5BlockIKNS6_IKNS_3MapINS_6MatrixIdLi2ELi2ELi0ELi2ELi2EEELi0ENS_11OuterStrideILin1EEEEELi1ELi2ELb0EEELi1ELi1ELb0EEEEEKNS6_INS7_INS8_IdLi2ELi1ELi0ELi2ELi1EEELi0ENS_6StrideILi0ELi0EEEEELi1ELi1ELb0EEEEENS0_10IndexBasedESR_ddEC2ERKSQ_, symObjAddr: 0x4F5CC, symBinAddr: 0x10004FD5C, symSize: 0x4C }
  - { offset: 0x15AB09, size: 0x8, addend: 0x0, symName: __ZN5Eigen8internal15BlockImpl_denseINS_3MapINS_6MatrixIdLi2ELi1ELi0ELi2ELi1EEELi0ENS_6StrideILi0ELi0EEEEELi1ELi1ELb0ELb1EEC2ERS7_llll, symObjAddr: 0x4F4FC, symBinAddr: 0x10004FC8C, symSize: 0xD0 }
  - { offset: 0x15ABBC, size: 0x8, addend: 0x0, symName: __ZN5Eigen8internal15BlockImpl_denseIKNS_5BlockIKNS_3MapINS_6MatrixIdLi2ELi2ELi0ELi2ELi2EEELi0ENS_11OuterStrideILin1EEEEELi1ELi2ELb0EEELi1ELi1ELb0ELb1EEC2ERSB_llll, symObjAddr: 0x4F42C, symBinAddr: 0x10004FBBC, symSize: 0xD0 }
  - { offset: 0x15AC0F, size: 0x8, addend: 0x0, symName: __ZNK5Eigen8internal15BlockImpl_denseIKNS_3MapINS_6MatrixIdLi2ELi2ELi0ELi2ELi2EEELi0ENS_11OuterStrideILin1EEEEELi1ELi2ELb0ELb1EE11outerStrideEv, symObjAddr: 0x4F40C, symBinAddr: 0x10004FB9C, symSize: 0x20 }
  - { offset: 0x15AC39, size: 0x8, addend: 0x0, symName: __ZNK5Eigen8internal15BlockImpl_denseIKNS_3MapINS_6MatrixIdLi2ELi2ELi0ELi2ELi2EEELi0ENS_11OuterStrideILin1EEEEELi1ELi2ELb0ELb1EE11innerStrideEv, symObjAddr: 0x4F3EC, symBinAddr: 0x10004FB7C, symSize: 0x20 }
  - { offset: 0x15AC63, size: 0x8, addend: 0x0, symName: __ZNK5Eigen7MapBaseINS_5BlockIKNS_3MapINS_6MatrixIdLi2ELi2ELi0ELi2ELi2EEELi0ENS_11OuterStrideILin1EEEEELi1ELi2ELb0EEELi0EE4dataEv, symObjAddr: 0x4F3D4, symBinAddr: 0x10004FB64, symSize: 0x18 }
  - { offset: 0x15AC8D, size: 0x8, addend: 0x0, symName: __ZNK5Eigen7MapBaseINS_5BlockIKNS_3MapINS_6MatrixIdLi2ELi2ELi0ELi2ELi2EEELi0ENS_11OuterStrideILin1EEEEELi1ELi2ELb0EEELi0EE11checkSanityIS9_EEvNS_8internal9enable_ifIXeqsrNSC_6traitsIT_EE9AlignmentLi0EEPvE4typeE, symObjAddr: 0x4F3BC, symBinAddr: 0x10004FB4C, symSize: 0x18 }
  - { offset: 0x15ACE3, size: 0x8, addend: 0x0, symName: __ZN5Eigen9DenseBaseINS_5BlockIKNS_3MapINS_6MatrixIdLi2ELi2ELi0ELi2ELi2EEELi0ENS_11OuterStrideILin1EEEEELi1ELi2ELb0EEEEC2Ev, symObjAddr: 0x4F3A8, symBinAddr: 0x10004FB38, symSize: 0x14 }
  - { offset: 0x15AD05, size: 0x8, addend: 0x0, symName: __ZN5Eigen8internal47copy_using_evaluator_innervec_CompleteUnrollingINS0_31generic_dense_assignment_kernelINS0_9evaluatorINS_3MapINS_6MatrixIdLi2ELi1ELi0ELi2ELi1EEELi0ENS_6StrideILi0ELi0EEEEEEESA_NS0_9assign_opIddEELi0EEELi0ELi2EE3runERSD_, symObjAddr: 0x4F378, symBinAddr: 0x10004FB08, symSize: 0x30 }
  - { offset: 0x15AD6C, size: 0x8, addend: 0x0, symName: __ZN5Eigen8internal17mapbase_evaluatorINS_3MapINS_6MatrixIdLi2ELi1ELi0ELi2ELi1EEELi0ENS_6StrideILi0ELi0EEEEES4_EC2ERKS7_, symObjAddr: 0x4F2EC, symBinAddr: 0x10004FA7C, symSize: 0x8C }
  - { offset: 0x15AD9B, size: 0x8, addend: 0x0, symName: __ZN5Eigen8internal31generic_dense_assignment_kernelINS0_9evaluatorINS_3MapINS_6MatrixIdLin1ELin1ELi0ELin1ELin1EEELi16ENS_11OuterStrideILin1EEEEEEES9_NS0_9assign_opIddEELi0EE12assignPacketILi16ELi0E13__Float64x2_tEEvll, symObjAddr: 0x4F274, symBinAddr: 0x10004FA04, symSize: 0x78 }
  - { offset: 0x15AE04, size: 0x8, addend: 0x0, symName: __ZN5Eigen8internal31generic_dense_assignment_kernelINS0_9evaluatorINS_3MapINS_6MatrixIdLin1ELin1ELi0ELin1ELin1EEELi16ENS_11OuterStrideILin1EEEEEEES9_NS0_9assign_opIddEELi0EE11assignCoeffEll, symObjAddr: 0x4F208, symBinAddr: 0x10004F998, symSize: 0x6C }
  - { offset: 0x15AE4C, size: 0x8, addend: 0x0, symName: __ZN5Eigen8internal31generic_dense_assignment_kernelINS0_9evaluatorINS_3MapINS_6MatrixIdLin1ELin1ELi0ELin1ELin1EEELi16ENS_11OuterStrideILin1EEEEEEES9_NS0_9assign_opIddEELi0EE20colIndexByOuterInnerEll, symObjAddr: 0x4F1F0, symBinAddr: 0x10004F980, symSize: 0x18 }
  - { offset: 0x15AE87, size: 0x8, addend: 0x0, symName: __ZN5Eigen8internal31generic_dense_assignment_kernelINS0_9evaluatorINS_3MapINS_6MatrixIdLin1ELin1ELi0ELin1ELin1EEELi16ENS_11OuterStrideILin1EEEEEEES9_NS0_9assign_opIddEELi0EE20rowIndexByOuterInnerEll, symObjAddr: 0x4F1D8, symBinAddr: 0x10004F968, symSize: 0x18 }
  - { offset: 0x15AEEE, size: 0x8, addend: 0x0, symName: __ZN5Eigen8internal9evaluatorINS_13CwiseBinaryOpINS0_20scalar_difference_opIddEEKNS_12ArrayWrapperINS_6MatrixIdLin1ELi1ELi0ELin1ELi1EEEEEKNS_14CwiseNullaryOpINS0_18scalar_constant_opIdEEKNS_5ArrayIdLin1ELi1ELi0ELin1ELi1EEEEEEEEC2ERKSI_, symObjAddr: 0x4F1B0, symBinAddr: 0x10004F940, symSize: 0x28 }
  - { offset: 0x15AF44, size: 0x8, addend: 0x0, symName: __ZN5Eigen8internal9evaluatorINS_12CwiseUnaryOpINS0_18scalar_opposite_opIdEEKNS_13CwiseBinaryOpINS0_20scalar_difference_opIddEEKNS_12ArrayWrapperINS_6MatrixIdLin1ELi1ELi0ELin1ELi1EEEEEKNS_14CwiseNullaryOpINS0_18scalar_constant_opIdEEKNS_5ArrayIdLin1ELi1ELi0ELin1ELi1EEEEEEEEEEC2ERKSN_, symObjAddr: 0x4F188, symBinAddr: 0x10004F918, symSize: 0x28 }
  - { offset: 0x15AF6F, size: 0x8, addend: 0x0, symName: __ZN5Eigen8internal10AssignmentINS_5BlockINS2_INS_6MatrixIdLin1ELi1ELi0ELin1ELi1EEELin1ELi1ELb1EEELi1ELi1ELb0EEENS2_IKS5_Li1ELi1ELb0EEENS0_9assign_opIddEENS0_11Dense2DenseEvE3runERS6_RKS8_RKSA_, symObjAddr: 0x4F14C, symBinAddr: 0x10004F8DC, symSize: 0x3C }
  - { offset: 0x15AFBF, size: 0x8, addend: 0x0, symName: __ZNK5Eigen7MapBaseINS_5BlockIKNS1_INS_6MatrixIdLin1ELi1ELi0ELin1ELi1EEELin1ELi1ELb1EEELi1ELi1ELb0EEELi0EE11checkSanityIS6_EEvNS_8internal9enable_ifIXeqsrNS9_6traitsIT_EE9AlignmentLi0EEPvE4typeE, symObjAddr: 0x4F134, symBinAddr: 0x10004F8C4, symSize: 0x18 }
  - { offset: 0x15B015, size: 0x8, addend: 0x0, symName: __ZN5Eigen9DenseBaseINS_5BlockIKNS1_INS_6MatrixIdLin1ELi1ELi0ELin1ELi1EEELin1ELi1ELb1EEELi1ELi1ELb0EEEEC2Ev, symObjAddr: 0x4F120, symBinAddr: 0x10004F8B0, symSize: 0x14 }
  - { offset: 0x15B037, size: 0x8, addend: 0x0, symName: __ZN5Eigen8internal15call_assignmentINS_3MapINS_6MatrixIdLin1ELi1ELi0ELin1ELi1EEELi0ENS_11OuterStrideILin1EEEEENS2_IS4_Li16ENS_6StrideILi0ELi0EEEEEEEvRT_RKT0_, symObjAddr: 0x4F0E4, symBinAddr: 0x10004F874, symSize: 0x3C }
  - { offset: 0x15B084, size: 0x8, addend: 0x0, symName: __ZN5Eigen8internal15call_assignmentINS_3MapINS_6MatrixIdLin1ELi1ELi0ELin1ELi1EEELi16ENS_6StrideILi0ELi0EEEEENS2_IS4_Li0ENS_11OuterStrideILin1EEEEEEEvRT_RKT0_, symObjAddr: 0x4F0A8, symBinAddr: 0x10004F838, symSize: 0x3C }
  - { offset: 0x15B0D1, size: 0x8, addend: 0x0, symName: __ZN5Eigen8internal15call_assignmentINS_3MapINS_6MatrixIdLin1ELi1ELi0ELin1ELi1EEELi0ENS_11OuterStrideILin1EEEEES7_NS0_9assign_opIddEEEEvRT_RKT0_RKT1_NS0_9enable_ifIXntsrNS0_25evaluator_assume_aliasingISC_NS0_16evaluator_traitsISC_E5ShapeEEE5valueEPvE4typeE, symObjAddr: 0x4F074, symBinAddr: 0x10004F804, symSize: 0x34 }
  - { offset: 0x15B141, size: 0x8, addend: 0x0, symName: __ZN5Eigen8internal11blas_traitsINS_3MapINS_6MatrixIdLin1ELi1ELi0ELin1ELi1EEELi0ENS_11OuterStrideILin1EEEEEE19extractScalarFactorERKS7_, symObjAddr: 0x4F05C, symBinAddr: 0x10004F7EC, symSize: 0x18 }
  - { offset: 0x15B163, size: 0x8, addend: 0x0, symName: __ZN5Eigen8internal11blas_traitsINS_3MapIKNS_6MatrixIdLin1ELin1ELi0ELin1ELin1EEELi0ENS_11OuterStrideILin1EEEEEE19extractScalarFactorERKS8_, symObjAddr: 0x4F044, symBinAddr: 0x10004F7D4, symSize: 0x18 }
  - { offset: 0x15B189, size: 0x8, addend: 0x0, symName: __ZNK5Eigen9DenseBaseINS_13CwiseBinaryOpINS_8internal22scalar_conj_product_opIddEEKNS_9TransposeIKNS_5BlockIKNS_3MapIKNS_6MatrixIdLin1ELin1ELi0ELin1ELin1EEELi0ENS_11OuterStrideILin1EEEEELi1ELin1ELb0EEEEEKNS6_IKNS7_INS8_IdLin1ELi1ELi0ELin1ELi1EEELi0ESC_EELin1ELi1ELb1EEEEEE5reduxINS2_13scalar_sum_opIddEEEEdRKT_, symObjAddr: 0x4EF2C, symBinAddr: 0x10004F6BC, symSize: 0x118 }
  - { offset: 0x15B226, size: 0x8, addend: 0x0, symName: __ZN5Eigen8internal15redux_evaluatorINS_13CwiseBinaryOpINS0_22scalar_conj_product_opIddEEKNS_9TransposeIKNS_5BlockIKNS_3MapIKNS_6MatrixIdLin1ELin1ELi0ELin1ELin1EEELi0ENS_11OuterStrideILin1EEEEELi1ELin1ELb0EEEEEKNS6_IKNS7_INS8_IdLin1ELi1ELi0ELin1ELi1EEELi0ESC_EELin1ELi1ELb1EEEEEED1Ev, symObjAddr: 0x4EF0C, symBinAddr: 0x10004F69C, symSize: 0x20 }
  - { offset: 0x15B26A, size: 0x8, addend: 0x0, symName: __ZN5Eigen8internal9evaluatorINS_13CwiseBinaryOpINS0_22scalar_conj_product_opIddEEKNS_9TransposeIKNS_5BlockIKNS_3MapIKNS_6MatrixIdLin1ELin1ELi0ELin1ELin1EEELi0ENS_11OuterStrideILin1EEEEELi1ELin1ELb0EEEEEKNS6_IKNS7_INS8_IdLin1ELi1ELi0ELin1ELi1EEELi0ESC_EELin1ELi1ELb1EEEEEED2Ev, symObjAddr: 0x4EEEC, symBinAddr: 0x10004F67C, symSize: 0x20 }
  - { offset: 0x15B2AE, size: 0x8, addend: 0x0, symName: __ZN5Eigen8internal16binary_evaluatorINS_13CwiseBinaryOpINS0_22scalar_conj_product_opIddEEKNS_9TransposeIKNS_5BlockIKNS_3MapIKNS_6MatrixIdLin1ELin1ELi0ELin1ELin1EEELi0ENS_11OuterStrideILin1EEEEELi1ELin1ELb0EEEEEKNS6_IKNS7_INS8_IdLin1ELi1ELi0ELin1ELi1EEELi0ESC_EELin1ELi1ELb1EEEEENS0_10IndexBasedESP_ddED2Ev, symObjAddr: 0x4EEC4, symBinAddr: 0x10004F654, symSize: 0x28 }
  - { offset: 0x15B2F2, size: 0x8, addend: 0x0, symName: __ZN5Eigen8internal16binary_evaluatorINS_13CwiseBinaryOpINS0_22scalar_conj_product_opIddEEKNS_9TransposeIKNS_5BlockIKNS_3MapIKNS_6MatrixIdLin1ELin1ELi0ELin1ELin1EEELi0ENS_11OuterStrideILin1EEEEELi1ELin1ELb0EEEEEKNS6_IKNS7_INS8_IdLin1ELi1ELi0ELin1ELi1EEELi0ESC_EELin1ELi1ELb1EEEEENS0_10IndexBasedESP_ddE4DataD1Ev, symObjAddr: 0x4EE94, symBinAddr: 0x10004F624, symSize: 0x30 }
  - { offset: 0x15B335, size: 0x8, addend: 0x0, symName: __ZN5Eigen8internal9evaluatorIKNS_5BlockIKNS_3MapINS_6MatrixIdLin1ELi1ELi0ELin1ELi1EEELi0ENS_11OuterStrideILin1EEEEELin1ELi1ELb1EEEED1Ev, symObjAddr: 0x4EE74, symBinAddr: 0x10004F604, symSize: 0x20 }
  - { offset: 0x15B379, size: 0x8, addend: 0x0, symName: __ZN5Eigen8internal9evaluatorINS_5BlockIKNS_3MapINS_6MatrixIdLin1ELi1ELi0ELin1ELi1EEELi0ENS_11OuterStrideILin1EEEEELin1ELi1ELb1EEEED2Ev, symObjAddr: 0x4EE54, symBinAddr: 0x10004F5E4, symSize: 0x20 }
  - { offset: 0x15B3BD, size: 0x8, addend: 0x0, symName: __ZN5Eigen8internal15block_evaluatorIKNS_3MapINS_6MatrixIdLin1ELi1ELi0ELin1ELi1EEELi0ENS_11OuterStrideILin1EEEEELin1ELi1ELb1ELb1EED2Ev, symObjAddr: 0x4EE34, symBinAddr: 0x10004F5C4, symSize: 0x20 }
  - { offset: 0x15B401, size: 0x8, addend: 0x0, symName: __ZN5Eigen8internal17mapbase_evaluatorINS_5BlockIKNS_3MapINS_6MatrixIdLin1ELi1ELi0ELin1ELi1EEELi0ENS_11OuterStrideILin1EEEEELin1ELi1ELb1EEES5_ED2Ev, symObjAddr: 0x4EE14, symBinAddr: 0x10004F5A4, symSize: 0x20 }
  - { offset: 0x15B444, size: 0x8, addend: 0x0, symName: __ZN5Eigen8internal9evaluatorIKNS_9TransposeIKNS_5BlockIKNS_3MapIKNS_6MatrixIdLin1ELin1ELi0ELin1ELin1EEELi0ENS_11OuterStrideILin1EEEEELi1ELin1ELb0EEEEEED1Ev, symObjAddr: 0x4EDF4, symBinAddr: 0x10004F584, symSize: 0x20 }
  - { offset: 0x15B487, size: 0x8, addend: 0x0, symName: __ZN5Eigen8internal9evaluatorINS_9TransposeIKNS_5BlockIKNS_3MapIKNS_6MatrixIdLin1ELin1ELi0ELin1ELin1EEELi0ENS_11OuterStrideILin1EEEEELi1ELin1ELb0EEEEEED2Ev, symObjAddr: 0x4EDD4, symBinAddr: 0x10004F564, symSize: 0x20 }
  - { offset: 0x15B4CB, size: 0x8, addend: 0x0, symName: __ZN5Eigen8internal15unary_evaluatorINS_9TransposeIKNS_5BlockIKNS_3MapIKNS_6MatrixIdLin1ELin1ELi0ELin1ELin1EEELi0ENS_11OuterStrideILin1EEEEELi1ELin1ELb0EEEEENS0_10IndexBasedEdED2Ev, symObjAddr: 0x4EDAC, symBinAddr: 0x10004F53C, symSize: 0x28 }
  - { offset: 0x15B50E, size: 0x8, addend: 0x0, symName: __ZN5Eigen8internal9evaluatorIKNS_5BlockIKNS_3MapIKNS_6MatrixIdLin1ELin1ELi0ELin1ELin1EEELi0ENS_11OuterStrideILin1EEEEELi1ELin1ELb0EEEED1Ev, symObjAddr: 0x4ED8C, symBinAddr: 0x10004F51C, symSize: 0x20 }
  - { offset: 0x15B552, size: 0x8, addend: 0x0, symName: __ZN5Eigen8internal9evaluatorINS_5BlockIKNS_3MapIKNS_6MatrixIdLin1ELin1ELi0ELin1ELin1EEELi0ENS_11OuterStrideILin1EEEEELi1ELin1ELb0EEEED2Ev, symObjAddr: 0x4ED6C, symBinAddr: 0x10004F4FC, symSize: 0x20 }
  - { offset: 0x15B596, size: 0x8, addend: 0x0, symName: __ZN5Eigen8internal15block_evaluatorIKNS_3MapIKNS_6MatrixIdLin1ELin1ELi0ELin1ELin1EEELi0ENS_11OuterStrideILin1EEEEELi1ELin1ELb0ELb1EED2Ev, symObjAddr: 0x4ED4C, symBinAddr: 0x10004F4DC, symSize: 0x20 }
  - { offset: 0x15B5DA, size: 0x8, addend: 0x0, symName: __ZN5Eigen8internal17mapbase_evaluatorINS_5BlockIKNS_3MapIKNS_6MatrixIdLin1ELin1ELi0ELin1ELin1EEELi0ENS_11OuterStrideILin1EEEEELi1ELin1ELb0EEENS4_IdLi1ELin1ELi1ELi1ELin1EEEED2Ev, symObjAddr: 0x4ED2C, symBinAddr: 0x10004F4BC, symSize: 0x20 }
  - { offset: 0x15B600, size: 0x8, addend: 0x0, symName: __ZNK5Eigen9EigenBaseINS_13CwiseBinaryOpINS_8internal22scalar_conj_product_opIddEEKNS_9TransposeIKNS_5BlockIKNS_3MapIKNS_6MatrixIdLin1ELin1ELi0ELin1ELin1EEELi0ENS_11OuterStrideILin1EEEEELi1ELin1ELb0EEEEEKNS6_IKNS7_INS8_IdLin1ELi1ELi0ELin1ELi1EEELi0ESC_EELin1ELi1ELb1EEEEEE7derivedEv, symObjAddr: 0x4ED18, symBinAddr: 0x10004F4A8, symSize: 0x14 }
  - { offset: 0x15B62A, size: 0x8, addend: 0x0, symName: __ZNK5Eigen9EigenBaseINS_13CwiseBinaryOpINS_8internal22scalar_conj_product_opIddEEKNS_9TransposeIKNS_5BlockIKNS_3MapIKNS_6MatrixIdLin1ELin1ELi0ELin1ELin1EEELi0ENS_11OuterStrideILin1EEEEELi1ELin1ELb0EEEEEKNS6_IKNS7_INS8_IdLin1ELi1ELi0ELin1ELi1EEELi0ESC_EELin1ELi1ELb1EEEEEE4sizeEv, symObjAddr: 0x4ECE4, symBinAddr: 0x10004F474, symSize: 0x34 }
  - { offset: 0x15B6B0, size: 0x8, addend: 0x0, symName: __ZN5Eigen13CwiseBinaryOpINS_8internal22scalar_conj_product_opIddEEKNS_9TransposeIKNS_5BlockIKNS_3MapIKNS_6MatrixIdLin1ELin1ELi0ELin1ELin1EEELi0ENS_11OuterStrideILin1EEEEELi1ELin1ELb0EEEEEKNS5_IKNS6_INS7_IdLin1ELi1ELi0ELin1ELi1EEELi0ESB_EELin1ELi1ELb1EEEEC1ERSH_RSM_RKS3_, symObjAddr: 0x4EBF4, symBinAddr: 0x10004F384, symSize: 0xF0 }
  - { offset: 0x15B724, size: 0x8, addend: 0x0, symName: __ZN5Eigen5BlockIKNS_3MapINS_6MatrixIdLin1ELi1ELi0ELin1ELi1EEELi0ENS_11OuterStrideILin1EEEEELin1ELi1ELb1EEC1ERKS8_, symObjAddr: 0x4EBCC, symBinAddr: 0x10004F35C, symSize: 0x28 }
  - { offset: 0x15B772, size: 0x8, addend: 0x0, symName: __ZN5Eigen9BlockImplIKNS_3MapINS_6MatrixIdLin1ELi1ELi0ELin1ELi1EEELi0ENS_11OuterStrideILin1EEEEELin1ELi1ELb1ENS_5DenseEEC2ERKS9_, symObjAddr: 0x4EBA4, symBinAddr: 0x10004F334, symSize: 0x28 }
  - { offset: 0x15B7C0, size: 0x8, addend: 0x0, symName: __ZN5Eigen8internal15BlockImpl_denseIKNS_3MapINS_6MatrixIdLin1ELi1ELi0ELin1ELi1EEELi0ENS_11OuterStrideILin1EEEEELin1ELi1ELb1ELb1EEC2ERKS9_, symObjAddr: 0x4EB14, symBinAddr: 0x10004F2A4, symSize: 0x90 }
  - { offset: 0x15B80E, size: 0x8, addend: 0x0, symName: __ZN5Eigen9TransposeIKNS_5BlockIKNS_3MapIKNS_6MatrixIdLin1ELin1ELi0ELin1ELin1EEELi0ENS_11OuterStrideILin1EEEEELi1ELin1ELb0EEEEC1ERKSC_, symObjAddr: 0x4EAEC, symBinAddr: 0x10004F27C, symSize: 0x28 }
  - { offset: 0x15B865, size: 0x8, addend: 0x0, symName: __ZN5Eigen17CwiseBinaryOpImplINS_8internal22scalar_conj_product_opIddEEKNS_9TransposeIKNS_5BlockIKNS_3MapIKNS_6MatrixIdLin1ELin1ELi0ELin1ELin1EEELi0ENS_11OuterStrideILin1EEEEELi1ELin1ELb0EEEEEKNS5_IKNS6_INS7_IdLin1ELi1ELi0ELin1ELi1EEELi0ESB_EELin1ELi1ELb1EEENS_5DenseEEC2Ev, symObjAddr: 0x4EACC, symBinAddr: 0x10004F25C, symSize: 0x20 }
  - { offset: 0x15B8A5, size: 0x8, addend: 0x0, symName: __ZN5Eigen10MatrixBaseINS_13CwiseBinaryOpINS_8internal22scalar_conj_product_opIddEEKNS_9TransposeIKNS_5BlockIKNS_3MapIKNS_6MatrixIdLin1ELin1ELi0ELin1ELin1EEELi0ENS_11OuterStrideILin1EEEEELi1ELin1ELb0EEEEEKNS6_IKNS7_INS8_IdLin1ELi1ELi0ELin1ELi1EEELi0ESC_EELin1ELi1ELb1EEEEEEC2Ev, symObjAddr: 0x4EAAC, symBinAddr: 0x10004F23C, symSize: 0x20 }
  - { offset: 0x15B8CB, size: 0x8, addend: 0x0, symName: __ZNK5Eigen9EigenBaseINS_9TransposeIKNS_5BlockIKNS_3MapIKNS_6MatrixIdLin1ELin1ELi0ELin1ELin1EEELi0ENS_11OuterStrideILin1EEEEELi1ELin1ELb0EEEEEE7derivedEv, symObjAddr: 0x4EA98, symBinAddr: 0x10004F228, symSize: 0x14 }
  - { offset: 0x15B91C, size: 0x8, addend: 0x0, symName: __ZN5Eigen9TransposeIKNS_5BlockIKNS_3MapIKNS_6MatrixIdLin1ELin1ELi0ELin1ELin1EEELi0ENS_11OuterStrideILin1EEEEELi1ELin1ELb0EEEEC1ERSB_, symObjAddr: 0x4EA68, symBinAddr: 0x10004F1F8, symSize: 0x30 }
  - { offset: 0x15B96A, size: 0x8, addend: 0x0, symName: __ZN5Eigen5BlockIKNS_3MapIKNS_6MatrixIdLin1ELin1ELi0ELin1ELin1EEELi0ENS_11OuterStrideILin1EEEEELi1ELin1ELb0EEC1ERKS9_, symObjAddr: 0x4EA40, symBinAddr: 0x10004F1D0, symSize: 0x28 }
  - { offset: 0x15B9B8, size: 0x8, addend: 0x0, symName: __ZN5Eigen9BlockImplIKNS_3MapIKNS_6MatrixIdLin1ELin1ELi0ELin1ELin1EEELi0ENS_11OuterStrideILin1EEEEELi1ELin1ELb0ENS_5DenseEEC2ERKSA_, symObjAddr: 0x4EA18, symBinAddr: 0x10004F1A8, symSize: 0x28 }
  - { offset: 0x15BA06, size: 0x8, addend: 0x0, symName: __ZN5Eigen8internal15BlockImpl_denseIKNS_3MapIKNS_6MatrixIdLin1ELin1ELi0ELin1ELin1EEELi0ENS_11OuterStrideILin1EEEEELi1ELin1ELb0ELb1EEC2ERKSA_, symObjAddr: 0x4E988, symBinAddr: 0x10004F118, symSize: 0x90 }
  - { offset: 0x15BA4F, size: 0x8, addend: 0x0, symName: __ZN5Eigen13TransposeImplIKNS_5BlockIKNS_3MapIKNS_6MatrixIdLin1ELin1ELi0ELin1ELin1EEELi0ENS_11OuterStrideILin1EEEEELi1ELin1ELb0EEENS_5DenseEEC2Ev, symObjAddr: 0x4E968, symBinAddr: 0x10004F0F8, symSize: 0x20 }
  - { offset: 0x15BA8F, size: 0x8, addend: 0x0, symName: __ZN5Eigen10MatrixBaseINS_9TransposeIKNS_5BlockIKNS_3MapIKNS_6MatrixIdLin1ELin1ELi0ELin1ELin1EEELi0ENS_11OuterStrideILin1EEEEELi1ELin1ELb0EEEEEEC2Ev, symObjAddr: 0x4E948, symBinAddr: 0x10004F0D8, symSize: 0x20 }
  - { offset: 0x15BAB5, size: 0x8, addend: 0x0, symName: __ZNK5Eigen7MapBaseINS_5BlockIKNS_3MapINS_6MatrixIdLin1ELi1ELi0ELin1ELi1EEELi0ENS_11OuterStrideILin1EEEEELin1ELi1ELb1EEELi0EE4colsEv, symObjAddr: 0x4E930, symBinAddr: 0x10004F0C0, symSize: 0x18 }
  - { offset: 0x15BADF, size: 0x8, addend: 0x0, symName: __ZNK5Eigen7MapBaseINS_5BlockIKNS_3MapINS_6MatrixIdLin1ELi1ELi0ELin1ELi1EEELi0ENS_11OuterStrideILin1EEEEELin1ELi1ELb1EEELi0EE4rowsEv, symObjAddr: 0x4E910, symBinAddr: 0x10004F0A0, symSize: 0x20 }
  - { offset: 0x15BB09, size: 0x8, addend: 0x0, symName: __ZNK5Eigen9EigenBaseINS_5BlockIKNS_3MapINS_6MatrixIdLin1ELi1ELi0ELin1ELi1EEELi0ENS_11OuterStrideILin1EEEEELin1ELi1ELb1EEEE7derivedEv, symObjAddr: 0x4E8FC, symBinAddr: 0x10004F08C, symSize: 0x14 }
  - { offset: 0x15BB33, size: 0x8, addend: 0x0, symName: __ZNK5Eigen7MapBaseINS_5BlockIKNS_3MapIKNS_6MatrixIdLin1ELin1ELi0ELin1ELin1EEELi0ENS_11OuterStrideILin1EEEEELi1ELin1ELb0EEELi0EE4colsEv, symObjAddr: 0x4E8DC, symBinAddr: 0x10004F06C, symSize: 0x20 }
  - { offset: 0x15BB5D, size: 0x8, addend: 0x0, symName: __ZNK5Eigen7MapBaseINS_5BlockIKNS_3MapIKNS_6MatrixIdLin1ELin1ELi0ELin1ELin1EEELi0ENS_11OuterStrideILin1EEEEELi1ELin1ELb0EEELi0EE4rowsEv, symObjAddr: 0x4E8C4, symBinAddr: 0x10004F054, symSize: 0x18 }
  - { offset: 0x15BBBD, size: 0x8, addend: 0x0, symName: __ZN5Eigen8internal15BlockImpl_denseIKNS_3MapINS_6MatrixIdLin1ELi1ELi0ELin1ELi1EEELi0ENS_11OuterStrideILin1EEEEELin1ELi1ELb1ELb1EEC2ERS8_l, symObjAddr: 0x4E81C, symBinAddr: 0x10004EFAC, symSize: 0xA8 }
  - { offset: 0x15BC2B, size: 0x8, addend: 0x0, symName: __ZN5Eigen8internal15BlockImpl_denseIKNS_3MapIKNS_6MatrixIdLin1ELin1ELi0ELin1ELin1EEELi0ENS_11OuterStrideILin1EEEEELi1ELin1ELb0ELb1EEC2ERS9_l, symObjAddr: 0x4E774, symBinAddr: 0x10004EF04, symSize: 0xA8 }
  - { offset: 0x15BC5F, size: 0x8, addend: 0x0, symName: __ZN5Eigen8internal10AssignmentINS_5BlockINS2_INS_6MatrixIdLin1ELi1ELi0ELin1ELi1EEELin1ELi1ELb1EEELi1ELi1ELb0EEENS2_IKNS2_INS_12CwiseUnaryOpINS0_18scalar_opposite_opIdEEKS4_EELin1ELi1ELb1EEELi1ELi1ELb0EEENS0_9assign_opIddEENS0_11Dense2DenseEvE3runERS6_RKSE_RKSG_, symObjAddr: 0x4E738, symBinAddr: 0x10004EEC8, symSize: 0x3C }
  - { offset: 0x15BCAB, size: 0x8, addend: 0x0, symName: __ZN5Eigen8internal26call_dense_assignment_loopINS_5BlockINS2_INS_6MatrixIdLin1ELi1ELi0ELin1ELi1EEELin1ELi1ELb1EEELi1ELi1ELb0EEES6_NS0_14swap_assign_opIdEEEEvRT_RKT0_RKT1_, symObjAddr: 0x4E688, symBinAddr: 0x10004EE18, symSize: 0xB0 }
  - { offset: 0x15BD92, size: 0x8, addend: 0x0, symName: __ZN5Eigen8internal9evaluatorINS_5BlockINS2_INS_6MatrixIdLin1ELi1ELi0ELin1ELi1EEELin1ELi1ELb1EEELi1ELi1ELb0EEEED1Ev, symObjAddr: 0x4E668, symBinAddr: 0x10004EDF8, symSize: 0x20 }
  - { offset: 0x15BDD6, size: 0x8, addend: 0x0, symName: __ZN5Eigen8internal15block_evaluatorINS_5BlockINS_6MatrixIdLin1ELi1ELi0ELin1ELi1EEELin1ELi1ELb1EEELi1ELi1ELb0ELb1EED2Ev, symObjAddr: 0x4E648, symBinAddr: 0x10004EDD8, symSize: 0x20 }
  - { offset: 0x15BE1A, size: 0x8, addend: 0x0, symName: __ZN5Eigen8internal17mapbase_evaluatorINS_5BlockINS2_INS_6MatrixIdLin1ELi1ELi0ELin1ELi1EEELin1ELi1ELb1EEELi1ELi1ELb0EEENS3_IdLi1ELi1ELi0ELi1ELi1EEEED2Ev, symObjAddr: 0x4E628, symBinAddr: 0x10004EDB8, symSize: 0x20 }
  - { offset: 0x15BE3C, size: 0x8, addend: 0x0, symName: __ZN5Eigen8internal18check_for_aliasingINS_5BlockINS2_INS_6MatrixIdLin1ELi1ELi0ELin1ELi1EEELin1ELi1ELb1EEELi1ELi1ELb0EEES6_EEvRKT_RKT0_, symObjAddr: 0x4E610, symBinAddr: 0x10004EDA0, symSize: 0x18 }
  - { offset: 0x15BED8, size: 0x8, addend: 0x0, symName: __ZN5Eigen7MapBaseINS_5BlockINS1_INS_6MatrixIdLin1ELi1ELi0ELin1ELi1EEELin1ELi1ELb1EEELi1ELi1ELb0EEELi0EEC2EPdll, symObjAddr: 0x4E4A8, symBinAddr: 0x10004EC38, symSize: 0x168 }
  - { offset: 0x15BF47, size: 0x8, addend: 0x0, symName: __ZN5Eigen10MatrixBaseINS_5BlockINS1_INS_6MatrixIdLin1ELi1ELi0ELin1ELi1EEELin1ELi1ELb1EEELi1ELi1ELb0EEEEC2Ev, symObjAddr: 0x4E488, symBinAddr: 0x10004EC18, symSize: 0x20 }
  - { offset: 0x15BF78, size: 0x8, addend: 0x0, symName: __ZNK5Eigen8internal9evaluatorINS_14CwiseNullaryOpINS0_18scalar_constant_opIdEEKNS_6MatrixIdLin1ELi1ELi0ELin1ELi1EEEEEE6packetILi0E13__Float64x2_tlEET0_T1_, symObjAddr: 0x4E450, symBinAddr: 0x10004EBE0, symSize: 0x38 }
  - { offset: 0x15BFCF, size: 0x8, addend: 0x0, symName: __ZNK5Eigen8internal17mapbase_evaluatorINS_5BlockIKNS_3MapINS_6MatrixIdLin1ELin1ELi0ELin1ELin1EEELi0ENS_11OuterStrideILin1EEEEELi1ELin1ELb0EEENS4_IdLi1ELin1ELi1ELi1ELin1EEEE9rowStrideEv, symObjAddr: 0x4E438, symBinAddr: 0x10004EBC8, symSize: 0x18 }
  - { offset: 0x15BFF9, size: 0x8, addend: 0x0, symName: __ZNK5Eigen8internal17mapbase_evaluatorINS_5BlockIKNS_3MapINS_6MatrixIdLin1ELin1ELi0ELin1ELin1EEELi0ENS_11OuterStrideILin1EEEEELi1ELin1ELb0EEENS4_IdLi1ELin1ELi1ELi1ELin1EEEE9colStrideEv, symObjAddr: 0x4E418, symBinAddr: 0x10004EBA8, symSize: 0x20 }
  - { offset: 0x15C04B, size: 0x8, addend: 0x0, symName: __ZN5Eigen8internal9evaluatorINS_5BlockIKNS2_INS_6MatrixIdLin1ELi1ELi0ELin1ELi1EEELin1ELi1ELb0EEELin1ELi1ELb1EEEEC2ERKS7_, symObjAddr: 0x4E3F0, symBinAddr: 0x10004EB80, symSize: 0x28 }
  - { offset: 0x15C0A1, size: 0x8, addend: 0x0, symName: __ZN5Eigen8internal9evaluatorINS_9TransposeIKNS_5BlockIKNS_3MapINS_6MatrixIdLin1ELin1ELi0ELin1ELin1EEELi0ENS_11OuterStrideILin1EEEEELi1ELin1ELb0EEEEEEC2ERKSD_, symObjAddr: 0x4E3C8, symBinAddr: 0x10004EB58, symSize: 0x28 }
  - { offset: 0x15C0CC, size: 0x8, addend: 0x0, symName: __ZN5Eigen8internal21dense_assignment_loopINS0_31generic_dense_assignment_kernelINS0_9evaluatorINS_5BlockINS_6MatrixIdLin1ELi1ELi0ELin1ELi1EEELin1ELi1ELb0EEEEENS3_INS_3MapIS6_Li16ENS_6StrideILi0ELi0EEEEEEENS0_9assign_opIddEELi0EEELi3ELi0EE3runERSG_, symObjAddr: 0x4E314, symBinAddr: 0x10004EAA4, symSize: 0xB4 }
  - { offset: 0x15C17A, size: 0x8, addend: 0x0, symName: __ZNK5Eigen8internal31generic_dense_assignment_kernelINS0_9evaluatorINS_5BlockINS_6MatrixIdLin1ELi1ELi0ELin1ELi1EEELin1ELi1ELb0EEEEENS2_INS_3MapIS5_Li16ENS_6StrideILi0ELi0EEEEEEENS0_9assign_opIddEELi0EE4sizeEv, symObjAddr: 0x4E2F4, symBinAddr: 0x10004EA84, symSize: 0x20 }
  - { offset: 0x15C1F6, size: 0x8, addend: 0x0, symName: __ZN5Eigen8internal31generic_dense_assignment_kernelINS0_9evaluatorINS_5BlockINS_6MatrixIdLin1ELi1ELi0ELin1ELi1EEELin1ELi1ELb0EEEEENS2_INS_3MapIS5_Li16ENS_6StrideILi0ELi0EEEEEEENS0_9assign_opIddEELi0EEC1ERS7_RKSC_RKSE_RS6_, symObjAddr: 0x4E2A0, symBinAddr: 0x10004EA30, symSize: 0x54 }
  - { offset: 0x15C23C, size: 0x8, addend: 0x0, symName: __ZN5Eigen8internal17resize_if_allowedINS_5BlockINS_6MatrixIdLin1ELi1ELi0ELin1ELi1EEELin1ELi1ELb0EEENS_3MapIS4_Li16ENS_6StrideILi0ELi0EEEEEddEEvRT_RKT0_RKNS0_9assign_opIT1_T2_EE, symObjAddr: 0x4E188, symBinAddr: 0x10004E918, symSize: 0x118 }
  - { offset: 0x15C2D0, size: 0x8, addend: 0x0, symName: __ZN5Eigen8internal21dense_assignment_loopINS0_31generic_dense_assignment_kernelINS0_9evaluatorINS_3MapINS_6MatrixIdLin1ELi1ELi0ELin1ELi1EEELi0ENS_6StrideILi0ELi0EEEEEEENS3_INS_13CwiseBinaryOpINS0_17scalar_product_opIddEEKNS_14CwiseNullaryOpINS0_18scalar_constant_opIdEEKS6_EEKNS_5BlockIKNSK_IKNS4_IKNS5_IdLin1ELin1ELi0ELin1ELin1EEELi0ENS_11OuterStrideILin1EEEEELin1ELi1ELb1EEELin1ELi1ELb0EEEEEEENS0_13sub_assign_opIddEELi0EEELi3ELi0EE3runERSZ_, symObjAddr: 0x4E0D4, symBinAddr: 0x10004E864, symSize: 0xB4 }
  - { offset: 0x15C37E, size: 0x8, addend: 0x0, symName: __ZNK5Eigen8internal31generic_dense_assignment_kernelINS0_9evaluatorINS_3MapINS_6MatrixIdLin1ELi1ELi0ELin1ELi1EEELi0ENS_6StrideILi0ELi0EEEEEEENS2_INS_13CwiseBinaryOpINS0_17scalar_product_opIddEEKNS_14CwiseNullaryOpINS0_18scalar_constant_opIdEEKS5_EEKNS_5BlockIKNSJ_IKNS3_IKNS4_IdLin1ELin1ELi0ELin1ELin1EEELi0ENS_11OuterStrideILin1EEEEELin1ELi1ELb1EEELin1ELi1ELb0EEEEEEENS0_13sub_assign_opIddEELi0EE4sizeEv, symObjAddr: 0x4E0B4, symBinAddr: 0x10004E844, symSize: 0x20 }
  - { offset: 0x15C3FA, size: 0x8, addend: 0x0, symName: __ZN5Eigen8internal31generic_dense_assignment_kernelINS0_9evaluatorINS_3MapINS_6MatrixIdLin1ELi1ELi0ELin1ELi1EEELi0ENS_6StrideILi0ELi0EEEEEEENS2_INS_13CwiseBinaryOpINS0_17scalar_product_opIddEEKNS_14CwiseNullaryOpINS0_18scalar_constant_opIdEEKS5_EEKNS_5BlockIKNSJ_IKNS3_IKNS4_IdLin1ELin1ELi0ELin1ELin1EEELi0ENS_11OuterStrideILin1EEEEELin1ELi1ELb1EEELin1ELi1ELb0EEEEEEENS0_13sub_assign_opIddEELi0EEC1ERS9_RKSV_RKSX_RS8_, symObjAddr: 0x4E060, symBinAddr: 0x10004E7F0, symSize: 0x54 }
  - { offset: 0x15C440, size: 0x8, addend: 0x0, symName: __ZN5Eigen8internal17resize_if_allowedINS_3MapINS_6MatrixIdLin1ELi1ELi0ELin1ELi1EEELi0ENS_6StrideILi0ELi0EEEEENS_13CwiseBinaryOpINS0_17scalar_product_opIddEEKNS_14CwiseNullaryOpINS0_18scalar_constant_opIdEEKS4_EEKNS_5BlockIKNSH_IKNS2_IKNS3_IdLin1ELin1ELi0ELin1ELin1EEELi0ENS_11OuterStrideILin1EEEEELin1ELi1ELb1EEELin1ELi1ELb0EEEEENS0_13sub_assign_opIddEEEEvRT_RKT0_RKT1_, symObjAddr: 0x4DFA8, symBinAddr: 0x10004E738, symSize: 0xB8 }
  - { offset: 0x15C4C7, size: 0x8, addend: 0x0, symName: __ZN5Eigen8internal14evaluator_baseINS_5BlockIKNS2_IKNS_3MapIKNS_6MatrixIdLin1ELin1ELi0ELin1ELin1EEELi0ENS_11OuterStrideILin1EEEEELin1ELi1ELb1EEELin1ELi1ELb0EEEED2Ev, symObjAddr: 0x4DF94, symBinAddr: 0x10004E724, symSize: 0x14 }
  - { offset: 0x15C507, size: 0x8, addend: 0x0, symName: __ZN5Eigen8internal14evaluator_baseINS_13CwiseBinaryOpINS0_17scalar_product_opIddEEKNS_14CwiseNullaryOpINS0_18scalar_constant_opIdEEKNS_6MatrixIdLin1ELi1ELi0ELin1ELi1EEEEEKNS_5BlockIKNSD_IKNS_3MapIKNS8_IdLin1ELin1ELi0ELin1ELin1EEELi0ENS_11OuterStrideILin1EEEEELin1ELi1ELb1EEELin1ELi1ELb0EEEEEED2Ev, symObjAddr: 0x4DF80, symBinAddr: 0x10004E710, symSize: 0x14 }
  - { offset: 0x15C555, size: 0x8, addend: 0x0, symName: __ZN5Eigen8internal9evaluatorINS_13CwiseBinaryOpINS0_17scalar_product_opIddEEKNS_14CwiseNullaryOpINS0_18scalar_constant_opIdEEKNS_6MatrixIdLin1ELi1ELi0ELin1ELi1EEEEEKNS_5BlockIKNSD_IKNS_3MapIKNS8_IdLin1ELin1ELi0ELin1ELin1EEELi0ENS_11OuterStrideILin1EEEEELin1ELi1ELb1EEELin1ELi1ELb0EEEEEEC1ERKSP_, symObjAddr: 0x4DF58, symBinAddr: 0x10004E6E8, symSize: 0x28 }
  - { offset: 0x15C584, size: 0x8, addend: 0x0, symName: __ZN5Eigen8internal15BlockImpl_denseIKNS_5BlockIKNS_3MapIKNS_6MatrixIdLin1ELin1ELi0ELin1ELin1EEELi0ENS_11OuterStrideILin1EEEEELin1ELi1ELb1EEELin1ELi1ELb0ELb1EE4initEv, symObjAddr: 0x4DF28, symBinAddr: 0x10004E6B8, symSize: 0x30 }
  - { offset: 0x15C5F9, size: 0x8, addend: 0x0, symName: __ZN5Eigen7MapBaseINS_5BlockIKNS1_IKNS_3MapIKNS_6MatrixIdLin1ELin1ELi0ELin1ELin1EEELi0ENS_11OuterStrideILin1EEEEELin1ELi1ELb1EEELin1ELi1ELb0EEELi0EEC2EPKdll, symObjAddr: 0x4DDF4, symBinAddr: 0x10004E584, symSize: 0x134 }
  - { offset: 0x15C668, size: 0x8, addend: 0x0, symName: __ZN5Eigen10MatrixBaseINS_5BlockIKNS1_IKNS_3MapIKNS_6MatrixIdLin1ELin1ELi0ELin1ELin1EEELi0ENS_11OuterStrideILin1EEEEELin1ELi1ELb1EEELin1ELi1ELb0EEEEC2Ev, symObjAddr: 0x4DDD4, symBinAddr: 0x10004E564, symSize: 0x20 }
  - { offset: 0x15C68E, size: 0x8, addend: 0x0, symName: __ZNK5Eigen8internal15BlockImpl_denseIKNS_3MapIKNS_6MatrixIdLin1ELin1ELi0ELin1ELin1EEELi0ENS_11OuterStrideILin1EEEEELin1ELi1ELb1ELb1EE11outerStrideEv, symObjAddr: 0x4DDB4, symBinAddr: 0x10004E544, symSize: 0x20 }
  - { offset: 0x15C6B8, size: 0x8, addend: 0x0, symName: __ZNK5Eigen8internal15BlockImpl_denseIKNS_3MapIKNS_6MatrixIdLin1ELin1ELi0ELin1ELin1EEELi0ENS_11OuterStrideILin1EEEEELin1ELi1ELb1ELb1EE11innerStrideEv, symObjAddr: 0x4DD94, symBinAddr: 0x10004E524, symSize: 0x20 }
  - { offset: 0x15C6E2, size: 0x8, addend: 0x0, symName: __ZNK5Eigen7MapBaseINS_5BlockIKNS_3MapIKNS_6MatrixIdLin1ELin1ELi0ELin1ELin1EEELi0ENS_11OuterStrideILin1EEEEELin1ELi1ELb1EEELi0EE4dataEv, symObjAddr: 0x4DD7C, symBinAddr: 0x10004E50C, symSize: 0x18 }
  - { offset: 0x15C70C, size: 0x8, addend: 0x0, symName: __ZNK5Eigen7MapBaseINS_5BlockIKNS_3MapIKNS_6MatrixIdLin1ELin1ELi0ELin1ELin1EEELi0ENS_11OuterStrideILin1EEEEELin1ELi1ELb1EEELi0EE11checkSanityISA_EEvNS_8internal9enable_ifIXeqsrNSD_6traitsIT_EE9AlignmentLi0EEPvE4typeE, symObjAddr: 0x4DD64, symBinAddr: 0x10004E4F4, symSize: 0x18 }
  - { offset: 0x15C762, size: 0x8, addend: 0x0, symName: __ZN5Eigen9DenseBaseINS_5BlockIKNS_3MapIKNS_6MatrixIdLin1ELin1ELi0ELin1ELin1EEELi0ENS_11OuterStrideILin1EEEEELin1ELi1ELb1EEEEC2Ev, symObjAddr: 0x4DD50, symBinAddr: 0x10004E4E0, symSize: 0x14 }
  - { offset: 0x15C784, size: 0x8, addend: 0x0, symName: __ZN5Eigen8internal21dense_assignment_loopINS0_31generic_dense_assignment_kernelINS0_9evaluatorINS_3MapINS_6MatrixIdLin1ELi1ELi0ELin1ELi1EEELi16ENS_6StrideILi0ELi0EEEEEEENS3_INS_5BlockIS6_Lin1ELi1ELb0EEEEENS0_9assign_opIddEELi0EEELi3ELi0EE3runERSG_, symObjAddr: 0x4DCC0, symBinAddr: 0x10004E450, symSize: 0x90 }
  - { offset: 0x15C832, size: 0x8, addend: 0x0, symName: __ZNK5Eigen8internal31generic_dense_assignment_kernelINS0_9evaluatorINS_3MapINS_6MatrixIdLin1ELi1ELi0ELin1ELi1EEELi16ENS_6StrideILi0ELi0EEEEEEENS2_INS_5BlockIS5_Lin1ELi1ELb0EEEEENS0_9assign_opIddEELi0EE4sizeEv, symObjAddr: 0x4DCA0, symBinAddr: 0x10004E430, symSize: 0x20 }
  - { offset: 0x15C8AE, size: 0x8, addend: 0x0, symName: __ZN5Eigen8internal31generic_dense_assignment_kernelINS0_9evaluatorINS_3MapINS_6MatrixIdLin1ELi1ELi0ELin1ELi1EEELi16ENS_6StrideILi0ELi0EEEEEEENS2_INS_5BlockIS5_Lin1ELi1ELb0EEEEENS0_9assign_opIddEELi0EEC1ERS9_RKSC_RKSE_RS8_, symObjAddr: 0x4DC4C, symBinAddr: 0x10004E3DC, symSize: 0x54 }
  - { offset: 0x15C8F4, size: 0x8, addend: 0x0, symName: __ZN5Eigen8internal17resize_if_allowedINS_3MapINS_6MatrixIdLin1ELi1ELi0ELin1ELi1EEELi16ENS_6StrideILi0ELi0EEEEENS_5BlockIS4_Lin1ELi1ELb0EEEddEEvRT_RKT0_RKNS0_9assign_opIT1_T2_EE, symObjAddr: 0x4DB34, symBinAddr: 0x10004E2C4, symSize: 0x118 }
  - { offset: 0x15C988, size: 0x8, addend: 0x0, symName: __ZN5Eigen8internal26call_dense_assignment_loopINS_5BlockINS_6MatrixIdLin1ELi1ELi0ELin1ELi1EEELin1ELi1ELb0EEES5_NS0_9assign_opIddEEEEvRT_RKT0_RKT1_, symObjAddr: 0x4DA84, symBinAddr: 0x10004E214, symSize: 0xB0 }
  - { offset: 0x15CA4D, size: 0x8, addend: 0x0, symName: __ZN5Eigen8internal18check_for_aliasingINS_5BlockINS_6MatrixIdLin1ELi1ELi0ELin1ELi1EEELin1ELi1ELb0EEES5_EEvRKT_RKT0_, symObjAddr: 0x4DA6C, symBinAddr: 0x10004E1FC, symSize: 0x18 }
  - { offset: 0x15CA9A, size: 0x8, addend: 0x0, symName: __ZN5Eigen8internal26call_dense_assignment_loopINS_3MapINS_6MatrixIdLin1ELi1ELi0ELin1ELi1EEELi0ENS_6StrideILi0ELi0EEEEENS2_IS4_Li16ES6_EENS0_9assign_opIddEEEEvRT_RKT0_RKT1_, symObjAddr: 0x4D9BC, symBinAddr: 0x10004E14C, symSize: 0xB0 }
  - { offset: 0x15CB5F, size: 0x8, addend: 0x0, symName: __ZN5Eigen8internal18check_for_aliasingINS_3MapINS_6MatrixIdLin1ELi1ELi0ELin1ELi1EEELi0ENS_6StrideILi0ELi0EEEEENS2_IS4_Li16ES6_EEEEvRKT_RKT0_, symObjAddr: 0x4D9A4, symBinAddr: 0x10004E134, symSize: 0x18 }
  - { offset: 0x15CBAC, size: 0x8, addend: 0x0, symName: __ZN5Eigen8internal26call_dense_assignment_loopINS_3MapINS_6MatrixIdLin1ELi1ELi0ELin1ELi1EEELi16ENS_6StrideILi0ELi0EEEEENS2_IS4_Li0ES6_EENS0_9assign_opIddEEEEvRT_RKT0_RKT1_, symObjAddr: 0x4D8F4, symBinAddr: 0x10004E084, symSize: 0xB0 }
  - { offset: 0x15CC71, size: 0x8, addend: 0x0, symName: __ZN5Eigen8internal18check_for_aliasingINS_3MapINS_6MatrixIdLin1ELi1ELi0ELin1ELi1EEELi16ENS_6StrideILi0ELi0EEEEENS2_IS4_Li0ES6_EEEEvRKT_RKT0_, symObjAddr: 0x4D8DC, symBinAddr: 0x10004E06C, symSize: 0x18 }
  - { offset: 0x15CCBE, size: 0x8, addend: 0x0, symName: __ZN5Eigen8internal21dense_assignment_loopINS0_31generic_dense_assignment_kernelINS0_9evaluatorINS_3MapINS_6MatrixIdLin1ELi1ELi0ELin1ELi1EEELi0ENS_6StrideILi0ELi0EEEEEEESA_NS0_9assign_opIddEELi0EEELi3ELi0EE3runERSD_, symObjAddr: 0x4D828, symBinAddr: 0x10004DFB8, symSize: 0xB4 }
  - { offset: 0x15CD6C, size: 0x8, addend: 0x0, symName: __ZNK5Eigen8internal31generic_dense_assignment_kernelINS0_9evaluatorINS_3MapINS_6MatrixIdLin1ELi1ELi0ELin1ELi1EEELi0ENS_6StrideILi0ELi0EEEEEEES9_NS0_9assign_opIddEELi0EE4sizeEv, symObjAddr: 0x4D808, symBinAddr: 0x10004DF98, symSize: 0x20 }
  - { offset: 0x15CDE8, size: 0x8, addend: 0x0, symName: __ZN5Eigen8internal31generic_dense_assignment_kernelINS0_9evaluatorINS_3MapINS_6MatrixIdLin1ELi1ELi0ELin1ELi1EEELi0ENS_6StrideILi0ELi0EEEEEEES9_NS0_9assign_opIddEELi0EEC1ERS9_RKS9_RKSB_RS8_, symObjAddr: 0x4D7B4, symBinAddr: 0x10004DF44, symSize: 0x54 }
  - { offset: 0x15CE2E, size: 0x8, addend: 0x0, symName: __ZN5Eigen8internal17resize_if_allowedINS_3MapINS_6MatrixIdLin1ELi1ELi0ELin1ELi1EEELi0ENS_6StrideILi0ELi0EEEEES7_ddEEvRT_RKT0_RKNS0_9assign_opIT1_T2_EE, symObjAddr: 0x4D69C, symBinAddr: 0x10004DE2C, symSize: 0x118 }
  - { offset: 0x15CEE0, size: 0x8, addend: 0x0, symName: __ZN5Eigen8internal14evaluator_baseINS_3MapINS_6MatrixIdLin1ELi1ELi0ELin1ELi1EEELi0ENS_6StrideILi0ELi0EEEEEED2Ev, symObjAddr: 0x4D688, symBinAddr: 0x10004DE18, symSize: 0x14 }
  - { offset: 0x15CF2E, size: 0x8, addend: 0x0, symName: __ZN5Eigen8internal9evaluatorINS_3MapINS_6MatrixIdLin1ELi1ELi0ELin1ELi1EEELi0ENS_6StrideILi0ELi0EEEEEEC1ERKS7_, symObjAddr: 0x4D660, symBinAddr: 0x10004DDF0, symSize: 0x28 }
  - { offset: 0x15CF59, size: 0x8, addend: 0x0, symName: __ZN5Eigen8internal10redux_implINS0_13scalar_sum_opIddEENS0_15redux_evaluatorINS_13CwiseBinaryOpINS0_17scalar_product_opIddEEKNS_9TransposeIKNS_5BlockIKNS9_IKNS_3MapINS_6MatrixIdLi3ELi3ELi0ELi3ELi3EEELi0ENS_11OuterStrideILin1EEEEELi1ELi3ELb0EEELi1ELi2ELb0EEEEEKNS9_INSA_INSB_IdLi3ELi1ELi0ELi3ELi1EEELi0ENS_6StrideILi0ELi0EEEEELi2ELi1ELb0EEEEEEELi0ELi2EE3runIST_EEdRKSU_RKS3_RKT_, symObjAddr: 0x4D630, symBinAddr: 0x10004DDC0, symSize: 0x30 }
  - { offset: 0x15CFC2, size: 0x8, addend: 0x0, symName: __ZN5Eigen8internal14evaluator_baseINS_5BlockINS_3MapINS_6MatrixIdLi3ELi1ELi0ELi3ELi1EEELi0ENS_6StrideILi0ELi0EEEEELi2ELi1ELb0EEEED2Ev, symObjAddr: 0x4D61C, symBinAddr: 0x10004DDAC, symSize: 0x14 }
  - { offset: 0x15D002, size: 0x8, addend: 0x0, symName: __ZN5Eigen8internal14evaluator_baseINS_5BlockIKNS2_IKNS_3MapINS_6MatrixIdLi3ELi3ELi0ELi3ELi3EEELi0ENS_11OuterStrideILin1EEEEELi1ELi3ELb0EEELi1ELi2ELb0EEEED2Ev, symObjAddr: 0x4D608, symBinAddr: 0x10004DD98, symSize: 0x14 }
  - { offset: 0x15D042, size: 0x8, addend: 0x0, symName: __ZN5Eigen8internal14evaluator_baseINS_9TransposeIKNS_5BlockIKNS3_IKNS_3MapINS_6MatrixIdLi3ELi3ELi0ELi3ELi3EEELi0ENS_11OuterStrideILin1EEEEELi1ELi3ELb0EEELi1ELi2ELb0EEEEEED2Ev, symObjAddr: 0x4D5F4, symBinAddr: 0x10004DD84, symSize: 0x14 }
  - { offset: 0x15D082, size: 0x8, addend: 0x0, symName: __ZN5Eigen8internal14evaluator_baseINS_13CwiseBinaryOpINS0_17scalar_product_opIddEEKNS_9TransposeIKNS_5BlockIKNS6_IKNS_3MapINS_6MatrixIdLi3ELi3ELi0ELi3ELi3EEELi0ENS_11OuterStrideILin1EEEEELi1ELi3ELb0EEELi1ELi2ELb0EEEEEKNS6_INS7_INS8_IdLi3ELi1ELi0ELi3ELi1EEELi0ENS_6StrideILi0ELi0EEEEELi2ELi1ELb0EEEEEED2Ev, symObjAddr: 0x4D5E0, symBinAddr: 0x10004DD70, symSize: 0x14 }
  - { offset: 0x15D0D0, size: 0x8, addend: 0x0, symName: __ZN5Eigen8internal15redux_evaluatorINS_13CwiseBinaryOpINS0_17scalar_product_opIddEEKNS_9TransposeIKNS_5BlockIKNS6_IKNS_3MapINS_6MatrixIdLi3ELi3ELi0ELi3ELi3EEELi0ENS_11OuterStrideILin1EEEEELi1ELi3ELb0EEELi1ELi2ELb0EEEEEKNS6_INS7_INS8_IdLi3ELi1ELi0ELi3ELi1EEELi0ENS_6StrideILi0ELi0EEEEELi2ELi1ELb0EEEEEEC1ERKSQ_, symObjAddr: 0x4D5B8, symBinAddr: 0x10004DD48, symSize: 0x28 }
  - { offset: 0x15D0FF, size: 0x8, addend: 0x0, symName: __ZNK5Eigen9EigenBaseINS_13CwiseBinaryOpINS_8internal17scalar_product_opIddEEKNS_9TransposeIKNS_5BlockIKNS6_IKNS_3MapINS_6MatrixIdLi3ELi3ELi0ELi3ELi3EEELi0ENS_11OuterStrideILin1EEEEELi1ELi3ELb0EEELi1ELi2ELb0EEEEEKNS6_INS7_INS8_IdLi3ELi1ELi0ELi3ELi1EEELi0ENS_6StrideILi0ELi0EEEEELi2ELi1ELb0EEEEEE4colsEv, symObjAddr: 0x4D598, symBinAddr: 0x10004DD28, symSize: 0x20 }
  - { offset: 0x15D129, size: 0x8, addend: 0x0, symName: __ZNK5Eigen9EigenBaseINS_13CwiseBinaryOpINS_8internal17scalar_product_opIddEEKNS_9TransposeIKNS_5BlockIKNS6_IKNS_3MapINS_6MatrixIdLi3ELi3ELi0ELi3ELi3EEELi0ENS_11OuterStrideILin1EEEEELi1ELi3ELb0EEELi1ELi2ELb0EEEEEKNS6_INS7_INS8_IdLi3ELi1ELi0ELi3ELi1EEELi0ENS_6StrideILi0ELi0EEEEELi2ELi1ELb0EEEEEE4rowsEv, symObjAddr: 0x4D578, symBinAddr: 0x10004DD08, symSize: 0x20 }
  - { offset: 0x15D153, size: 0x8, addend: 0x0, symName: __ZNK5Eigen7MapBaseINS_5BlockINS_3MapINS_6MatrixIdLi3ELi1ELi0ELi3ELi1EEELi0ENS_6StrideILi0ELi0EEEEELi2ELi1ELb0EEELi0EE4colsEv, symObjAddr: 0x4D560, symBinAddr: 0x10004DCF0, symSize: 0x18 }
  - { offset: 0x15D17D, size: 0x8, addend: 0x0, symName: __ZNK5Eigen9TransposeIKNS_5BlockIKNS1_IKNS_3MapINS_6MatrixIdLi3ELi3ELi0ELi3ELi3EEELi0ENS_11OuterStrideILin1EEEEELi1ELi3ELb0EEELi1ELi2ELb0EEEE4colsEv, symObjAddr: 0x4D544, symBinAddr: 0x10004DCD4, symSize: 0x1C }
  - { offset: 0x15D1A7, size: 0x8, addend: 0x0, symName: __ZNK5Eigen7MapBaseINS_5BlockINS_3MapINS_6MatrixIdLi3ELi1ELi0ELi3ELi1EEELi0ENS_6StrideILi0ELi0EEEEELi2ELi1ELb0EEELi0EE4rowsEv, symObjAddr: 0x4D52C, symBinAddr: 0x10004DCBC, symSize: 0x18 }
  - { offset: 0x15D1D1, size: 0x8, addend: 0x0, symName: __ZNK5Eigen9TransposeIKNS_5BlockIKNS1_IKNS_3MapINS_6MatrixIdLi3ELi3ELi0ELi3ELi3EEELi0ENS_11OuterStrideILin1EEEEELi1ELi3ELb0EEELi1ELi2ELb0EEEE4rowsEv, symObjAddr: 0x4D510, symBinAddr: 0x10004DCA0, symSize: 0x1C }
  - { offset: 0x15D215, size: 0x8, addend: 0x0, symName: __ZN5Eigen9DenseBaseINS_13CwiseBinaryOpINS_8internal17scalar_product_opIddEEKNS_9TransposeIKNS_5BlockIKNS6_IKNS_3MapINS_6MatrixIdLi3ELi3ELi0ELi3ELi3EEELi0ENS_11OuterStrideILin1EEEEELi1ELi3ELb0EEELi1ELi2ELb0EEEEEKNS6_INS7_INS8_IdLi3ELi1ELi0ELi3ELi1EEELi0ENS_6StrideILi0ELi0EEEEELi2ELi1ELb0EEEEEEC2Ev, symObjAddr: 0x4D4FC, symBinAddr: 0x10004DC8C, symSize: 0x14 }
  - { offset: 0x15D2A0, size: 0x8, addend: 0x0, symName: __ZN5Eigen5BlockINS_3MapINS_6MatrixIdLi3ELi1ELi0ELi3ELi1EEELi0ENS_6StrideILi0ELi0EEEEELi2ELi1ELb0EEC2ERS6_llll, symObjAddr: 0x4D2EC, symBinAddr: 0x10004DA7C, symSize: 0x210 }
  - { offset: 0x15D321, size: 0x8, addend: 0x0, symName: __ZN5Eigen9DenseBaseINS_9TransposeIKNS_5BlockIKNS2_IKNS_3MapINS_6MatrixIdLi3ELi3ELi0ELi3ELi3EEELi0ENS_11OuterStrideILin1EEEEELi1ELi3ELb0EEELi1ELi2ELb0EEEEEEC2Ev, symObjAddr: 0x4D2D8, symBinAddr: 0x10004DA68, symSize: 0x14 }
  - { offset: 0x15D3AC, size: 0x8, addend: 0x0, symName: __ZN5Eigen5BlockIKNS0_IKNS_3MapINS_6MatrixIdLi3ELi3ELi0ELi3ELi3EEELi0ENS_11OuterStrideILin1EEEEELi1ELi3ELb0EEELi1ELi2ELb0EEC2ERS9_llll, symObjAddr: 0x4D0C8, symBinAddr: 0x10004D858, symSize: 0x210 }
  - { offset: 0x15D40F, size: 0x8, addend: 0x0, symName: __ZN5Eigen8internal20redux_novec_unrollerINS0_13scalar_sum_opIddEENS0_15redux_evaluatorINS_13CwiseBinaryOpINS0_17scalar_product_opIddEEKNS_9TransposeIKNS_5BlockIKNS9_IKNS_3MapINS_6MatrixIdLi3ELi3ELi0ELi3ELi3EEELi0ENS_11OuterStrideILin1EEEEELi1ELi3ELb0EEELi1ELi1ELb0EEEEEKNS9_INSA_INSB_IdLi3ELi1ELi0ELi3ELi1EEELi0ENS_6StrideILi0ELi0EEEEELi1ELi1ELb0EEEEEEELi0ELi1EE3runERKSU_RKS3_, symObjAddr: 0x4D098, symBinAddr: 0x10004D828, symSize: 0x30 }
  - { offset: 0x15D46D, size: 0x8, addend: 0x0, symName: __ZN5Eigen8internal9evaluatorINS_13CwiseBinaryOpINS0_17scalar_product_opIddEEKNS_9TransposeIKNS_5BlockIKNS6_IKNS_3MapINS_6MatrixIdLi3ELi3ELi0ELi3ELi3EEELi0ENS_11OuterStrideILin1EEEEELi1ELi3ELb0EEELi1ELi1ELb0EEEEEKNS6_INS7_INS8_IdLi3ELi1ELi0ELi3ELi1EEELi0ENS_6StrideILi0ELi0EEEEELi1ELi1ELb0EEEEEEC2ERKSQ_, symObjAddr: 0x4D070, symBinAddr: 0x10004D800, symSize: 0x28 }
  - { offset: 0x15D49C, size: 0x8, addend: 0x0, symName: __ZNK5Eigen13CwiseBinaryOpINS_8internal17scalar_product_opIddEEKNS_9TransposeIKNS_5BlockIKNS5_IKNS_3MapINS_6MatrixIdLi3ELi3ELi0ELi3ELi3EEELi0ENS_11OuterStrideILin1EEEEELi1ELi3ELb0EEELi1ELi1ELb0EEEEEKNS5_INS6_INS7_IdLi3ELi1ELi0ELi3ELi1EEELi0ENS_6StrideILi0ELi0EEEEELi1ELi1ELb0EEEE4colsEv, symObjAddr: 0x4D054, symBinAddr: 0x10004D7E4, symSize: 0x1C }
  - { offset: 0x15D4C6, size: 0x8, addend: 0x0, symName: __ZNK5Eigen13CwiseBinaryOpINS_8internal17scalar_product_opIddEEKNS_9TransposeIKNS_5BlockIKNS5_IKNS_3MapINS_6MatrixIdLi3ELi3ELi0ELi3ELi3EEELi0ENS_11OuterStrideILin1EEEEELi1ELi3ELb0EEELi1ELi1ELb0EEEEEKNS5_INS6_INS7_IdLi3ELi1ELi0ELi3ELi1EEELi0ENS_6StrideILi0ELi0EEEEELi1ELi1ELb0EEEE4rowsEv, symObjAddr: 0x4D038, symBinAddr: 0x10004D7C8, symSize: 0x1C }
  - { offset: 0x15D4F0, size: 0x8, addend: 0x0, symName: __ZNK5Eigen7MapBaseINS_5BlockIKNS1_IKNS_3MapINS_6MatrixIdLi3ELi3ELi0ELi3ELi3EEELi0ENS_11OuterStrideILin1EEEEELi1ELi3ELb0EEELi1ELi1ELb0EEELi0EE4rowsEv, symObjAddr: 0x4D020, symBinAddr: 0x10004D7B0, symSize: 0x18 }
  - { offset: 0x15D51A, size: 0x8, addend: 0x0, symName: __ZNK5Eigen7MapBaseINS_5BlockIKNS1_IKNS_3MapINS_6MatrixIdLi3ELi3ELi0ELi3ELi3EEELi0ENS_11OuterStrideILin1EEEEELi1ELi3ELb0EEELi1ELi1ELb0EEELi0EE4colsEv, symObjAddr: 0x4D008, symBinAddr: 0x10004D798, symSize: 0x18 }
  - { offset: 0x15D59F, size: 0x8, addend: 0x0, symName: __ZN5Eigen9BlockImplINS_3MapINS_6MatrixIdLi3ELi1ELi0ELi3ELi1EEELi0ENS_6StrideILi0ELi0EEEEELi1ELi1ELb0ENS_5DenseEEC2ERS6_llll, symObjAddr: 0x4CFC0, symBinAddr: 0x10004D750, symSize: 0x48 }
  - { offset: 0x15D64D, size: 0x8, addend: 0x0, symName: __ZN5Eigen9BlockImplIKNS_5BlockIKNS_3MapINS_6MatrixIdLi3ELi3ELi0ELi3ELi3EEELi0ENS_11OuterStrideILin1EEEEELi1ELi3ELb0EEELi1ELi1ELb0ENS_5DenseEEC2ERSA_llll, symObjAddr: 0x4CF78, symBinAddr: 0x10004D708, symSize: 0x48 }
  - { offset: 0x15D6A0, size: 0x8, addend: 0x0, symName: __ZN5Eigen8internal15BlockImpl_denseIKNS_3MapINS_6MatrixIdLi3ELi3ELi0ELi3ELi3EEELi0ENS_11OuterStrideILin1EEEEELi1ELi3ELb0ELb1EE4initEv, symObjAddr: 0x4CF48, symBinAddr: 0x10004D6D8, symSize: 0x30 }
  - { offset: 0x15D715, size: 0x8, addend: 0x0, symName: __ZN5Eigen7MapBaseINS_5BlockIKNS_3MapINS_6MatrixIdLi3ELi3ELi0ELi3ELi3EEELi0ENS_11OuterStrideILin1EEEEELi1ELi3ELb0EEELi0EEC2EPKdll, symObjAddr: 0x4CDE0, symBinAddr: 0x10004D570, symSize: 0x168 }
  - { offset: 0x15D784, size: 0x8, addend: 0x0, symName: __ZN5Eigen10MatrixBaseINS_5BlockIKNS_3MapINS_6MatrixIdLi3ELi3ELi0ELi3ELi3EEELi0ENS_11OuterStrideILin1EEEEELi1ELi3ELb0EEEEC2Ev, symObjAddr: 0x4CDC0, symBinAddr: 0x10004D550, symSize: 0x20 }
  - { offset: 0x15D7AA, size: 0x8, addend: 0x0, symName: __ZNK5Eigen7MapBaseINS_3MapINS_6MatrixIdLi3ELi3ELi0ELi3ELi3EEELi0ENS_11OuterStrideILin1EEEEELi1EE4dataEv, symObjAddr: 0x4CDA8, symBinAddr: 0x10004D538, symSize: 0x18 }
  - { offset: 0x15D7D0, size: 0x8, addend: 0x0, symName: __ZN5Eigen8internal21dense_assignment_loopINS0_31generic_dense_assignment_kernelINS0_9evaluatorINS_3MapINS_6MatrixIdLi3ELi1ELi0ELi3ELi1EEELi0ENS_6StrideILi0ELi0EEEEEEESA_NS0_9assign_opIddEELi0EEELi3ELi2EE3runERSD_, symObjAddr: 0x4CD80, symBinAddr: 0x10004D510, symSize: 0x28 }
  - { offset: 0x15D86D, size: 0x8, addend: 0x0, symName: __ZN5Eigen8internal31generic_dense_assignment_kernelINS0_9evaluatorINS_3MapINS_6MatrixIdLi3ELi1ELi0ELi3ELi1EEELi0ENS_6StrideILi0ELi0EEEEEEES9_NS0_9assign_opIddEELi0EEC1ERS9_RKS9_RKSB_RS8_, symObjAddr: 0x4CD2C, symBinAddr: 0x10004D4BC, symSize: 0x54 }
  - { offset: 0x15D8B3, size: 0x8, addend: 0x0, symName: __ZN5Eigen8internal17resize_if_allowedINS_3MapINS_6MatrixIdLi3ELi1ELi0ELi3ELi1EEELi0ENS_6StrideILi0ELi0EEEEES7_ddEEvRT_RKT0_RKNS0_9assign_opIT1_T2_EE, symObjAddr: 0x4CC14, symBinAddr: 0x10004D3A4, symSize: 0x118 }
  - { offset: 0x15D965, size: 0x8, addend: 0x0, symName: __ZN5Eigen8internal14evaluator_baseINS_3MapINS_6MatrixIdLi3ELi1ELi0ELi3ELi1EEELi0ENS_6StrideILi0ELi0EEEEEED2Ev, symObjAddr: 0x4CC00, symBinAddr: 0x10004D390, symSize: 0x14 }
  - { offset: 0x15D9B3, size: 0x8, addend: 0x0, symName: __ZN5Eigen8internal9evaluatorINS_3MapINS_6MatrixIdLi3ELi1ELi0ELi3ELi1EEELi0ENS_6StrideILi0ELi0EEEEEEC1ERKS7_, symObjAddr: 0x4CBD8, symBinAddr: 0x10004D368, symSize: 0x28 }
  - { offset: 0x15D9DE, size: 0x8, addend: 0x0, symName: __ZN5Eigen8internal20redux_novec_unrollerINS0_13scalar_sum_opIddEENS0_15redux_evaluatorINS_13CwiseBinaryOpINS0_17scalar_product_opIddEEKNS_9TransposeIKNS_5BlockIKNS9_IKNS_3MapINS_6MatrixIdLi2ELi2ELi0ELi2ELi2EEELi0ENS_11OuterStrideILin1EEEEELi1ELi2ELb0EEELi1ELi1ELb0EEEEEKNS9_INSA_INSB_IdLi2ELi1ELi0ELi2ELi1EEELi0ENS_6StrideILi0ELi0EEEEELi1ELi1ELb0EEEEEEELi0ELi1EE3runERKSU_RKS3_, symObjAddr: 0x4CBA8, symBinAddr: 0x10004D338, symSize: 0x30 }
  - { offset: 0x15DA3C, size: 0x8, addend: 0x0, symName: __ZN5Eigen8internal9evaluatorINS_13CwiseBinaryOpINS0_17scalar_product_opIddEEKNS_9TransposeIKNS_5BlockIKNS6_IKNS_3MapINS_6MatrixIdLi2ELi2ELi0ELi2ELi2EEELi0ENS_11OuterStrideILin1EEEEELi1ELi2ELb0EEELi1ELi1ELb0EEEEEKNS6_INS7_INS8_IdLi2ELi1ELi0ELi2ELi1EEELi0ENS_6StrideILi0ELi0EEEEELi1ELi1ELb0EEEEEEC2ERKSQ_, symObjAddr: 0x4CB80, symBinAddr: 0x10004D310, symSize: 0x28 }
  - { offset: 0x15DA6B, size: 0x8, addend: 0x0, symName: __ZNK5Eigen13CwiseBinaryOpINS_8internal17scalar_product_opIddEEKNS_9TransposeIKNS_5BlockIKNS5_IKNS_3MapINS_6MatrixIdLi2ELi2ELi0ELi2ELi2EEELi0ENS_11OuterStrideILin1EEEEELi1ELi2ELb0EEELi1ELi1ELb0EEEEEKNS5_INS6_INS7_IdLi2ELi1ELi0ELi2ELi1EEELi0ENS_6StrideILi0ELi0EEEEELi1ELi1ELb0EEEE4colsEv, symObjAddr: 0x4CB64, symBinAddr: 0x10004D2F4, symSize: 0x1C }
  - { offset: 0x15DA95, size: 0x8, addend: 0x0, symName: __ZNK5Eigen13CwiseBinaryOpINS_8internal17scalar_product_opIddEEKNS_9TransposeIKNS_5BlockIKNS5_IKNS_3MapINS_6MatrixIdLi2ELi2ELi0ELi2ELi2EEELi0ENS_11OuterStrideILin1EEEEELi1ELi2ELb0EEELi1ELi1ELb0EEEEEKNS5_INS6_INS7_IdLi2ELi1ELi0ELi2ELi1EEELi0ENS_6StrideILi0ELi0EEEEELi1ELi1ELb0EEEE4rowsEv, symObjAddr: 0x4CB48, symBinAddr: 0x10004D2D8, symSize: 0x1C }
  - { offset: 0x15DABF, size: 0x8, addend: 0x0, symName: __ZNK5Eigen7MapBaseINS_5BlockIKNS1_IKNS_3MapINS_6MatrixIdLi2ELi2ELi0ELi2ELi2EEELi0ENS_11OuterStrideILin1EEEEELi1ELi2ELb0EEELi1ELi1ELb0EEELi0EE4rowsEv, symObjAddr: 0x4CB30, symBinAddr: 0x10004D2C0, symSize: 0x18 }
  - { offset: 0x15DAE9, size: 0x8, addend: 0x0, symName: __ZNK5Eigen7MapBaseINS_5BlockIKNS1_IKNS_3MapINS_6MatrixIdLi2ELi2ELi0ELi2ELi2EEELi0ENS_11OuterStrideILin1EEEEELi1ELi2ELb0EEELi1ELi1ELb0EEELi0EE4colsEv, symObjAddr: 0x4CB18, symBinAddr: 0x10004D2A8, symSize: 0x18 }
  - { offset: 0x15DB6E, size: 0x8, addend: 0x0, symName: __ZN5Eigen9BlockImplINS_3MapINS_6MatrixIdLi2ELi1ELi0ELi2ELi1EEELi0ENS_6StrideILi0ELi0EEEEELi1ELi1ELb0ENS_5DenseEEC2ERS6_llll, symObjAddr: 0x4CAD0, symBinAddr: 0x10004D260, symSize: 0x48 }
  - { offset: 0x15DC1C, size: 0x8, addend: 0x0, symName: __ZN5Eigen9BlockImplIKNS_5BlockIKNS_3MapINS_6MatrixIdLi2ELi2ELi0ELi2ELi2EEELi0ENS_11OuterStrideILin1EEEEELi1ELi2ELb0EEELi1ELi1ELb0ENS_5DenseEEC2ERSA_llll, symObjAddr: 0x4CA88, symBinAddr: 0x10004D218, symSize: 0x48 }
  - { offset: 0x15DC6F, size: 0x8, addend: 0x0, symName: __ZN5Eigen8internal15BlockImpl_denseIKNS_3MapINS_6MatrixIdLi2ELi2ELi0ELi2ELi2EEELi0ENS_11OuterStrideILin1EEEEELi1ELi2ELb0ELb1EE4initEv, symObjAddr: 0x4CA58, symBinAddr: 0x10004D1E8, symSize: 0x30 }
  - { offset: 0x15DCE4, size: 0x8, addend: 0x0, symName: __ZN5Eigen7MapBaseINS_5BlockIKNS_3MapINS_6MatrixIdLi2ELi2ELi0ELi2ELi2EEELi0ENS_11OuterStrideILin1EEEEELi1ELi2ELb0EEELi0EEC2EPKdll, symObjAddr: 0x4C8F0, symBinAddr: 0x10004D080, symSize: 0x168 }
  - { offset: 0x15DD53, size: 0x8, addend: 0x0, symName: __ZN5Eigen10MatrixBaseINS_5BlockIKNS_3MapINS_6MatrixIdLi2ELi2ELi0ELi2ELi2EEELi0ENS_11OuterStrideILin1EEEEELi1ELi2ELb0EEEEC2Ev, symObjAddr: 0x4C8D0, symBinAddr: 0x10004D060, symSize: 0x20 }
  - { offset: 0x15DD79, size: 0x8, addend: 0x0, symName: __ZNK5Eigen7MapBaseINS_3MapINS_6MatrixIdLi2ELi2ELi0ELi2ELi2EEELi0ENS_11OuterStrideILin1EEEEELi1EE4dataEv, symObjAddr: 0x4C8B8, symBinAddr: 0x10004D048, symSize: 0x18 }
  - { offset: 0x15DD9F, size: 0x8, addend: 0x0, symName: __ZN5Eigen8internal21dense_assignment_loopINS0_31generic_dense_assignment_kernelINS0_9evaluatorINS_3MapINS_6MatrixIdLi2ELi1ELi0ELi2ELi1EEELi0ENS_6StrideILi0ELi0EEEEEEESA_NS0_9assign_opIddEELi0EEELi2ELi2EE3runERSD_, symObjAddr: 0x4C898, symBinAddr: 0x10004D028, symSize: 0x20 }
  - { offset: 0x15DE1F, size: 0x8, addend: 0x0, symName: __ZN5Eigen8internal31generic_dense_assignment_kernelINS0_9evaluatorINS_3MapINS_6MatrixIdLi2ELi1ELi0ELi2ELi1EEELi0ENS_6StrideILi0ELi0EEEEEEES9_NS0_9assign_opIddEELi0EEC1ERS9_RKS9_RKSB_RS8_, symObjAddr: 0x4C844, symBinAddr: 0x10004CFD4, symSize: 0x54 }
  - { offset: 0x15DE65, size: 0x8, addend: 0x0, symName: __ZN5Eigen8internal17resize_if_allowedINS_3MapINS_6MatrixIdLi2ELi1ELi0ELi2ELi1EEELi0ENS_6StrideILi0ELi0EEEEES7_ddEEvRT_RKT0_RKNS0_9assign_opIT1_T2_EE, symObjAddr: 0x4C72C, symBinAddr: 0x10004CEBC, symSize: 0x118 }
  - { offset: 0x15DF17, size: 0x8, addend: 0x0, symName: __ZN5Eigen8internal14evaluator_baseINS_3MapINS_6MatrixIdLi2ELi1ELi0ELi2ELi1EEELi0ENS_6StrideILi0ELi0EEEEEED2Ev, symObjAddr: 0x4C718, symBinAddr: 0x10004CEA8, symSize: 0x14 }
  - { offset: 0x15DF65, size: 0x8, addend: 0x0, symName: __ZN5Eigen8internal9evaluatorINS_3MapINS_6MatrixIdLi2ELi1ELi0ELi2ELi1EEELi0ENS_6StrideILi0ELi0EEEEEEC1ERKS7_, symObjAddr: 0x4C6F0, symBinAddr: 0x10004CE80, symSize: 0x28 }
  - { offset: 0x15DF94, size: 0x8, addend: 0x0, symName: __ZN5Eigen8internal31generic_dense_assignment_kernelINS0_9evaluatorINS_3MapINS_6MatrixIdLin1ELin1ELi0ELin1ELin1EEELi16ENS_11OuterStrideILin1EEEEEEES9_NS0_9assign_opIddEELi0EE24assignPacketByOuterInnerILi16ELi0E13__Float64x2_tEEvll, symObjAddr: 0x4C6A0, symBinAddr: 0x10004CE30, symSize: 0x50 }
  - { offset: 0x15E01F, size: 0x8, addend: 0x0, symName: __ZN5Eigen8internal31generic_dense_assignment_kernelINS0_9evaluatorINS_3MapINS_6MatrixIdLin1ELin1ELi0ELin1ELin1EEELi16ENS_11OuterStrideILin1EEEEEEES9_NS0_9assign_opIddEELi0EE23assignCoeffByOuterInnerEll, symObjAddr: 0x4C650, symBinAddr: 0x10004CDE0, symSize: 0x50 }
  - { offset: 0x15E08D, size: 0x8, addend: 0x0, symName: __ZNK5Eigen9DenseBaseINS_3MapINS_6MatrixIdLin1ELin1ELi0ELin1ELin1EEELi16ENS_11OuterStrideILin1EEEEEE9outerSizeEv, symObjAddr: 0x4C634, symBinAddr: 0x10004CDC4, symSize: 0x1C }
  - { offset: 0x15E0B7, size: 0x8, addend: 0x0, symName: __ZNK5Eigen9DenseBaseINS_3MapINS_6MatrixIdLin1ELin1ELi0ELin1ELin1EEELi16ENS_11OuterStrideILin1EEEEEE9innerSizeEv, symObjAddr: 0x4C618, symBinAddr: 0x10004CDA8, symSize: 0x1C }
  - { offset: 0x15E0E1, size: 0x8, addend: 0x0, symName: __ZNK5Eigen8internal31generic_dense_assignment_kernelINS0_9evaluatorINS_3MapINS_6MatrixIdLin1ELin1ELi0ELin1ELin1EEELi16ENS_11OuterStrideILin1EEEEEEES9_NS0_9assign_opIddEELi0EE10dstDataPtrEv, symObjAddr: 0x4C5F8, symBinAddr: 0x10004CD88, symSize: 0x20 }
  - { offset: 0x15E132, size: 0x8, addend: 0x0, symName: __ZN5Eigen8internal9evaluatorIKNS_13CwiseBinaryOpINS0_20scalar_difference_opIddEEKNS_12ArrayWrapperINS_6MatrixIdLin1ELi1ELi0ELin1ELi1EEEEEKNS_14CwiseNullaryOpINS0_18scalar_constant_opIdEEKNS_5ArrayIdLin1ELi1ELi0ELin1ELi1EEEEEEEEC1ERSJ_, symObjAddr: 0x4C5D0, symBinAddr: 0x10004CD60, symSize: 0x28 }
  - { offset: 0x15E188, size: 0x8, addend: 0x0, symName: __ZN5Eigen8internal9evaluatorIKNS_12CwiseUnaryOpINS0_18scalar_opposite_opIdEEKNS_13CwiseBinaryOpINS0_20scalar_difference_opIddEEKNS_12ArrayWrapperINS_6MatrixIdLin1ELi1ELi0ELin1ELi1EEEEEKNS_14CwiseNullaryOpINS0_18scalar_constant_opIdEEKNS_5ArrayIdLin1ELi1ELi0ELin1ELi1EEEEEEEEEEC1ERSO_, symObjAddr: 0x4C5A8, symBinAddr: 0x10004CD38, symSize: 0x28 }
  - { offset: 0x15E1B7, size: 0x8, addend: 0x0, symName: __ZNK5Eigen13CwiseBinaryOpINS_8internal17scalar_product_opIddEEKNS_12CwiseUnaryOpINS1_18scalar_opposite_opIdEEKNS0_INS1_20scalar_difference_opIddEEKNS_12ArrayWrapperINS_6MatrixIdLin1ELi1ELi0ELin1ELi1EEEEEKNS_14CwiseNullaryOpINS1_18scalar_constant_opIdEEKNS_5ArrayIdLin1ELi1ELi0ELin1ELi1EEEEEEEEESN_E3rhsEv, symObjAddr: 0x4C590, symBinAddr: 0x10004CD20, symSize: 0x18 }
  - { offset: 0x15E1E1, size: 0x8, addend: 0x0, symName: __ZNK5Eigen13CwiseBinaryOpINS_8internal17scalar_product_opIddEEKNS_12CwiseUnaryOpINS1_18scalar_opposite_opIdEEKNS0_INS1_20scalar_difference_opIddEEKNS_12ArrayWrapperINS_6MatrixIdLin1ELi1ELi0ELin1ELi1EEEEEKNS_14CwiseNullaryOpINS1_18scalar_constant_opIdEEKNS_5ArrayIdLin1ELi1ELi0ELin1ELi1EEEEEEEEESN_E3lhsEv, symObjAddr: 0x4C578, symBinAddr: 0x10004CD08, symSize: 0x18 }
  - { offset: 0x15E20B, size: 0x8, addend: 0x0, symName: __ZNK5Eigen13CwiseBinaryOpINS_8internal17scalar_product_opIddEEKNS_12CwiseUnaryOpINS1_18scalar_opposite_opIdEEKNS0_INS1_20scalar_difference_opIddEEKNS_12ArrayWrapperINS_6MatrixIdLin1ELi1ELi0ELin1ELi1EEEEEKNS_14CwiseNullaryOpINS1_18scalar_constant_opIdEEKNS_5ArrayIdLin1ELi1ELi0ELin1ELi1EEEEEEEEESN_E7functorEv, symObjAddr: 0x4C560, symBinAddr: 0x10004CCF0, symSize: 0x18 }
  - { offset: 0x15E24F, size: 0x8, addend: 0x0, symName: __ZN5Eigen8internal14evaluator_baseINS_12ArrayWrapperINS_6MatrixIdLin1ELi1ELi0ELin1ELi1EEEEEEC2Ev, symObjAddr: 0x4C54C, symBinAddr: 0x10004CCDC, symSize: 0x14 }
  - { offset: 0x15E271, size: 0x8, addend: 0x0, symName: __ZN5Eigen8internal24call_assignment_no_aliasINS_5BlockINS2_INS_6MatrixIdLin1ELi1ELi0ELin1ELi1EEELin1ELi1ELb1EEELi1ELi1ELb0EEENS2_IKS5_Li1ELi1ELb0EEENS0_9assign_opIddEEEEvRT_RKT0_RKT1_, symObjAddr: 0x4C514, symBinAddr: 0x10004CCA4, symSize: 0x38 }
  - { offset: 0x15E30B, size: 0x8, addend: 0x0, symName: __ZN5Eigen8internal15BlockImpl_denseIKNS_5BlockINS_6MatrixIdLin1ELi1ELi0ELin1ELi1EEELin1ELi1ELb1EEELi1ELi1ELb0ELb1EE4initEv, symObjAddr: 0x4C4E4, symBinAddr: 0x10004CC74, symSize: 0x30 }
  - { offset: 0x15E380, size: 0x8, addend: 0x0, symName: __ZN5Eigen7MapBaseINS_5BlockIKNS1_INS_6MatrixIdLin1ELi1ELi0ELin1ELi1EEELin1ELi1ELb1EEELi1ELi1ELb0EEELi0EEC2EPKdll, symObjAddr: 0x4C37C, symBinAddr: 0x10004CB0C, symSize: 0x168 }
  - { offset: 0x15E3EF, size: 0x8, addend: 0x0, symName: __ZN5Eigen10MatrixBaseINS_5BlockIKNS1_INS_6MatrixIdLin1ELi1ELi0ELin1ELi1EEELin1ELi1ELb1EEELi1ELi1ELb0EEEEC2Ev, symObjAddr: 0x4C35C, symBinAddr: 0x10004CAEC, symSize: 0x20 }
  - { offset: 0x15E415, size: 0x8, addend: 0x0, symName: __ZN5Eigen10MatrixBaseINS_3MapINS_6MatrixIdLin1ELi1ELi0ELin1ELi1EEELi0ENS_11OuterStrideILin1EEEEEEaSINS1_IS3_Li16ENS_6StrideILi0ELi0EEEEEEERS6_RKNS_9DenseBaseIT_EE, symObjAddr: 0x4C314, symBinAddr: 0x10004CAA4, symSize: 0x48 }
  - { offset: 0x15E454, size: 0x8, addend: 0x0, symName: __ZN5Eigen8internal23triangular_solve_vectorIddlLi1ELi2ELb0ELi0EE3runElPKdlPd, symObjAddr: 0x4BF78, symBinAddr: 0x10004C708, symSize: 0x39C }
  - { offset: 0x15E4EF, size: 0x8, addend: 0x0, symName: __ZZN5Eigen8internal23triangular_solve_vectorIddlLi1ELi2ELb0ELi0EE3runElPKdlPdE10PanelWidth, symObjAddr: 0x57C60, symBinAddr: 0x100062EF0, symSize: 0x0 }
  - { offset: 0x15E705, size: 0x8, addend: 0x0, symName: __ZN5Eigen10MatrixBaseINS_3MapINS_6MatrixIdLin1ELi1ELi0ELin1ELi1EEELi16ENS_6StrideILi0ELi0EEEEEEaSINS1_IS3_Li0ENS_11OuterStrideILin1EEEEEEERS6_RKNS_9DenseBaseIT_EE, symObjAddr: 0x4BF30, symBinAddr: 0x10004C6C0, symSize: 0x48 }
  - { offset: 0x15E744, size: 0x8, addend: 0x0, symName: __ZN5Eigen8internal15call_assignmentINS_3MapINS_6MatrixIdLin1ELi1ELi0ELin1ELi1EEELi0ENS_11OuterStrideILin1EEEEES7_EEvRT_RKT0_, symObjAddr: 0x4BEF4, symBinAddr: 0x10004C684, symSize: 0x3C }
  - { offset: 0x15E7C7, size: 0x8, addend: 0x0, symName: __ZNK5Eigen9DenseBaseINS_13CwiseBinaryOpINS_8internal22scalar_conj_product_opIddEEKNS_9TransposeIKNS_5BlockIKNS_3MapIKNS_6MatrixIdLin1ELin1ELi0ELin1ELin1EEELi0ENS_11OuterStrideILin1EEEEELi1ELin1ELb0EEEEEKNS6_IKNS7_INS8_IdLin1ELi1ELi0ELin1ELi1EEELi0ESC_EELin1ELi1ELb1EEEEEE3sumEv, symObjAddr: 0x4BE80, symBinAddr: 0x10004C610, symSize: 0x74 }
  - { offset: 0x15E7F1, size: 0x8, addend: 0x0, symName: __ZNK5Eigen10MatrixBaseINS_9TransposeIKNS_5BlockIKNS_3MapIKNS_6MatrixIdLin1ELin1ELi0ELin1ELin1EEELi0ENS_11OuterStrideILin1EEEEELi1ELin1ELb0EEEEEE10binaryExprINS_8internal22scalar_conj_product_opIddEENS2_IKNS3_INS4_IdLin1ELi1ELi0ELin1ELi1EEELi0ES8_EELin1ELi1ELb1EEEEEKNS_13CwiseBinaryOpIT_KSD_KT0_EERKNS0_ISQ_EERKSO_, symObjAddr: 0x4BE2C, symBinAddr: 0x10004C5BC, symSize: 0x54 }
  - { offset: 0x15E84D, size: 0x8, addend: 0x0, symName: __ZNK5Eigen9DenseBaseINS_5BlockIKNS_3MapIKNS_6MatrixIdLin1ELin1ELi0ELin1ELin1EEELi0ENS_11OuterStrideILin1EEEEELi1ELin1ELb0EEEE9transposeEv, symObjAddr: 0x4BDF4, symBinAddr: 0x10004C584, symSize: 0x38 }
  - { offset: 0x15E877, size: 0x8, addend: 0x0, symName: __ZNK5Eigen9EigenBaseINS_5BlockIKNS_3MapINS_6MatrixIdLin1ELi1ELi0ELin1ELi1EEELi0ENS_11OuterStrideILin1EEEEELin1ELi1ELb1EEEE4colsEv, symObjAddr: 0x4BDD4, symBinAddr: 0x10004C564, symSize: 0x20 }
  - { offset: 0x15E8A1, size: 0x8, addend: 0x0, symName: __ZNK5Eigen9EigenBaseINS_5BlockIKNS_3MapINS_6MatrixIdLin1ELi1ELi0ELin1ELi1EEELi0ENS_11OuterStrideILin1EEEEELin1ELi1ELb1EEEE4rowsEv, symObjAddr: 0x4BDB4, symBinAddr: 0x10004C544, symSize: 0x20 }
  - { offset: 0x15E8CB, size: 0x8, addend: 0x0, symName: __ZNK5Eigen9EigenBaseINS_5BlockIKNS_3MapIKNS_6MatrixIdLin1ELin1ELi0ELin1ELin1EEELi0ENS_11OuterStrideILin1EEEEELi1ELin1ELb0EEEE4colsEv, symObjAddr: 0x4BD94, symBinAddr: 0x10004C524, symSize: 0x20 }
  - { offset: 0x15E8F5, size: 0x8, addend: 0x0, symName: __ZNK5Eigen9EigenBaseINS_5BlockIKNS_3MapIKNS_6MatrixIdLin1ELin1ELi0ELin1ELin1EEELi0ENS_11OuterStrideILin1EEEEELi1ELin1ELb0EEEE4rowsEv, symObjAddr: 0x4BD74, symBinAddr: 0x10004C504, symSize: 0x20 }
  - { offset: 0x15E953, size: 0x8, addend: 0x0, symName: __ZN5Eigen9BlockImplIKNS_3MapINS_6MatrixIdLin1ELi1ELi0ELin1ELi1EEELi0ENS_11OuterStrideILin1EEEEELin1ELi1ELb1ENS_5DenseEEC2ERS7_l, symObjAddr: 0x4BD44, symBinAddr: 0x10004C4D4, symSize: 0x30 }
  - { offset: 0x15E9BF, size: 0x8, addend: 0x0, symName: __ZN5Eigen9BlockImplIKNS_3MapIKNS_6MatrixIdLin1ELin1ELi0ELin1ELin1EEELi0ENS_11OuterStrideILin1EEEEELi1ELin1ELb0ENS_5DenseEEC2ERS8_l, symObjAddr: 0x4BD14, symBinAddr: 0x10004C4A4, symSize: 0x30 }
  - { offset: 0x15E9F3, size: 0x8, addend: 0x0, symName: __ZN5Eigen8internal26triangular_solver_selectorINS_3MapIKNS_6MatrixIdLin1ELin1ELi0ELin1ELin1EEELi0ENS_11OuterStrideILin1EEEEENS2_INS3_IdLin1ELi1ELi0ELin1ELi1EEELi0ES7_EELi1ELi5ELi0ELi1EE3runERKS8_RSA_, symObjAddr: 0x4BA9C, symBinAddr: 0x10004C22C, symSize: 0x278 }
  - { offset: 0x15EA9C, size: 0x8, addend: 0x0, symName: __ZNK5Eigen14TriangularViewINS_3MapIKNS_6MatrixIdLin1ELin1ELi0ELin1ELin1EEELi0ENS_11OuterStrideILin1EEEEELj5EE16nestedExpressionEv, symObjAddr: 0x4BA88, symBinAddr: 0x10004C218, symSize: 0x14 }
  - { offset: 0x15EAC6, size: 0x8, addend: 0x0, symName: __ZNK5Eigen14TriangularViewINS_3MapIKNS_6MatrixIdLin1ELin1ELi0ELin1ELin1EEELi0ENS_11OuterStrideILin1EEEEELj5EE4rowsEv, symObjAddr: 0x4BA6C, symBinAddr: 0x10004C1FC, symSize: 0x1C }
  - { offset: 0x15EAF0, size: 0x8, addend: 0x0, symName: __ZNK5Eigen14TriangularBaseINS_14TriangularViewINS_3MapIKNS_6MatrixIdLin1ELin1ELi0ELin1ELin1EEELi0ENS_11OuterStrideILin1EEEEELj5EEEE7derivedEv, symObjAddr: 0x4BA58, symBinAddr: 0x10004C1E8, symSize: 0x14 }
  - { offset: 0x15EB16, size: 0x8, addend: 0x0, symName: __ZN5Eigen8internal24call_assignment_no_aliasINS_5BlockINS2_INS_6MatrixIdLin1ELi1ELi0ELin1ELi1EEELin1ELi1ELb1EEELi1ELi1ELb0EEENS2_IKNS2_INS_12CwiseUnaryOpINS0_18scalar_opposite_opIdEEKS4_EELin1ELi1ELb1EEELi1ELi1ELb0EEENS0_9assign_opIddEEEEvRT_RKT0_RKT1_, symObjAddr: 0x4BA20, symBinAddr: 0x10004C1B0, symSize: 0x38 }
  - { offset: 0x15EBCA, size: 0x8, addend: 0x0, symName: __ZN5Eigen9DenseBaseINS_5BlockIKNS1_INS_12CwiseUnaryOpINS_8internal18scalar_opposite_opIdEEKNS_6MatrixIdLin1ELi1ELi0ELin1ELi1EEEEELin1ELi1ELb1EEELi1ELi1ELb0EEEEC2Ev, symObjAddr: 0x4BA0C, symBinAddr: 0x10004C19C, symSize: 0x14 }
  - { offset: 0x15EBEC, size: 0x8, addend: 0x0, symName: __ZN5Eigen8internal10AssignmentINS_5BlockINS2_INS_6MatrixIdLin1ELi1ELi0ELin1ELi1EEELin1ELi1ELb1EEELi1ELi1ELb0EEES6_NS0_14swap_assign_opIdEENS0_11Dense2DenseEvE3runERS6_RKS6_RKS8_, symObjAddr: 0x4B9D0, symBinAddr: 0x10004C160, symSize: 0x3C }
  - { offset: 0x15EC3C, size: 0x8, addend: 0x0, symName: __ZN5Eigen8internal15BlockImpl_denseINS_5BlockINS_6MatrixIdLin1ELi1ELi0ELin1ELi1EEELin1ELi1ELb1EEELi1ELi1ELb0ELb1EE4initEv, symObjAddr: 0x4B9A0, symBinAddr: 0x10004C130, symSize: 0x30 }
  - { offset: 0x15ECAA, size: 0x8, addend: 0x0, symName: __ZN5Eigen7MapBaseINS_5BlockINS1_INS_6MatrixIdLin1ELi1ELi0ELin1ELi1EEELin1ELi1ELb1EEELi1ELi1ELb0EEELi1EEC2EPdll, symObjAddr: 0x4B968, symBinAddr: 0x10004C0F8, symSize: 0x38 }
  - { offset: 0x15ECEB, size: 0x8, addend: 0x0, symName: __ZN5Eigen7MapBaseINS_5BlockINS_6MatrixIdLin1ELi1ELi0ELin1ELi1EEELin1ELi1ELb1EEELi1EE4dataEv, symObjAddr: 0x4B950, symBinAddr: 0x10004C0E0, symSize: 0x18 }
  - { offset: 0x15ED15, size: 0x8, addend: 0x0, symName: __ZNK5Eigen8internal17mapbase_evaluatorINS_5BlockIKNS2_INS_6MatrixIdLin1ELi1ELi0ELin1ELi1EEELin1ELi1ELb0EEELin1ELi1ELb1EEES4_E9rowStrideEv, symObjAddr: 0x4B938, symBinAddr: 0x10004C0C8, symSize: 0x18 }
  - { offset: 0x15ED3F, size: 0x8, addend: 0x0, symName: __ZNK5Eigen8internal17mapbase_evaluatorINS_5BlockIKNS2_INS_6MatrixIdLin1ELi1ELi0ELin1ELi1EEELin1ELi1ELb0EEELin1ELi1ELb1EEES4_E9colStrideEv, symObjAddr: 0x4B918, symBinAddr: 0x10004C0A8, symSize: 0x20 }
  - { offset: 0x15ED69, size: 0x8, addend: 0x0, symName: __ZNK5Eigen8internal17mapbase_evaluatorINS_5BlockIKNS_3MapINS_6MatrixIdLin1ELin1ELi0ELin1ELin1EEELi0ENS_11OuterStrideILin1EEEEELi1ELin1ELb0EEENS4_IdLi1ELin1ELi1ELi1ELin1EEEE5coeffEll, symObjAddr: 0x4B8B0, symBinAddr: 0x10004C040, symSize: 0x68 }
  - { offset: 0x15EDDC, size: 0x8, addend: 0x0, symName: __ZN5Eigen8internal9evaluatorIKNS_5BlockIKNS2_INS_6MatrixIdLin1ELi1ELi0ELin1ELi1EEELin1ELi1ELb0EEELin1ELi1ELb1EEEEC1ERS8_, symObjAddr: 0x4B888, symBinAddr: 0x10004C018, symSize: 0x28 }
  - { offset: 0x15EE32, size: 0x8, addend: 0x0, symName: __ZN5Eigen8internal9evaluatorIKNS_9TransposeIKNS_5BlockIKNS_3MapINS_6MatrixIdLin1ELin1ELi0ELin1ELin1EEELi0ENS_11OuterStrideILin1EEEEELi1ELin1ELb0EEEEEEC1ERSE_, symObjAddr: 0x4B860, symBinAddr: 0x10004BFF0, symSize: 0x28 }
  - { offset: 0x15EE61, size: 0x8, addend: 0x0, symName: __ZNK5Eigen13CwiseBinaryOpINS_8internal22scalar_conj_product_opIddEEKNS_9TransposeIKNS_5BlockIKNS_3MapINS_6MatrixIdLin1ELin1ELi0ELin1ELin1EEELi0ENS_11OuterStrideILin1EEEEELi1ELin1ELb0EEEEEKNS5_IKNS5_INS7_IdLin1ELi1ELi0ELin1ELi1EEELin1ELi1ELb0EEELin1ELi1ELb1EEEE3rhsEv, symObjAddr: 0x4B848, symBinAddr: 0x10004BFD8, symSize: 0x18 }
  - { offset: 0x15EE8B, size: 0x8, addend: 0x0, symName: __ZNK5Eigen13CwiseBinaryOpINS_8internal22scalar_conj_product_opIddEEKNS_9TransposeIKNS_5BlockIKNS_3MapINS_6MatrixIdLin1ELin1ELi0ELin1ELin1EEELi0ENS_11OuterStrideILin1EEEEELi1ELin1ELb0EEEEEKNS5_IKNS5_INS7_IdLin1ELi1ELi0ELin1ELi1EEELin1ELi1ELb0EEELin1ELi1ELb1EEEE3lhsEv, symObjAddr: 0x4B834, symBinAddr: 0x10004BFC4, symSize: 0x14 }
  - { offset: 0x15EEB5, size: 0x8, addend: 0x0, symName: __ZNK5Eigen13CwiseBinaryOpINS_8internal22scalar_conj_product_opIddEEKNS_9TransposeIKNS_5BlockIKNS_3MapINS_6MatrixIdLin1ELin1ELi0ELin1ELin1EEELi0ENS_11OuterStrideILin1EEEEELi1ELin1ELb0EEEEEKNS5_IKNS5_INS7_IdLin1ELi1ELi0ELin1ELi1EEELin1ELi1ELb0EEELin1ELi1ELb1EEEE7functorEv, symObjAddr: 0x4B81C, symBinAddr: 0x10004BFAC, symSize: 0x18 }
  - { offset: 0x15EEDB, size: 0x8, addend: 0x0, symName: __ZN5Eigen8internal26call_dense_assignment_loopINS_5BlockINS_6MatrixIdLin1ELi1ELi0ELin1ELi1EEELin1ELi1ELb0EEENS_3MapIS4_Li16ENS_6StrideILi0ELi0EEEEENS0_9assign_opIddEEEEvRT_RKT0_RKT1_, symObjAddr: 0x4B76C, symBinAddr: 0x10004BEFC, symSize: 0xB0 }
  - { offset: 0x15EFA0, size: 0x8, addend: 0x0, symName: __ZN5Eigen8internal18check_for_aliasingINS_5BlockINS_6MatrixIdLin1ELi1ELi0ELin1ELi1EEELin1ELi1ELb0EEENS_3MapIS4_Li16ENS_6StrideILi0ELi0EEEEEEEvRKT_RKT0_, symObjAddr: 0x4B754, symBinAddr: 0x10004BEE4, symSize: 0x18 }
  - { offset: 0x15EFED, size: 0x8, addend: 0x0, symName: __ZN5Eigen8internal26call_dense_assignment_loopINS_3MapINS_6MatrixIdLin1ELi1ELi0ELin1ELi1EEELi0ENS_6StrideILi0ELi0EEEEENS_13CwiseBinaryOpINS0_17scalar_product_opIddEEKNS_14CwiseNullaryOpINS0_18scalar_constant_opIdEEKS4_EEKNS_5BlockIKNSH_IKNS2_IKNS3_IdLin1ELin1ELi0ELin1ELin1EEELi0ENS_11OuterStrideILin1EEEEELin1ELi1ELb1EEELin1ELi1ELb0EEEEENS0_13sub_assign_opIddEEEEvRT_RKT0_RKT1_, symObjAddr: 0x4B6A4, symBinAddr: 0x10004BE34, symSize: 0xB0 }
  - { offset: 0x15F0D5, size: 0x8, addend: 0x0, symName: __ZN5Eigen8internal9evaluatorINS_13CwiseBinaryOpINS0_17scalar_product_opIddEEKNS_14CwiseNullaryOpINS0_18scalar_constant_opIdEEKNS_6MatrixIdLin1ELi1ELi0ELin1ELi1EEEEEKNS_5BlockIKNSD_IKNS_3MapIKNS8_IdLin1ELin1ELi0ELin1ELin1EEELi0ENS_11OuterStrideILin1EEEEELin1ELi1ELb1EEELin1ELi1ELb0EEEEEED1Ev, symObjAddr: 0x4B684, symBinAddr: 0x10004BE14, symSize: 0x20 }
  - { offset: 0x15F119, size: 0x8, addend: 0x0, symName: __ZN5Eigen8internal16binary_evaluatorINS_13CwiseBinaryOpINS0_17scalar_product_opIddEEKNS_14CwiseNullaryOpINS0_18scalar_constant_opIdEEKNS_6MatrixIdLin1ELi1ELi0ELin1ELi1EEEEEKNS_5BlockIKNSD_IKNS_3MapIKNS8_IdLin1ELin1ELi0ELin1ELin1EEELi0ENS_11OuterStrideILin1EEEEELin1ELi1ELb1EEELin1ELi1ELb0EEEEENS0_10IndexBasedESQ_ddED2Ev, symObjAddr: 0x4B65C, symBinAddr: 0x10004BDEC, symSize: 0x28 }
  - { offset: 0x15F15D, size: 0x8, addend: 0x0, symName: __ZN5Eigen8internal16binary_evaluatorINS_13CwiseBinaryOpINS0_17scalar_product_opIddEEKNS_14CwiseNullaryOpINS0_18scalar_constant_opIdEEKNS_6MatrixIdLin1ELi1ELi0ELin1ELi1EEEEEKNS_5BlockIKNSD_IKNS_3MapIKNS8_IdLin1ELin1ELi0ELin1ELin1EEELi0ENS_11OuterStrideILin1EEEEELin1ELi1ELb1EEELin1ELi1ELb0EEEEENS0_10IndexBasedESQ_ddE4DataD1Ev, symObjAddr: 0x4B62C, symBinAddr: 0x10004BDBC, symSize: 0x30 }
  - { offset: 0x15F1A0, size: 0x8, addend: 0x0, symName: __ZN5Eigen8internal9evaluatorIKNS_5BlockIKNS2_IKNS_3MapIKNS_6MatrixIdLin1ELin1ELi0ELin1ELin1EEELi0ENS_11OuterStrideILin1EEEEELin1ELi1ELb1EEELin1ELi1ELb0EEEED1Ev, symObjAddr: 0x4B60C, symBinAddr: 0x10004BD9C, symSize: 0x20 }
  - { offset: 0x15F1E4, size: 0x8, addend: 0x0, symName: __ZN5Eigen8internal9evaluatorINS_5BlockIKNS2_IKNS_3MapIKNS_6MatrixIdLin1ELin1ELi0ELin1ELin1EEELi0ENS_11OuterStrideILin1EEEEELin1ELi1ELb1EEELin1ELi1ELb0EEEED2Ev, symObjAddr: 0x4B5EC, symBinAddr: 0x10004BD7C, symSize: 0x20 }
  - { offset: 0x15F228, size: 0x8, addend: 0x0, symName: __ZN5Eigen8internal15block_evaluatorIKNS_5BlockIKNS_3MapIKNS_6MatrixIdLin1ELin1ELi0ELin1ELin1EEELi0ENS_11OuterStrideILin1EEEEELin1ELi1ELb1EEELin1ELi1ELb0ELb1EED2Ev, symObjAddr: 0x4B5CC, symBinAddr: 0x10004BD5C, symSize: 0x20 }
  - { offset: 0x15F26C, size: 0x8, addend: 0x0, symName: __ZN5Eigen8internal17mapbase_evaluatorINS_5BlockIKNS2_IKNS_3MapIKNS_6MatrixIdLin1ELin1ELi0ELin1ELin1EEELi0ENS_11OuterStrideILin1EEEEELin1ELi1ELb1EEELin1ELi1ELb0EEENS4_IdLin1ELi1ELi0ELin1ELi1EEEED2Ev, symObjAddr: 0x4B5AC, symBinAddr: 0x10004BD3C, symSize: 0x20 }
  - { offset: 0x15F28E, size: 0x8, addend: 0x0, symName: __ZN5Eigen8internal18check_for_aliasingINS_3MapINS_6MatrixIdLin1ELi1ELi0ELin1ELi1EEELi0ENS_6StrideILi0ELi0EEEEENS_13CwiseBinaryOpINS0_17scalar_product_opIddEEKNS_14CwiseNullaryOpINS0_18scalar_constant_opIdEEKS4_EEKNS_5BlockIKNSH_IKNS2_IKNS3_IdLin1ELin1ELi0ELin1ELin1EEELi0ENS_11OuterStrideILin1EEEEELin1ELi1ELb1EEELin1ELi1ELb0EEEEEEEvRKT_RKT0_, symObjAddr: 0x4B594, symBinAddr: 0x10004BD24, symSize: 0x18 }
  - { offset: 0x15F33F, size: 0x8, addend: 0x0, symName: __ZN5Eigen8internal15BlockImpl_denseIKNS_5BlockIKNS_3MapIKNS_6MatrixIdLin1ELin1ELi0ELin1ELin1EEELi0ENS_11OuterStrideILin1EEEEELin1ELi1ELb1EEELin1ELi1ELb0ELb1EEC2ERSC_llll, symObjAddr: 0x4B4C4, symBinAddr: 0x10004BC54, symSize: 0xD0 }
  - { offset: 0x15F392, size: 0x8, addend: 0x0, symName: __ZN5Eigen8internal15BlockImpl_denseIKNS_3MapIKNS_6MatrixIdLin1ELin1ELi0ELin1ELin1EEELi0ENS_11OuterStrideILin1EEEEELin1ELi1ELb1ELb1EE4initEv, symObjAddr: 0x4B494, symBinAddr: 0x10004BC24, symSize: 0x30 }
  - { offset: 0x15F407, size: 0x8, addend: 0x0, symName: __ZN5Eigen7MapBaseINS_5BlockIKNS_3MapIKNS_6MatrixIdLin1ELin1ELi0ELin1ELin1EEELi0ENS_11OuterStrideILin1EEEEELin1ELi1ELb1EEELi0EEC2EPKdll, symObjAddr: 0x4B360, symBinAddr: 0x10004BAF0, symSize: 0x134 }
  - { offset: 0x15F476, size: 0x8, addend: 0x0, symName: __ZN5Eigen10MatrixBaseINS_5BlockIKNS_3MapIKNS_6MatrixIdLin1ELin1ELi0ELin1ELin1EEELi0ENS_11OuterStrideILin1EEEEELin1ELi1ELb1EEEEC2Ev, symObjAddr: 0x4B340, symBinAddr: 0x10004BAD0, symSize: 0x20 }
  - { offset: 0x15F498, size: 0x8, addend: 0x0, symName: __ZN5Eigen8internal26call_dense_assignment_loopINS_3MapINS_6MatrixIdLin1ELi1ELi0ELin1ELi1EEELi16ENS_6StrideILi0ELi0EEEEENS_5BlockIS4_Lin1ELi1ELb0EEENS0_9assign_opIddEEEEvRT_RKT0_RKT1_, symObjAddr: 0x4B290, symBinAddr: 0x10004BA20, symSize: 0xB0 }
  - { offset: 0x15F55D, size: 0x8, addend: 0x0, symName: __ZN5Eigen8internal18check_for_aliasingINS_3MapINS_6MatrixIdLin1ELi1ELi0ELin1ELi1EEELi16ENS_6StrideILi0ELi0EEEEENS_5BlockIS4_Lin1ELi1ELb0EEEEEvRKT_RKT0_, symObjAddr: 0x4B278, symBinAddr: 0x10004BA08, symSize: 0x18 }
  - { offset: 0x15F5AA, size: 0x8, addend: 0x0, symName: __ZN5Eigen8internal10AssignmentINS_5BlockINS_6MatrixIdLin1ELi1ELi0ELin1ELi1EEELin1ELi1ELb0EEES5_NS0_9assign_opIddEENS0_11Dense2DenseEvE3runERS5_RKS5_RKS7_, symObjAddr: 0x4B23C, symBinAddr: 0x10004B9CC, symSize: 0x3C }
  - { offset: 0x15F5F6, size: 0x8, addend: 0x0, symName: __ZN5Eigen8internal10AssignmentINS_3MapINS_6MatrixIdLin1ELi1ELi0ELin1ELi1EEELi0ENS_6StrideILi0ELi0EEEEENS2_IS4_Li16ES6_EENS0_9assign_opIddEENS0_11Dense2DenseEvE3runERS7_RKS8_RKSA_, symObjAddr: 0x4B200, symBinAddr: 0x10004B990, symSize: 0x3C }
  - { offset: 0x15F642, size: 0x8, addend: 0x0, symName: __ZN5Eigen8internal10AssignmentINS_3MapINS_6MatrixIdLin1ELi1ELi0ELin1ELi1EEELi16ENS_6StrideILi0ELi0EEEEENS2_IS4_Li0ES6_EENS0_9assign_opIddEENS0_11Dense2DenseEvE3runERS7_RKS8_RKSA_, symObjAddr: 0x4B1C4, symBinAddr: 0x10004B954, symSize: 0x3C }
  - { offset: 0x15F68E, size: 0x8, addend: 0x0, symName: __ZN5Eigen8internal26call_dense_assignment_loopINS_3MapINS_6MatrixIdLin1ELi1ELi0ELin1ELi1EEELi0ENS_6StrideILi0ELi0EEEEES7_NS0_9assign_opIddEEEEvRT_RKT0_RKT1_, symObjAddr: 0x4B114, symBinAddr: 0x10004B8A4, symSize: 0xB0 }
  - { offset: 0x15F775, size: 0x8, addend: 0x0, symName: __ZN5Eigen8internal9evaluatorINS_3MapINS_6MatrixIdLin1ELi1ELi0ELin1ELi1EEELi0ENS_6StrideILi0ELi0EEEEEED1Ev, symObjAddr: 0x4B0F4, symBinAddr: 0x10004B884, symSize: 0x20 }
  - { offset: 0x15F7B9, size: 0x8, addend: 0x0, symName: __ZN5Eigen8internal17mapbase_evaluatorINS_3MapINS_6MatrixIdLin1ELi1ELi0ELin1ELi1EEELi0ENS_6StrideILi0ELi0EEEEES4_ED2Ev, symObjAddr: 0x4B0D4, symBinAddr: 0x10004B864, symSize: 0x20 }
  - { offset: 0x15F7DB, size: 0x8, addend: 0x0, symName: __ZN5Eigen8internal18check_for_aliasingINS_3MapINS_6MatrixIdLin1ELi1ELi0ELin1ELi1EEELi0ENS_6StrideILi0ELi0EEEEES7_EEvRKT_RKT0_, symObjAddr: 0x4B0BC, symBinAddr: 0x10004B84C, symSize: 0x18 }
  - { offset: 0x15F82C, size: 0x8, addend: 0x0, symName: __ZNK5Eigen9DenseBaseINS_13CwiseBinaryOpINS_8internal17scalar_product_opIddEEKNS_9TransposeIKNS_5BlockIKNS6_IKNS_3MapINS_6MatrixIdLi3ELi3ELi0ELi3ELi3EEELi0ENS_11OuterStrideILin1EEEEELi1ELi3ELb0EEELi1ELi2ELb0EEEEEKNS6_INS7_INS8_IdLi3ELi1ELi0ELi3ELi1EEELi0ENS_6StrideILi0ELi0EEEEELi2ELi1ELb0EEEEEE5reduxINS2_13scalar_sum_opIddEEEEdRKT_, symObjAddr: 0x4AFA4, symBinAddr: 0x10004B734, symSize: 0x118 }
  - { offset: 0x15F8B6, size: 0x8, addend: 0x0, symName: __ZN5Eigen8internal15redux_evaluatorINS_13CwiseBinaryOpINS0_17scalar_product_opIddEEKNS_9TransposeIKNS_5BlockIKNS6_IKNS_3MapINS_6MatrixIdLi3ELi3ELi0ELi3ELi3EEELi0ENS_11OuterStrideILin1EEEEELi1ELi3ELb0EEELi1ELi2ELb0EEEEEKNS6_INS7_INS8_IdLi3ELi1ELi0ELi3ELi1EEELi0ENS_6StrideILi0ELi0EEEEELi2ELi1ELb0EEEEEED1Ev, symObjAddr: 0x4AF84, symBinAddr: 0x10004B714, symSize: 0x20 }
  - { offset: 0x15F8FA, size: 0x8, addend: 0x0, symName: __ZN5Eigen8internal9evaluatorINS_13CwiseBinaryOpINS0_17scalar_product_opIddEEKNS_9TransposeIKNS_5BlockIKNS6_IKNS_3MapINS_6MatrixIdLi3ELi3ELi0ELi3ELi3EEELi0ENS_11OuterStrideILin1EEEEELi1ELi3ELb0EEELi1ELi2ELb0EEEEEKNS6_INS7_INS8_IdLi3ELi1ELi0ELi3ELi1EEELi0ENS_6StrideILi0ELi0EEEEELi2ELi1ELb0EEEEEED2Ev, symObjAddr: 0x4AF64, symBinAddr: 0x10004B6F4, symSize: 0x20 }
  - { offset: 0x15F93E, size: 0x8, addend: 0x0, symName: __ZN5Eigen8internal16binary_evaluatorINS_13CwiseBinaryOpINS0_17scalar_product_opIddEEKNS_9TransposeIKNS_5BlockIKNS6_IKNS_3MapINS_6MatrixIdLi3ELi3ELi0ELi3ELi3EEELi0ENS_11OuterStrideILin1EEEEELi1ELi3ELb0EEELi1ELi2ELb0EEEEEKNS6_INS7_INS8_IdLi3ELi1ELi0ELi3ELi1EEELi0ENS_6StrideILi0ELi0EEEEELi2ELi1ELb0EEEEENS0_10IndexBasedESR_ddED2Ev, symObjAddr: 0x4AF3C, symBinAddr: 0x10004B6CC, symSize: 0x28 }
  - { offset: 0x15F982, size: 0x8, addend: 0x0, symName: __ZN5Eigen8internal16binary_evaluatorINS_13CwiseBinaryOpINS0_17scalar_product_opIddEEKNS_9TransposeIKNS_5BlockIKNS6_IKNS_3MapINS_6MatrixIdLi3ELi3ELi0ELi3ELi3EEELi0ENS_11OuterStrideILin1EEEEELi1ELi3ELb0EEELi1ELi2ELb0EEEEEKNS6_INS7_INS8_IdLi3ELi1ELi0ELi3ELi1EEELi0ENS_6StrideILi0ELi0EEEEELi2ELi1ELb0EEEEENS0_10IndexBasedESR_ddE4DataD1Ev, symObjAddr: 0x4AF0C, symBinAddr: 0x10004B69C, symSize: 0x30 }
  - { offset: 0x15F9C5, size: 0x8, addend: 0x0, symName: __ZN5Eigen8internal9evaluatorIKNS_5BlockINS_3MapINS_6MatrixIdLi3ELi1ELi0ELi3ELi1EEELi0ENS_6StrideILi0ELi0EEEEELi2ELi1ELb0EEEED1Ev, symObjAddr: 0x4AEEC, symBinAddr: 0x10004B67C, symSize: 0x20 }
  - { offset: 0x15FA09, size: 0x8, addend: 0x0, symName: __ZN5Eigen8internal9evaluatorINS_5BlockINS_3MapINS_6MatrixIdLi3ELi1ELi0ELi3ELi1EEELi0ENS_6StrideILi0ELi0EEEEELi2ELi1ELb0EEEED2Ev, symObjAddr: 0x4AECC, symBinAddr: 0x10004B65C, symSize: 0x20 }
  - { offset: 0x15FA4D, size: 0x8, addend: 0x0, symName: __ZN5Eigen8internal15block_evaluatorINS_3MapINS_6MatrixIdLi3ELi1ELi0ELi3ELi1EEELi0ENS_6StrideILi0ELi0EEEEELi2ELi1ELb0ELb1EED2Ev, symObjAddr: 0x4AEAC, symBinAddr: 0x10004B63C, symSize: 0x20 }
  - { offset: 0x15FA91, size: 0x8, addend: 0x0, symName: __ZN5Eigen8internal17mapbase_evaluatorINS_5BlockINS_3MapINS_6MatrixIdLi3ELi1ELi0ELi3ELi1EEELi0ENS_6StrideILi0ELi0EEEEELi2ELi1ELb0EEENS4_IdLi2ELi1ELi0ELi2ELi1EEEED2Ev, symObjAddr: 0x4AE8C, symBinAddr: 0x10004B61C, symSize: 0x20 }
  - { offset: 0x15FAD4, size: 0x8, addend: 0x0, symName: __ZN5Eigen8internal9evaluatorIKNS_9TransposeIKNS_5BlockIKNS3_IKNS_3MapINS_6MatrixIdLi3ELi3ELi0ELi3ELi3EEELi0ENS_11OuterStrideILin1EEEEELi1ELi3ELb0EEELi1ELi2ELb0EEEEEED1Ev, symObjAddr: 0x4AE6C, symBinAddr: 0x10004B5FC, symSize: 0x20 }
  - { offset: 0x15FB17, size: 0x8, addend: 0x0, symName: __ZN5Eigen8internal9evaluatorINS_9TransposeIKNS_5BlockIKNS3_IKNS_3MapINS_6MatrixIdLi3ELi3ELi0ELi3ELi3EEELi0ENS_11OuterStrideILin1EEEEELi1ELi3ELb0EEELi1ELi2ELb0EEEEEED2Ev, symObjAddr: 0x4AE4C, symBinAddr: 0x10004B5DC, symSize: 0x20 }
  - { offset: 0x15FB5B, size: 0x8, addend: 0x0, symName: __ZN5Eigen8internal15unary_evaluatorINS_9TransposeIKNS_5BlockIKNS3_IKNS_3MapINS_6MatrixIdLi3ELi3ELi0ELi3ELi3EEELi0ENS_11OuterStrideILin1EEEEELi1ELi3ELb0EEELi1ELi2ELb0EEEEENS0_10IndexBasedEdED2Ev, symObjAddr: 0x4AE24, symBinAddr: 0x10004B5B4, symSize: 0x28 }
  - { offset: 0x15FB9E, size: 0x8, addend: 0x0, symName: __ZN5Eigen8internal9evaluatorIKNS_5BlockIKNS2_IKNS_3MapINS_6MatrixIdLi3ELi3ELi0ELi3ELi3EEELi0ENS_11OuterStrideILin1EEEEELi1ELi3ELb0EEELi1ELi2ELb0EEEED1Ev, symObjAddr: 0x4AE04, symBinAddr: 0x10004B594, symSize: 0x20 }
  - { offset: 0x15FBE2, size: 0x8, addend: 0x0, symName: __ZN5Eigen8internal9evaluatorINS_5BlockIKNS2_IKNS_3MapINS_6MatrixIdLi3ELi3ELi0ELi3ELi3EEELi0ENS_11OuterStrideILin1EEEEELi1ELi3ELb0EEELi1ELi2ELb0EEEED2Ev, symObjAddr: 0x4ADE4, symBinAddr: 0x10004B574, symSize: 0x20 }
  - { offset: 0x15FC26, size: 0x8, addend: 0x0, symName: __ZN5Eigen8internal15block_evaluatorIKNS_5BlockIKNS_3MapINS_6MatrixIdLi3ELi3ELi0ELi3ELi3EEELi0ENS_11OuterStrideILin1EEEEELi1ELi3ELb0EEELi1ELi2ELb0ELb1EED2Ev, symObjAddr: 0x4ADC4, symBinAddr: 0x10004B554, symSize: 0x20 }
  - { offset: 0x15FC6A, size: 0x8, addend: 0x0, symName: __ZN5Eigen8internal17mapbase_evaluatorINS_5BlockIKNS2_IKNS_3MapINS_6MatrixIdLi3ELi3ELi0ELi3ELi3EEELi0ENS_11OuterStrideILin1EEEEELi1ELi3ELb0EEELi1ELi2ELb0EEENS4_IdLi1ELi2ELi1ELi1ELi2EEEED2Ev, symObjAddr: 0x4ADA4, symBinAddr: 0x10004B534, symSize: 0x20 }
  - { offset: 0x15FC90, size: 0x8, addend: 0x0, symName: __ZNK5Eigen9EigenBaseINS_13CwiseBinaryOpINS_8internal17scalar_product_opIddEEKNS_9TransposeIKNS_5BlockIKNS6_IKNS_3MapINS_6MatrixIdLi3ELi3ELi0ELi3ELi3EEELi0ENS_11OuterStrideILin1EEEEELi1ELi3ELb0EEELi1ELi2ELb0EEEEEKNS6_INS7_INS8_IdLi3ELi1ELi0ELi3ELi1EEELi0ENS_6StrideILi0ELi0EEEEELi2ELi1ELb0EEEEEE7derivedEv, symObjAddr: 0x4AD90, symBinAddr: 0x10004B520, symSize: 0x14 }
  - { offset: 0x15FD05, size: 0x8, addend: 0x0, symName: __ZN5Eigen13CwiseBinaryOpINS_8internal17scalar_product_opIddEEKNS_9TransposeIKNS_5BlockIKNS5_IKNS_3MapINS_6MatrixIdLi3ELi3ELi0ELi3ELi3EEELi0ENS_11OuterStrideILin1EEEEELi1ELi3ELb0EEELi1ELi2ELb0EEEEEKNS5_INS6_INS7_IdLi3ELi1ELi0ELi3ELi1EEELi0ENS_6StrideILi0ELi0EEEEELi2ELi1ELb0EEEEC1ERSI_RSO_RKS3_, symObjAddr: 0x4ACA0, symBinAddr: 0x10004B430, symSize: 0xF0 }
  - { offset: 0x15FD79, size: 0x8, addend: 0x0, symName: __ZN5Eigen5BlockINS_3MapINS_6MatrixIdLi3ELi1ELi0ELi3ELi1EEELi0ENS_6StrideILi0ELi0EEEEELi2ELi1ELb0EEC1ERKS7_, symObjAddr: 0x4AC78, symBinAddr: 0x10004B408, symSize: 0x28 }
  - { offset: 0x15FDC7, size: 0x8, addend: 0x0, symName: __ZN5Eigen9BlockImplINS_3MapINS_6MatrixIdLi3ELi1ELi0ELi3ELi1EEELi0ENS_6StrideILi0ELi0EEEEELi2ELi1ELb0ENS_5DenseEEC2ERKS8_, symObjAddr: 0x4AC50, symBinAddr: 0x10004B3E0, symSize: 0x28 }
  - { offset: 0x15FE15, size: 0x8, addend: 0x0, symName: __ZN5Eigen8internal15BlockImpl_denseINS_3MapINS_6MatrixIdLi3ELi1ELi0ELi3ELi1EEELi0ENS_6StrideILi0ELi0EEEEELi2ELi1ELb0ELb1EEC2ERKS8_, symObjAddr: 0x4ABC0, symBinAddr: 0x10004B350, symSize: 0x90 }
  - { offset: 0x15FE63, size: 0x8, addend: 0x0, symName: __ZN5Eigen9TransposeIKNS_5BlockIKNS1_IKNS_3MapINS_6MatrixIdLi3ELi3ELi0ELi3ELi3EEELi0ENS_11OuterStrideILin1EEEEELi1ELi3ELb0EEELi1ELi2ELb0EEEEC1ERKSD_, symObjAddr: 0x4AB98, symBinAddr: 0x10004B328, symSize: 0x28 }
  - { offset: 0x15FEBA, size: 0x8, addend: 0x0, symName: __ZN5Eigen17CwiseBinaryOpImplINS_8internal17scalar_product_opIddEEKNS_9TransposeIKNS_5BlockIKNS5_IKNS_3MapINS_6MatrixIdLi3ELi3ELi0ELi3ELi3EEELi0ENS_11OuterStrideILin1EEEEELi1ELi3ELb0EEELi1ELi2ELb0EEEEEKNS5_INS6_INS7_IdLi3ELi1ELi0ELi3ELi1EEELi0ENS_6StrideILi0ELi0EEEEELi2ELi1ELb0EEENS_5DenseEEC2Ev, symObjAddr: 0x4AB78, symBinAddr: 0x10004B308, symSize: 0x20 }
  - { offset: 0x15FEFA, size: 0x8, addend: 0x0, symName: __ZN5Eigen10MatrixBaseINS_13CwiseBinaryOpINS_8internal17scalar_product_opIddEEKNS_9TransposeIKNS_5BlockIKNS6_IKNS_3MapINS_6MatrixIdLi3ELi3ELi0ELi3ELi3EEELi0ENS_11OuterStrideILin1EEEEELi1ELi3ELb0EEELi1ELi2ELb0EEEEEKNS6_INS7_INS8_IdLi3ELi1ELi0ELi3ELi1EEELi0ENS_6StrideILi0ELi0EEEEELi2ELi1ELb0EEEEEEC2Ev, symObjAddr: 0x4AB58, symBinAddr: 0x10004B2E8, symSize: 0x20 }
  - { offset: 0x15FF20, size: 0x8, addend: 0x0, symName: __ZNK5Eigen9EigenBaseINS_5BlockINS_3MapINS_6MatrixIdLi3ELi1ELi0ELi3ELi1EEELi0ENS_6StrideILi0ELi0EEEEELi2ELi1ELb0EEEE7derivedEv, symObjAddr: 0x4AB44, symBinAddr: 0x10004B2D4, symSize: 0x14 }
  - { offset: 0x15FF4A, size: 0x8, addend: 0x0, symName: __ZNK5Eigen9EigenBaseINS_9TransposeIKNS_5BlockIKNS2_IKNS_3MapINS_6MatrixIdLi3ELi3ELi0ELi3ELi3EEELi0ENS_11OuterStrideILin1EEEEELi1ELi3ELb0EEELi1ELi2ELb0EEEEEE7derivedEv, symObjAddr: 0x4AB30, symBinAddr: 0x10004B2C0, symSize: 0x14 }
  - { offset: 0x15FFB5, size: 0x8, addend: 0x0, symName: __ZN5Eigen11VectorBlockINS_3MapINS_6MatrixIdLi3ELi1ELi0ELi3ELi1EEELi0ENS_6StrideILi0ELi0EEEEELi2EEC1ERS6_ll, symObjAddr: 0x4AAF0, symBinAddr: 0x10004B280, symSize: 0x40 }
  - { offset: 0x16001D, size: 0x8, addend: 0x0, symName: __ZN5Eigen9TransposeIKNS_5BlockIKNS1_IKNS_3MapINS_6MatrixIdLi3ELi3ELi0ELi3ELi3EEELi0ENS_11OuterStrideILin1EEEEELi1ELi3ELb0EEELi1ELi2ELb0EEEEC1ERSC_, symObjAddr: 0x4AAC0, symBinAddr: 0x10004B250, symSize: 0x30 }
  - { offset: 0x16006B, size: 0x8, addend: 0x0, symName: __ZN5Eigen5BlockIKNS0_IKNS_3MapINS_6MatrixIdLi3ELi3ELi0ELi3ELi3EEELi0ENS_11OuterStrideILin1EEEEELi1ELi3ELb0EEELi1ELi2ELb0EEC1ERKSA_, symObjAddr: 0x4AA98, symBinAddr: 0x10004B228, symSize: 0x28 }
  - { offset: 0x1600B9, size: 0x8, addend: 0x0, symName: __ZN5Eigen9BlockImplIKNS_5BlockIKNS_3MapINS_6MatrixIdLi3ELi3ELi0ELi3ELi3EEELi0ENS_11OuterStrideILin1EEEEELi1ELi3ELb0EEELi1ELi2ELb0ENS_5DenseEEC2ERKSC_, symObjAddr: 0x4AA70, symBinAddr: 0x10004B200, symSize: 0x28 }
  - { offset: 0x160107, size: 0x8, addend: 0x0, symName: __ZN5Eigen8internal15BlockImpl_denseIKNS_5BlockIKNS_3MapINS_6MatrixIdLi3ELi3ELi0ELi3ELi3EEELi0ENS_11OuterStrideILin1EEEEELi1ELi3ELb0EEELi1ELi2ELb0ELb1EEC2ERKSC_, symObjAddr: 0x4A9B8, symBinAddr: 0x10004B148, symSize: 0xB8 }
  - { offset: 0x160150, size: 0x8, addend: 0x0, symName: __ZN5Eigen13TransposeImplIKNS_5BlockIKNS1_IKNS_3MapINS_6MatrixIdLi3ELi3ELi0ELi3ELi3EEELi0ENS_11OuterStrideILin1EEEEELi1ELi3ELb0EEELi1ELi2ELb0EEENS_5DenseEEC2Ev, symObjAddr: 0x4A998, symBinAddr: 0x10004B128, symSize: 0x20 }
  - { offset: 0x160190, size: 0x8, addend: 0x0, symName: __ZN5Eigen10MatrixBaseINS_9TransposeIKNS_5BlockIKNS2_IKNS_3MapINS_6MatrixIdLi3ELi3ELi0ELi3ELi3EEELi0ENS_11OuterStrideILin1EEEEELi1ELi3ELb0EEELi1ELi2ELb0EEEEEEC2Ev, symObjAddr: 0x4A978, symBinAddr: 0x10004B108, symSize: 0x20 }
  - { offset: 0x1601B6, size: 0x8, addend: 0x0, symName: __ZNK5Eigen9EigenBaseINS_5BlockIKNS1_IKNS_3MapINS_6MatrixIdLi3ELi3ELi0ELi3ELi3EEELi0ENS_11OuterStrideILin1EEEEELi1ELi3ELb0EEELi1ELi2ELb0EEEE7derivedEv, symObjAddr: 0x4A964, symBinAddr: 0x10004B0F4, symSize: 0x14 }
  - { offset: 0x160221, size: 0x8, addend: 0x0, symName: __ZN5Eigen11VectorBlockIKNS_5BlockIKNS_3MapINS_6MatrixIdLi3ELi3ELi0ELi3ELi3EEELi0ENS_11OuterStrideILin1EEEEELi1ELi3ELb0EEELi2EEC1ERSA_ll, symObjAddr: 0x4A924, symBinAddr: 0x10004B0B4, symSize: 0x40 }
  - { offset: 0x16025E, size: 0x8, addend: 0x0, symName: __ZN5Eigen8internal10redux_implINS0_13scalar_sum_opIddEENS0_15redux_evaluatorINS_13CwiseBinaryOpINS0_17scalar_product_opIddEEKNS_9TransposeIKNS_5BlockIKNS9_IKNS_3MapINS_6MatrixIdLi3ELi3ELi0ELi3ELi3EEELi0ENS_11OuterStrideILin1EEEEELi1ELi3ELb0EEELi1ELi1ELb0EEEEEKNS9_INSA_INSB_IdLi3ELi1ELi0ELi3ELi1EEELi0ENS_6StrideILi0ELi0EEEEELi1ELi1ELb0EEEEEEELi0ELi2EE3runIST_EEdRKSU_RKS3_RKT_, symObjAddr: 0x4A8F4, symBinAddr: 0x10004B084, symSize: 0x30 }
  - { offset: 0x1602C7, size: 0x8, addend: 0x0, symName: __ZN5Eigen8internal14evaluator_baseINS_5BlockINS_3MapINS_6MatrixIdLi3ELi1ELi0ELi3ELi1EEELi0ENS_6StrideILi0ELi0EEEEELi1ELi1ELb0EEEED2Ev, symObjAddr: 0x4A8E0, symBinAddr: 0x10004B070, symSize: 0x14 }
  - { offset: 0x160307, size: 0x8, addend: 0x0, symName: __ZN5Eigen8internal14evaluator_baseINS_5BlockIKNS2_IKNS_3MapINS_6MatrixIdLi3ELi3ELi0ELi3ELi3EEELi0ENS_11OuterStrideILin1EEEEELi1ELi3ELb0EEELi1ELi1ELb0EEEED2Ev, symObjAddr: 0x4A8CC, symBinAddr: 0x10004B05C, symSize: 0x14 }
  - { offset: 0x160347, size: 0x8, addend: 0x0, symName: __ZN5Eigen8internal14evaluator_baseINS_9TransposeIKNS_5BlockIKNS3_IKNS_3MapINS_6MatrixIdLi3ELi3ELi0ELi3ELi3EEELi0ENS_11OuterStrideILin1EEEEELi1ELi3ELb0EEELi1ELi1ELb0EEEEEED2Ev, symObjAddr: 0x4A8B8, symBinAddr: 0x10004B048, symSize: 0x14 }
  - { offset: 0x160387, size: 0x8, addend: 0x0, symName: __ZN5Eigen8internal14evaluator_baseINS_13CwiseBinaryOpINS0_17scalar_product_opIddEEKNS_9TransposeIKNS_5BlockIKNS6_IKNS_3MapINS_6MatrixIdLi3ELi3ELi0ELi3ELi3EEELi0ENS_11OuterStrideILin1EEEEELi1ELi3ELb0EEELi1ELi1ELb0EEEEEKNS6_INS7_INS8_IdLi3ELi1ELi0ELi3ELi1EEELi0ENS_6StrideILi0ELi0EEEEELi1ELi1ELb0EEEEEED2Ev, symObjAddr: 0x4A8A4, symBinAddr: 0x10004B034, symSize: 0x14 }
  - { offset: 0x1603D5, size: 0x8, addend: 0x0, symName: __ZN5Eigen8internal15redux_evaluatorINS_13CwiseBinaryOpINS0_17scalar_product_opIddEEKNS_9TransposeIKNS_5BlockIKNS6_IKNS_3MapINS_6MatrixIdLi3ELi3ELi0ELi3ELi3EEELi0ENS_11OuterStrideILin1EEEEELi1ELi3ELb0EEELi1ELi1ELb0EEEEEKNS6_INS7_INS8_IdLi3ELi1ELi0ELi3ELi1EEELi0ENS_6StrideILi0ELi0EEEEELi1ELi1ELb0EEEEEEC1ERKSQ_, symObjAddr: 0x4A87C, symBinAddr: 0x10004B00C, symSize: 0x28 }
  - { offset: 0x160404, size: 0x8, addend: 0x0, symName: __ZNK5Eigen9EigenBaseINS_13CwiseBinaryOpINS_8internal17scalar_product_opIddEEKNS_9TransposeIKNS_5BlockIKNS6_IKNS_3MapINS_6MatrixIdLi3ELi3ELi0ELi3ELi3EEELi0ENS_11OuterStrideILin1EEEEELi1ELi3ELb0EEELi1ELi1ELb0EEEEEKNS6_INS7_INS8_IdLi3ELi1ELi0ELi3ELi1EEELi0ENS_6StrideILi0ELi0EEEEELi1ELi1ELb0EEEEEE4colsEv, symObjAddr: 0x4A85C, symBinAddr: 0x10004AFEC, symSize: 0x20 }
  - { offset: 0x16042E, size: 0x8, addend: 0x0, symName: __ZNK5Eigen9EigenBaseINS_13CwiseBinaryOpINS_8internal17scalar_product_opIddEEKNS_9TransposeIKNS_5BlockIKNS6_IKNS_3MapINS_6MatrixIdLi3ELi3ELi0ELi3ELi3EEELi0ENS_11OuterStrideILin1EEEEELi1ELi3ELb0EEELi1ELi1ELb0EEEEEKNS6_INS7_INS8_IdLi3ELi1ELi0ELi3ELi1EEELi0ENS_6StrideILi0ELi0EEEEELi1ELi1ELb0EEEEEE4rowsEv, symObjAddr: 0x4A83C, symBinAddr: 0x10004AFCC, symSize: 0x20 }
  - { offset: 0x160458, size: 0x8, addend: 0x0, symName: __ZNK5Eigen7MapBaseINS_5BlockINS_3MapINS_6MatrixIdLi3ELi1ELi0ELi3ELi1EEELi0ENS_6StrideILi0ELi0EEEEELi1ELi1ELb0EEELi0EE4colsEv, symObjAddr: 0x4A824, symBinAddr: 0x10004AFB4, symSize: 0x18 }
  - { offset: 0x160482, size: 0x8, addend: 0x0, symName: __ZNK5Eigen9TransposeIKNS_5BlockIKNS1_IKNS_3MapINS_6MatrixIdLi3ELi3ELi0ELi3ELi3EEELi0ENS_11OuterStrideILin1EEEEELi1ELi3ELb0EEELi1ELi1ELb0EEEE4colsEv, symObjAddr: 0x4A808, symBinAddr: 0x10004AF98, symSize: 0x1C }
  - { offset: 0x1604AC, size: 0x8, addend: 0x0, symName: __ZNK5Eigen7MapBaseINS_5BlockINS_3MapINS_6MatrixIdLi3ELi1ELi0ELi3ELi1EEELi0ENS_6StrideILi0ELi0EEEEELi1ELi1ELb0EEELi0EE4rowsEv, symObjAddr: 0x4A7F0, symBinAddr: 0x10004AF80, symSize: 0x18 }
  - { offset: 0x1604D6, size: 0x8, addend: 0x0, symName: __ZNK5Eigen9TransposeIKNS_5BlockIKNS1_IKNS_3MapINS_6MatrixIdLi3ELi3ELi0ELi3ELi3EEELi0ENS_11OuterStrideILin1EEEEELi1ELi3ELb0EEELi1ELi1ELb0EEEE4rowsEv, symObjAddr: 0x4A7D4, symBinAddr: 0x10004AF64, symSize: 0x1C }
  - { offset: 0x16051A, size: 0x8, addend: 0x0, symName: __ZN5Eigen9DenseBaseINS_13CwiseBinaryOpINS_8internal17scalar_product_opIddEEKNS_9TransposeIKNS_5BlockIKNS6_IKNS_3MapINS_6MatrixIdLi3ELi3ELi0ELi3ELi3EEELi0ENS_11OuterStrideILin1EEEEELi1ELi3ELb0EEELi1ELi1ELb0EEEEEKNS6_INS7_INS8_IdLi3ELi1ELi0ELi3ELi1EEELi0ENS_6StrideILi0ELi0EEEEELi1ELi1ELb0EEEEEEC2Ev, symObjAddr: 0x4A7C0, symBinAddr: 0x10004AF50, symSize: 0x14 }
  - { offset: 0x1605A5, size: 0x8, addend: 0x0, symName: __ZN5Eigen5BlockINS_3MapINS_6MatrixIdLi3ELi1ELi0ELi3ELi1EEELi0ENS_6StrideILi0ELi0EEEEELi1ELi1ELb0EEC2ERS6_llll, symObjAddr: 0x4A5B0, symBinAddr: 0x10004AD40, symSize: 0x210 }
  - { offset: 0x160626, size: 0x8, addend: 0x0, symName: __ZN5Eigen9DenseBaseINS_9TransposeIKNS_5BlockIKNS2_IKNS_3MapINS_6MatrixIdLi3ELi3ELi0ELi3ELi3EEELi0ENS_11OuterStrideILin1EEEEELi1ELi3ELb0EEELi1ELi1ELb0EEEEEEC2Ev, symObjAddr: 0x4A59C, symBinAddr: 0x10004AD2C, symSize: 0x14 }
  - { offset: 0x1606B1, size: 0x8, addend: 0x0, symName: __ZN5Eigen5BlockIKNS0_IKNS_3MapINS_6MatrixIdLi3ELi3ELi0ELi3ELi3EEELi0ENS_11OuterStrideILin1EEEEELi1ELi3ELb0EEELi1ELi1ELb0EEC2ERS9_llll, symObjAddr: 0x4A38C, symBinAddr: 0x10004AB1C, symSize: 0x210 }
  - { offset: 0x160718, size: 0x8, addend: 0x0, symName: __ZNK5Eigen3MapINS_6MatrixIdLi3ELi3ELi0ELi3ELi3EEELi0ENS_11OuterStrideILin1EEEE11outerStrideEv, symObjAddr: 0x4A36C, symBinAddr: 0x10004AAFC, symSize: 0x20 }
  - { offset: 0x160742, size: 0x8, addend: 0x0, symName: __ZNK5Eigen3MapINS_6MatrixIdLi3ELi3ELi0ELi3ELi3EEELi0ENS_11OuterStrideILin1EEEE11innerStrideEv, symObjAddr: 0x4A358, symBinAddr: 0x10004AAE8, symSize: 0x14 }
  - { offset: 0x16076C, size: 0x8, addend: 0x0, symName: __ZNK5Eigen7MapBaseINS_5BlockIKNS_3MapINS_6MatrixIdLi3ELi3ELi0ELi3ELi3EEELi0ENS_11OuterStrideILin1EEEEELi1ELi3ELb0EEELi0EE4colsEv, symObjAddr: 0x4A340, symBinAddr: 0x10004AAD0, symSize: 0x18 }
  - { offset: 0x160796, size: 0x8, addend: 0x0, symName: __ZNK5Eigen7MapBaseINS_5BlockIKNS_3MapINS_6MatrixIdLi3ELi3ELi0ELi3ELi3EEELi0ENS_11OuterStrideILin1EEEEELi1ELi3ELb0EEELi0EE4rowsEv, symObjAddr: 0x4A328, symBinAddr: 0x10004AAB8, symSize: 0x18 }
  - { offset: 0x1607F6, size: 0x8, addend: 0x0, symName: __ZN5Eigen8internal15BlockImpl_denseIKNS_3MapINS_6MatrixIdLi3ELi3ELi0ELi3ELi3EEELi0ENS_11OuterStrideILin1EEEEELi1ELi3ELb0ELb1EEC2ERS8_l, symObjAddr: 0x4A280, symBinAddr: 0x10004AA10, symSize: 0xA8 }
  - { offset: 0x16082A, size: 0x8, addend: 0x0, symName: __ZN5Eigen8internal26call_dense_assignment_loopINS_3MapINS_6MatrixIdLi3ELi1ELi0ELi3ELi1EEELi0ENS_6StrideILi0ELi0EEEEES7_NS0_9assign_opIddEEEEvRT_RKT0_RKT1_, symObjAddr: 0x4A1D0, symBinAddr: 0x10004A960, symSize: 0xB0 }
  - { offset: 0x160910, size: 0x8, addend: 0x0, symName: __ZN5Eigen8internal9evaluatorINS_3MapINS_6MatrixIdLi3ELi1ELi0ELi3ELi1EEELi0ENS_6StrideILi0ELi0EEEEEED1Ev, symObjAddr: 0x4A1B0, symBinAddr: 0x10004A940, symSize: 0x20 }
  - { offset: 0x160954, size: 0x8, addend: 0x0, symName: __ZN5Eigen8internal17mapbase_evaluatorINS_3MapINS_6MatrixIdLi3ELi1ELi0ELi3ELi1EEELi0ENS_6StrideILi0ELi0EEEEES4_ED2Ev, symObjAddr: 0x4A190, symBinAddr: 0x10004A920, symSize: 0x20 }
  - { offset: 0x160976, size: 0x8, addend: 0x0, symName: __ZN5Eigen8internal18check_for_aliasingINS_3MapINS_6MatrixIdLi3ELi1ELi0ELi3ELi1EEELi0ENS_6StrideILi0ELi0EEEEES7_EEvRKT_RKT0_, symObjAddr: 0x4A178, symBinAddr: 0x10004A908, symSize: 0x18 }
  - { offset: 0x1609C3, size: 0x8, addend: 0x0, symName: __ZN5Eigen8internal10redux_implINS0_13scalar_sum_opIddEENS0_15redux_evaluatorINS_13CwiseBinaryOpINS0_17scalar_product_opIddEEKNS_9TransposeIKNS_5BlockIKNS9_IKNS_3MapINS_6MatrixIdLi2ELi2ELi0ELi2ELi2EEELi0ENS_11OuterStrideILin1EEEEELi1ELi2ELb0EEELi1ELi1ELb0EEEEEKNS9_INSA_INSB_IdLi2ELi1ELi0ELi2ELi1EEELi0ENS_6StrideILi0ELi0EEEEELi1ELi1ELb0EEEEEEELi0ELi2EE3runIST_EEdRKSU_RKS3_RKT_, symObjAddr: 0x4A148, symBinAddr: 0x10004A8D8, symSize: 0x30 }
  - { offset: 0x160A2C, size: 0x8, addend: 0x0, symName: __ZN5Eigen8internal14evaluator_baseINS_5BlockINS_3MapINS_6MatrixIdLi2ELi1ELi0ELi2ELi1EEELi0ENS_6StrideILi0ELi0EEEEELi1ELi1ELb0EEEED2Ev, symObjAddr: 0x4A134, symBinAddr: 0x10004A8C4, symSize: 0x14 }
  - { offset: 0x160A6C, size: 0x8, addend: 0x0, symName: __ZN5Eigen8internal14evaluator_baseINS_5BlockIKNS2_IKNS_3MapINS_6MatrixIdLi2ELi2ELi0ELi2ELi2EEELi0ENS_11OuterStrideILin1EEEEELi1ELi2ELb0EEELi1ELi1ELb0EEEED2Ev, symObjAddr: 0x4A120, symBinAddr: 0x10004A8B0, symSize: 0x14 }
  - { offset: 0x160AAC, size: 0x8, addend: 0x0, symName: __ZN5Eigen8internal14evaluator_baseINS_9TransposeIKNS_5BlockIKNS3_IKNS_3MapINS_6MatrixIdLi2ELi2ELi0ELi2ELi2EEELi0ENS_11OuterStrideILin1EEEEELi1ELi2ELb0EEELi1ELi1ELb0EEEEEED2Ev, symObjAddr: 0x4A10C, symBinAddr: 0x10004A89C, symSize: 0x14 }
  - { offset: 0x160AEC, size: 0x8, addend: 0x0, symName: __ZN5Eigen8internal14evaluator_baseINS_13CwiseBinaryOpINS0_17scalar_product_opIddEEKNS_9TransposeIKNS_5BlockIKNS6_IKNS_3MapINS_6MatrixIdLi2ELi2ELi0ELi2ELi2EEELi0ENS_11OuterStrideILin1EEEEELi1ELi2ELb0EEELi1ELi1ELb0EEEEEKNS6_INS7_INS8_IdLi2ELi1ELi0ELi2ELi1EEELi0ENS_6StrideILi0ELi0EEEEELi1ELi1ELb0EEEEEED2Ev, symObjAddr: 0x4A0F8, symBinAddr: 0x10004A888, symSize: 0x14 }
  - { offset: 0x160B3A, size: 0x8, addend: 0x0, symName: __ZN5Eigen8internal15redux_evaluatorINS_13CwiseBinaryOpINS0_17scalar_product_opIddEEKNS_9TransposeIKNS_5BlockIKNS6_IKNS_3MapINS_6MatrixIdLi2ELi2ELi0ELi2ELi2EEELi0ENS_11OuterStrideILin1EEEEELi1ELi2ELb0EEELi1ELi1ELb0EEEEEKNS6_INS7_INS8_IdLi2ELi1ELi0ELi2ELi1EEELi0ENS_6StrideILi0ELi0EEEEELi1ELi1ELb0EEEEEEC1ERKSQ_, symObjAddr: 0x4A0D0, symBinAddr: 0x10004A860, symSize: 0x28 }
  - { offset: 0x160B69, size: 0x8, addend: 0x0, symName: __ZNK5Eigen9EigenBaseINS_13CwiseBinaryOpINS_8internal17scalar_product_opIddEEKNS_9TransposeIKNS_5BlockIKNS6_IKNS_3MapINS_6MatrixIdLi2ELi2ELi0ELi2ELi2EEELi0ENS_11OuterStrideILin1EEEEELi1ELi2ELb0EEELi1ELi1ELb0EEEEEKNS6_INS7_INS8_IdLi2ELi1ELi0ELi2ELi1EEELi0ENS_6StrideILi0ELi0EEEEELi1ELi1ELb0EEEEEE4colsEv, symObjAddr: 0x4A0B0, symBinAddr: 0x10004A840, symSize: 0x20 }
  - { offset: 0x160B93, size: 0x8, addend: 0x0, symName: __ZNK5Eigen9EigenBaseINS_13CwiseBinaryOpINS_8internal17scalar_product_opIddEEKNS_9TransposeIKNS_5BlockIKNS6_IKNS_3MapINS_6MatrixIdLi2ELi2ELi0ELi2ELi2EEELi0ENS_11OuterStrideILin1EEEEELi1ELi2ELb0EEELi1ELi1ELb0EEEEEKNS6_INS7_INS8_IdLi2ELi1ELi0ELi2ELi1EEELi0ENS_6StrideILi0ELi0EEEEELi1ELi1ELb0EEEEEE4rowsEv, symObjAddr: 0x4A090, symBinAddr: 0x10004A820, symSize: 0x20 }
  - { offset: 0x160BBD, size: 0x8, addend: 0x0, symName: __ZNK5Eigen7MapBaseINS_5BlockINS_3MapINS_6MatrixIdLi2ELi1ELi0ELi2ELi1EEELi0ENS_6StrideILi0ELi0EEEEELi1ELi1ELb0EEELi0EE4colsEv, symObjAddr: 0x4A078, symBinAddr: 0x10004A808, symSize: 0x18 }
  - { offset: 0x160BE7, size: 0x8, addend: 0x0, symName: __ZNK5Eigen9TransposeIKNS_5BlockIKNS1_IKNS_3MapINS_6MatrixIdLi2ELi2ELi0ELi2ELi2EEELi0ENS_11OuterStrideILin1EEEEELi1ELi2ELb0EEELi1ELi1ELb0EEEE4colsEv, symObjAddr: 0x4A05C, symBinAddr: 0x10004A7EC, symSize: 0x1C }
  - { offset: 0x160C11, size: 0x8, addend: 0x0, symName: __ZNK5Eigen7MapBaseINS_5BlockINS_3MapINS_6MatrixIdLi2ELi1ELi0ELi2ELi1EEELi0ENS_6StrideILi0ELi0EEEEELi1ELi1ELb0EEELi0EE4rowsEv, symObjAddr: 0x4A044, symBinAddr: 0x10004A7D4, symSize: 0x18 }
  - { offset: 0x160C3B, size: 0x8, addend: 0x0, symName: __ZNK5Eigen9TransposeIKNS_5BlockIKNS1_IKNS_3MapINS_6MatrixIdLi2ELi2ELi0ELi2ELi2EEELi0ENS_11OuterStrideILin1EEEEELi1ELi2ELb0EEELi1ELi1ELb0EEEE4rowsEv, symObjAddr: 0x4A028, symBinAddr: 0x10004A7B8, symSize: 0x1C }
  - { offset: 0x160C7F, size: 0x8, addend: 0x0, symName: __ZN5Eigen9DenseBaseINS_13CwiseBinaryOpINS_8internal17scalar_product_opIddEEKNS_9TransposeIKNS_5BlockIKNS6_IKNS_3MapINS_6MatrixIdLi2ELi2ELi0ELi2ELi2EEELi0ENS_11OuterStrideILin1EEEEELi1ELi2ELb0EEELi1ELi1ELb0EEEEEKNS6_INS7_INS8_IdLi2ELi1ELi0ELi2ELi1EEELi0ENS_6StrideILi0ELi0EEEEELi1ELi1ELb0EEEEEEC2Ev, symObjAddr: 0x4A014, symBinAddr: 0x10004A7A4, symSize: 0x14 }
  - { offset: 0x160D0A, size: 0x8, addend: 0x0, symName: __ZN5Eigen5BlockINS_3MapINS_6MatrixIdLi2ELi1ELi0ELi2ELi1EEELi0ENS_6StrideILi0ELi0EEEEELi1ELi1ELb0EEC2ERS6_llll, symObjAddr: 0x49E04, symBinAddr: 0x10004A594, symSize: 0x210 }
  - { offset: 0x160D8B, size: 0x8, addend: 0x0, symName: __ZN5Eigen9DenseBaseINS_9TransposeIKNS_5BlockIKNS2_IKNS_3MapINS_6MatrixIdLi2ELi2ELi0ELi2ELi2EEELi0ENS_11OuterStrideILin1EEEEELi1ELi2ELb0EEELi1ELi1ELb0EEEEEEC2Ev, symObjAddr: 0x49DF0, symBinAddr: 0x10004A580, symSize: 0x14 }
  - { offset: 0x160E16, size: 0x8, addend: 0x0, symName: __ZN5Eigen5BlockIKNS0_IKNS_3MapINS_6MatrixIdLi2ELi2ELi0ELi2ELi2EEELi0ENS_11OuterStrideILin1EEEEELi1ELi2ELb0EEELi1ELi1ELb0EEC2ERS9_llll, symObjAddr: 0x49BE0, symBinAddr: 0x10004A370, symSize: 0x210 }
  - { offset: 0x160E7D, size: 0x8, addend: 0x0, symName: __ZNK5Eigen3MapINS_6MatrixIdLi2ELi2ELi0ELi2ELi2EEELi0ENS_11OuterStrideILin1EEEE11outerStrideEv, symObjAddr: 0x49BC0, symBinAddr: 0x10004A350, symSize: 0x20 }
  - { offset: 0x160EA7, size: 0x8, addend: 0x0, symName: __ZNK5Eigen3MapINS_6MatrixIdLi2ELi2ELi0ELi2ELi2EEELi0ENS_11OuterStrideILin1EEEE11innerStrideEv, symObjAddr: 0x49BAC, symBinAddr: 0x10004A33C, symSize: 0x14 }
  - { offset: 0x160ED1, size: 0x8, addend: 0x0, symName: __ZNK5Eigen7MapBaseINS_5BlockIKNS_3MapINS_6MatrixIdLi2ELi2ELi0ELi2ELi2EEELi0ENS_11OuterStrideILin1EEEEELi1ELi2ELb0EEELi0EE4colsEv, symObjAddr: 0x49B94, symBinAddr: 0x10004A324, symSize: 0x18 }
  - { offset: 0x160EFB, size: 0x8, addend: 0x0, symName: __ZNK5Eigen7MapBaseINS_5BlockIKNS_3MapINS_6MatrixIdLi2ELi2ELi0ELi2ELi2EEELi0ENS_11OuterStrideILin1EEEEELi1ELi2ELb0EEELi0EE4rowsEv, symObjAddr: 0x49B7C, symBinAddr: 0x10004A30C, symSize: 0x18 }
  - { offset: 0x160F5B, size: 0x8, addend: 0x0, symName: __ZN5Eigen8internal15BlockImpl_denseIKNS_3MapINS_6MatrixIdLi2ELi2ELi0ELi2ELi2EEELi0ENS_11OuterStrideILin1EEEEELi1ELi2ELb0ELb1EEC2ERS8_l, symObjAddr: 0x49AD4, symBinAddr: 0x10004A264, symSize: 0xA8 }
  - { offset: 0x160F8F, size: 0x8, addend: 0x0, symName: __ZN5Eigen8internal26call_dense_assignment_loopINS_3MapINS_6MatrixIdLi2ELi1ELi0ELi2ELi1EEELi0ENS_6StrideILi0ELi0EEEEES7_NS0_9assign_opIddEEEEvRT_RKT0_RKT1_, symObjAddr: 0x49A24, symBinAddr: 0x10004A1B4, symSize: 0xB0 }
  - { offset: 0x161075, size: 0x8, addend: 0x0, symName: __ZN5Eigen8internal9evaluatorINS_3MapINS_6MatrixIdLi2ELi1ELi0ELi2ELi1EEELi0ENS_6StrideILi0ELi0EEEEEED1Ev, symObjAddr: 0x49A04, symBinAddr: 0x10004A194, symSize: 0x20 }
  - { offset: 0x1610B9, size: 0x8, addend: 0x0, symName: __ZN5Eigen8internal17mapbase_evaluatorINS_3MapINS_6MatrixIdLi2ELi1ELi0ELi2ELi1EEELi0ENS_6StrideILi0ELi0EEEEES4_ED2Ev, symObjAddr: 0x499E4, symBinAddr: 0x10004A174, symSize: 0x20 }
  - { offset: 0x1610DB, size: 0x8, addend: 0x0, symName: __ZN5Eigen8internal18check_for_aliasingINS_3MapINS_6MatrixIdLi2ELi1ELi0ELi2ELi1EEELi0ENS_6StrideILi0ELi0EEEEES7_EEvRKT_RKT0_, symObjAddr: 0x499CC, symBinAddr: 0x10004A15C, symSize: 0x18 }
  - { offset: 0x16112C, size: 0x8, addend: 0x0, symName: __ZNK5Eigen9EigenBaseINS_3MapIKNS_6MatrixIdLin1ELi1ELi0ELin1ELi1EEELi16ENS_6StrideILi0ELi0EEEEEE4colsEv, symObjAddr: 0x499AC, symBinAddr: 0x10004A13C, symSize: 0x20 }
  - { offset: 0x161156, size: 0x8, addend: 0x0, symName: __ZNK5Eigen9EigenBaseINS_3MapIKNS_6MatrixIdLin1ELi1ELi0ELin1ELi1EEELi16ENS_6StrideILi0ELi0EEEEEE4rowsEv, symObjAddr: 0x4998C, symBinAddr: 0x10004A11C, symSize: 0x20 }
  - { offset: 0x16117C, size: 0x8, addend: 0x0, symName: __ZN5Eigen8internal21dense_assignment_loopINS0_31generic_dense_assignment_kernelINS0_9evaluatorINS_3MapINS_6MatrixIdLin1ELin1ELi0ELin1ELin1EEELi16ENS_11OuterStrideILin1EEEEEEESA_NS0_9assign_opIddEELi0EEELi4ELi0EE3runERSD_, symObjAddr: 0x49810, symBinAddr: 0x100049FA0, symSize: 0x17C }
  - { offset: 0x161330, size: 0x8, addend: 0x0, symName: __ZNK5Eigen8internal31generic_dense_assignment_kernelINS0_9evaluatorINS_3MapINS_6MatrixIdLin1ELin1ELi0ELin1ELin1EEELi16ENS_11OuterStrideILin1EEEEEEES9_NS0_9assign_opIddEELi0EE11outerStrideEv, symObjAddr: 0x497F0, symBinAddr: 0x100049F80, symSize: 0x20 }
  - { offset: 0x16135A, size: 0x8, addend: 0x0, symName: __ZNK5Eigen8internal31generic_dense_assignment_kernelINS0_9evaluatorINS_3MapINS_6MatrixIdLin1ELin1ELi0ELin1ELin1EEELi16ENS_11OuterStrideILin1EEEEEEES9_NS0_9assign_opIddEELi0EE9outerSizeEv, symObjAddr: 0x497D0, symBinAddr: 0x100049F60, symSize: 0x20 }
  - { offset: 0x161384, size: 0x8, addend: 0x0, symName: __ZNK5Eigen8internal31generic_dense_assignment_kernelINS0_9evaluatorINS_3MapINS_6MatrixIdLin1ELin1ELi0ELin1ELin1EEELi16ENS_11OuterStrideILin1EEEEEEES9_NS0_9assign_opIddEELi0EE9innerSizeEv, symObjAddr: 0x497B0, symBinAddr: 0x100049F40, symSize: 0x20 }
  - { offset: 0x161400, size: 0x8, addend: 0x0, symName: __ZN5Eigen8internal31generic_dense_assignment_kernelINS0_9evaluatorINS_3MapINS_6MatrixIdLin1ELin1ELi0ELin1ELin1EEELi16ENS_11OuterStrideILin1EEEEEEES9_NS0_9assign_opIddEELi0EEC1ERS9_RKS9_RKSB_RS8_, symObjAddr: 0x4975C, symBinAddr: 0x100049EEC, symSize: 0x54 }
  - { offset: 0x161446, size: 0x8, addend: 0x0, symName: __ZN5Eigen8internal17resize_if_allowedINS_3MapINS_6MatrixIdLin1ELin1ELi0ELin1ELin1EEELi16ENS_11OuterStrideILin1EEEEES7_ddEEvRT_RKT0_RKNS0_9assign_opIT1_T2_EE, symObjAddr: 0x49644, symBinAddr: 0x100049DD4, symSize: 0x118 }
  - { offset: 0x1614DA, size: 0x8, addend: 0x0, symName: __ZN5Eigen8internal27checkTransposeAliasing_implINS_3MapINS_6MatrixIdLin1ELin1ELi0ELin1ELin1EEELi16ENS_11OuterStrideILin1EEEEES7_Lb0EE3runERKS7_SA_, symObjAddr: 0x4962C, symBinAddr: 0x100049DBC, symSize: 0x18 }
  - { offset: 0x161531, size: 0x8, addend: 0x0, symName: __ZN5Eigen8internal16binary_evaluatorINS_13CwiseBinaryOpINS0_17scalar_product_opIddEEKNS_12CwiseUnaryOpINS0_18scalar_opposite_opIdEEKNS2_INS0_20scalar_difference_opIddEEKNS_12ArrayWrapperINS_6MatrixIdLin1ELi1ELi0ELin1ELi1EEEEEKNS_14CwiseNullaryOpINS0_18scalar_constant_opIdEEKNS_5ArrayIdLin1ELi1ELi0ELin1ELi1EEEEEEEEESO_EENS0_10IndexBasedESS_ddE4DataC1ERKSR_, symObjAddr: 0x495A0, symBinAddr: 0x100049D30, symSize: 0x8C }
  - { offset: 0x16157A, size: 0x8, addend: 0x0, symName: __ZN5Eigen8internal14evaluator_baseINS_13CwiseBinaryOpINS0_17scalar_product_opIddEEKNS_12CwiseUnaryOpINS0_18scalar_opposite_opIdEEKNS2_INS0_20scalar_difference_opIddEEKNS_12ArrayWrapperINS_6MatrixIdLin1ELi1ELi0ELin1ELi1EEEEEKNS_14CwiseNullaryOpINS0_18scalar_constant_opIdEEKNS_5ArrayIdLin1ELi1ELi0ELin1ELi1EEEEEEEEESO_EEEC2Ev, symObjAddr: 0x4958C, symBinAddr: 0x100049D1C, symSize: 0x14 }
  - { offset: 0x1615C8, size: 0x8, addend: 0x0, symName: __ZN5Eigen8internal22evaluator_wrapper_baseINS_12ArrayWrapperINS_6MatrixIdLin1ELi1ELi0ELin1ELi1EEEEEEC2ERKS4_, symObjAddr: 0x49540, symBinAddr: 0x100049CD0, symSize: 0x4C }
  - { offset: 0x1615F7, size: 0x8, addend: 0x0, symName: __ZNK5Eigen12ArrayWrapperINS_6MatrixIdLin1ELi1ELi0ELin1ELi1EEEE16nestedExpressionEv, symObjAddr: 0x49528, symBinAddr: 0x100049CB8, symSize: 0x18 }
  - { offset: 0x16161D, size: 0x8, addend: 0x0, symName: __ZN5Eigen8internal15call_assignmentINS_5BlockINS2_INS_6MatrixIdLin1ELi1ELi0ELin1ELi1EEELin1ELi1ELb1EEELi1ELi1ELb0EEENS2_IKS5_Li1ELi1ELb0EEENS0_9assign_opIddEEEEvRT_RKT0_RKT1_NS0_9enable_ifIXntsrNS0_25evaluator_assume_aliasingISD_NS0_16evaluator_traitsISD_E5ShapeEEE5valueEPvE4typeE, symObjAddr: 0x494F4, symBinAddr: 0x100049C84, symSize: 0x34 }
  - { offset: 0x1616C7, size: 0x8, addend: 0x0, symName: __ZN5Eigen8internal15BlockImpl_denseIKNS_5BlockINS_6MatrixIdLin1ELi1ELi0ELin1ELi1EEELin1ELi1ELb1EEELi1ELi1ELb0ELb1EEC2ERS6_l, symObjAddr: 0x49438, symBinAddr: 0x100049BC8, symSize: 0xBC }
  - { offset: 0x1616FB, size: 0x8, addend: 0x0, symName: __ZN5Eigen8internal26triangular_solver_selectorINS_3MapIKNS_6MatrixIdLin1ELin1ELi0ELin1ELin1EEELi0ENS_11OuterStrideILin1EEEEENS2_INS3_IdLin1ELi1ELi0ELin1ELi1EEELi0ES7_EELi1ELi2ELi0ELi1EE3runERKS8_RSA_, symObjAddr: 0x491C0, symBinAddr: 0x100049950, symSize: 0x278 }
  - { offset: 0x1617A4, size: 0x8, addend: 0x0, symName: __ZNK5Eigen14TriangularViewINS_3MapIKNS_6MatrixIdLin1ELin1ELi0ELin1ELin1EEELi0ENS_11OuterStrideILin1EEEEELj2EE16nestedExpressionEv, symObjAddr: 0x491AC, symBinAddr: 0x10004993C, symSize: 0x14 }
  - { offset: 0x1617CE, size: 0x8, addend: 0x0, symName: __ZNK5Eigen14TriangularViewINS_3MapIKNS_6MatrixIdLin1ELin1ELi0ELin1ELin1EEELi0ENS_11OuterStrideILin1EEEEELj2EE4rowsEv, symObjAddr: 0x49190, symBinAddr: 0x100049920, symSize: 0x1C }
  - { offset: 0x1617F8, size: 0x8, addend: 0x0, symName: __ZNK5Eigen14TriangularBaseINS_14TriangularViewINS_3MapIKNS_6MatrixIdLin1ELin1ELi0ELin1ELin1EEELi0ENS_11OuterStrideILin1EEEEELj2EEEE7derivedEv, symObjAddr: 0x4917C, symBinAddr: 0x10004990C, symSize: 0x14 }
  - { offset: 0x161822, size: 0x8, addend: 0x0, symName: __ZN5Eigen10MatrixBaseINS_3MapINS_6MatrixIdLin1ELi1ELi0ELin1ELi1EEELi0ENS_11OuterStrideILin1EEEEEEaSERKS7_, symObjAddr: 0x49134, symBinAddr: 0x1000498C4, symSize: 0x48 }
  - { offset: 0x16185C, size: 0x8, addend: 0x0, symName: __ZNK5Eigen7MapBaseINS_3MapIKNS_6MatrixIdLin1ELin1ELi0ELin1ELin1EEELi0ENS_11OuterStrideILin1EEEEELi0EE4dataEv, symObjAddr: 0x4911C, symBinAddr: 0x1000498AC, symSize: 0x18 }
  - { offset: 0x1618CF, size: 0x8, addend: 0x0, symName: __ZN5Eigen8internal11blas_traitsINS_3MapINS_6MatrixIdLin1ELi1ELi0ELin1ELi1EEELi0ENS_11OuterStrideILin1EEEEEE7extractERKS7_, symObjAddr: 0x49108, symBinAddr: 0x100049898, symSize: 0x14 }
  - { offset: 0x1618F9, size: 0x8, addend: 0x0, symName: __ZN5Eigen8internal11blas_traitsINS_3MapIKNS_6MatrixIdLin1ELin1ELi0ELin1ELin1EEELi0ENS_11OuterStrideILin1EEEEEE7extractERKS8_, symObjAddr: 0x490F4, symBinAddr: 0x100049884, symSize: 0x14 }
  - { offset: 0x161923, size: 0x8, addend: 0x0, symName: __ZN5Eigen8internal11dot_nocheckINS_5BlockIKNS_3MapIKNS_6MatrixIdLin1ELin1ELi0ELin1ELin1EEELi0ENS_11OuterStrideILin1EEEEELi1ELin1ELb0EEENS2_IKNS3_INS4_IdLin1ELi1ELi0ELin1ELi1EEELi0ES8_EELin1ELi1ELb1EEELb1EE3runERKNS_10MatrixBaseISB_EERKNSH_ISF_EE, symObjAddr: 0x49098, symBinAddr: 0x100049828, symSize: 0x5C }
  - { offset: 0x161962, size: 0x8, addend: 0x0, symName: __ZNK5Eigen9EigenBaseINS_5BlockIKNS_3MapINS_6MatrixIdLin1ELi1ELi0ELin1ELi1EEELi0ENS_11OuterStrideILin1EEEEELin1ELi1ELb1EEEE4sizeEv, symObjAddr: 0x49064, symBinAddr: 0x1000497F4, symSize: 0x34 }
  - { offset: 0x16198C, size: 0x8, addend: 0x0, symName: __ZNK5Eigen9EigenBaseINS_5BlockIKNS_3MapIKNS_6MatrixIdLin1ELin1ELi0ELin1ELin1EEELi0ENS_11OuterStrideILin1EEEEELi1ELin1ELb0EEEE4sizeEv, symObjAddr: 0x49030, symBinAddr: 0x1000497C0, symSize: 0x34 }
  - { offset: 0x1619F4, size: 0x8, addend: 0x0, symName: __ZN5Eigen5BlockIKNS_3MapINS_6MatrixIdLin1ELi1ELi0ELin1ELi1EEELi0ENS_11OuterStrideILin1EEEEELin1ELi1ELb1EEC1ERS7_l, symObjAddr: 0x48F88, symBinAddr: 0x100049718, symSize: 0xA8 }
  - { offset: 0x161A40, size: 0x8, addend: 0x0, symName: __ZNK5Eigen9EigenBaseINS_5BlockIKNS_3MapIKNS_6MatrixIdLin1ELin1ELi0ELin1ELin1EEELi0ENS_11OuterStrideILin1EEEEELi1ELin1ELb0EEEE7derivedEv, symObjAddr: 0x48F74, symBinAddr: 0x100049704, symSize: 0x14 }
  - { offset: 0x161AA8, size: 0x8, addend: 0x0, symName: __ZN5Eigen5BlockIKNS_3MapIKNS_6MatrixIdLin1ELin1ELi0ELin1ELin1EEELi0ENS_11OuterStrideILin1EEEEELi1ELin1ELb0EEC1ERS8_l, symObjAddr: 0x48ECC, symBinAddr: 0x10004965C, symSize: 0xA8 }
  - { offset: 0x161AF4, size: 0x8, addend: 0x0, symName: __ZNK5Eigen18TriangularViewImplINS_3MapIKNS_6MatrixIdLin1ELin1ELi0ELin1ELin1EEELi0ENS_11OuterStrideILin1EEEEELj5ENS_5DenseEE12solveInPlaceILi1ENS1_INS2_IdLin1ELi1ELi0ELin1ELi1EEELi0ES6_EEEEvRKNS_10MatrixBaseIT0_EE, symObjAddr: 0x48DBC, symBinAddr: 0x10004954C, symSize: 0x110 }
  - { offset: 0x161B94, size: 0x8, addend: 0x0, symName: __ZN5Eigen8internal15call_assignmentINS_5BlockINS2_INS_6MatrixIdLin1ELi1ELi0ELin1ELi1EEELin1ELi1ELb1EEELi1ELi1ELb0EEENS2_IKNS2_INS_12CwiseUnaryOpINS0_18scalar_opposite_opIdEEKS4_EELin1ELi1ELb1EEELi1ELi1ELb0EEENS0_9assign_opIddEEEEvRT_RKT0_RKT1_NS0_9enable_ifIXntsrNS0_25evaluator_assume_aliasingISJ_NS0_16evaluator_traitsISJ_E5ShapeEEE5valueEPvE4typeE, symObjAddr: 0x48D88, symBinAddr: 0x100049518, symSize: 0x34 }
  - { offset: 0x161C3C, size: 0x8, addend: 0x0, symName: __ZN5Eigen8internal15BlockImpl_denseIKNS_5BlockINS_12CwiseUnaryOpINS0_18scalar_opposite_opIdEEKNS_6MatrixIdLin1ELi1ELi0ELin1ELi1EEEEELin1ELi1ELb1EEELi1ELi1ELb0ELb0EEC2ERSB_l, symObjAddr: 0x48D14, symBinAddr: 0x1000494A4, symSize: 0x74 }
  - { offset: 0x161C8E, size: 0x8, addend: 0x0, symName: __ZN5Eigen10MatrixBaseINS_5BlockIKNS1_INS_12CwiseUnaryOpINS_8internal18scalar_opposite_opIdEEKNS_6MatrixIdLin1ELi1ELi0ELin1ELi1EEEEELin1ELi1ELb1EEELi1ELi1ELb0EEEEC2Ev, symObjAddr: 0x48CF4, symBinAddr: 0x100049484, symSize: 0x20 }
  - { offset: 0x161CB0, size: 0x8, addend: 0x0, symName: __ZN5Eigen8internal24call_assignment_no_aliasINS_5BlockINS2_INS_6MatrixIdLin1ELi1ELi0ELin1ELi1EEELin1ELi1ELb1EEELi1ELi1ELb0EEES6_NS0_14swap_assign_opIdEEEEvRT_RKT0_RKT1_, symObjAddr: 0x48CBC, symBinAddr: 0x10004944C, symSize: 0x38 }
  - { offset: 0x161D4A, size: 0x8, addend: 0x0, symName: __ZNK5Eigen7MapBaseINS_5BlockINS1_INS_6MatrixIdLin1ELi1ELi0ELin1ELi1EEELin1ELi1ELb1EEELi1ELi1ELb0EEELi0EE4colsEv, symObjAddr: 0x48CA4, symBinAddr: 0x100049434, symSize: 0x18 }
  - { offset: 0x161D74, size: 0x8, addend: 0x0, symName: __ZNK5Eigen7MapBaseINS_5BlockINS1_INS_6MatrixIdLin1ELi1ELi0ELin1ELi1EEELin1ELi1ELb1EEELi1ELi1ELb0EEELi0EE4rowsEv, symObjAddr: 0x48C8C, symBinAddr: 0x10004941C, symSize: 0x18 }
  - { offset: 0x161D9E, size: 0x8, addend: 0x0, symName: __ZNK5Eigen9EigenBaseINS_5BlockINS1_INS_6MatrixIdLin1ELi1ELi0ELin1ELi1EEELin1ELi1ELb1EEELi1ELi1ELb0EEEE7derivedEv, symObjAddr: 0x48C78, symBinAddr: 0x100049408, symSize: 0x14 }
  - { offset: 0x161DFE, size: 0x8, addend: 0x0, symName: __ZN5Eigen8internal15BlockImpl_denseINS_5BlockINS_6MatrixIdLin1ELi1ELi0ELin1ELi1EEELin1ELi1ELb1EEELi1ELi1ELb0ELb1EEC2ERS5_l, symObjAddr: 0x48BBC, symBinAddr: 0x10004934C, symSize: 0xBC }
  - { offset: 0x161E36, size: 0x8, addend: 0x0, symName: __ZNK5Eigen8internal22scalar_conj_product_opIddEclERKdS4_, symObjAddr: 0x48B88, symBinAddr: 0x100049318, symSize: 0x34 }
  - { offset: 0x161E80, size: 0x8, addend: 0x0, symName: __ZNK5Eigen8internal17mapbase_evaluatorINS_5BlockIKNS2_INS_6MatrixIdLin1ELi1ELi0ELin1ELi1EEELin1ELi1ELb0EEELin1ELi1ELb1EEES4_E5coeffEll, symObjAddr: 0x48B20, symBinAddr: 0x1000492B0, symSize: 0x68 }
  - { offset: 0x161ECC, size: 0x8, addend: 0x0, symName: __ZNK5Eigen8internal15unary_evaluatorINS_9TransposeIKNS_5BlockIKNS_3MapINS_6MatrixIdLin1ELin1ELi0ELin1ELin1EEELi0ENS_11OuterStrideILin1EEEEELi1ELin1ELb0EEEEENS0_10IndexBasedEdE5coeffEll, symObjAddr: 0x48AEC, symBinAddr: 0x10004927C, symSize: 0x34 }
  - { offset: 0x161F18, size: 0x8, addend: 0x0, symName: __ZNK5Eigen8internal16binary_evaluatorINS_13CwiseBinaryOpINS0_22scalar_conj_product_opIddEEKNS_9TransposeIKNS_5BlockIKNS_3MapINS_6MatrixIdLin1ELin1ELi0ELin1ELin1EEELi0ENS_11OuterStrideILin1EEEEELi1ELin1ELb0EEEEEKNS6_IKNS6_INS8_IdLin1ELi1ELi0ELin1ELi1EEELin1ELi1ELb0EEELin1ELi1ELb1EEEEENS0_10IndexBasedESO_ddE4Data4funcEv, symObjAddr: 0x48AD8, symBinAddr: 0x100049268, symSize: 0x14 }
  - { offset: 0x161F6A, size: 0x8, addend: 0x0, symName: __ZN5Eigen8internal16binary_evaluatorINS_13CwiseBinaryOpINS0_22scalar_conj_product_opIddEEKNS_9TransposeIKNS_5BlockIKNS_3MapINS_6MatrixIdLin1ELin1ELi0ELin1ELin1EEELi0ENS_11OuterStrideILin1EEEEELi1ELin1ELb0EEEEEKNS6_IKNS6_INS8_IdLin1ELi1ELi0ELin1ELi1EEELin1ELi1ELb0EEELin1ELi1ELb1EEEEENS0_10IndexBasedESO_ddE4DataC1ERKSN_, symObjAddr: 0x48A4C, symBinAddr: 0x1000491DC, symSize: 0x8C }
  - { offset: 0x161FB3, size: 0x8, addend: 0x0, symName: __ZN5Eigen8internal14evaluator_baseINS_13CwiseBinaryOpINS0_22scalar_conj_product_opIddEEKNS_9TransposeIKNS_5BlockIKNS_3MapINS_6MatrixIdLin1ELin1ELi0ELin1ELin1EEELi0ENS_11OuterStrideILin1EEEEELi1ELin1ELb0EEEEEKNS6_IKNS6_INS8_IdLin1ELi1ELi0ELin1ELi1EEELin1ELi1ELb0EEELin1ELi1ELb1EEEEEEC2Ev, symObjAddr: 0x48A38, symBinAddr: 0x1000491C8, symSize: 0x14 }
  - { offset: 0x161FD5, size: 0x8, addend: 0x0, symName: __ZN5Eigen8internal10AssignmentINS_5BlockINS_6MatrixIdLin1ELi1ELi0ELin1ELi1EEELin1ELi1ELb0EEENS_3MapIS4_Li16ENS_6StrideILi0ELi0EEEEENS0_9assign_opIddEENS0_11Dense2DenseEvE3runERS5_RKS9_RKSB_, symObjAddr: 0x489FC, symBinAddr: 0x10004918C, symSize: 0x3C }
  - { offset: 0x162021, size: 0x8, addend: 0x0, symName: __ZN5Eigen8internal10AssignmentINS_3MapINS_6MatrixIdLin1ELi1ELi0ELin1ELi1EEELi0ENS_6StrideILi0ELi0EEEEENS_13CwiseBinaryOpINS0_17scalar_product_opIddEEKNS_14CwiseNullaryOpINS0_18scalar_constant_opIdEEKS4_EEKNS_5BlockIKNSH_IKNS2_IKNS3_IdLin1ELin1ELi0ELin1ELin1EEELi0ENS_11OuterStrideILin1EEEEELin1ELi1ELb1EEELin1ELi1ELb0EEEEENS0_13sub_assign_opIddEENS0_11Dense2DenseEvE3runERS7_RKSS_RKSU_, symObjAddr: 0x489C0, symBinAddr: 0x100049150, symSize: 0x3C }
  - { offset: 0x162071, size: 0x8, addend: 0x0, symName: __ZNK5Eigen7MapBaseINS_5BlockIKNS_3MapIKNS_6MatrixIdLin1ELin1ELi0ELin1ELin1EEELi0ENS_11OuterStrideILin1EEEEELin1ELi1ELb1EEELi0EE4colsEv, symObjAddr: 0x489A8, symBinAddr: 0x100049138, symSize: 0x18 }
  - { offset: 0x16209B, size: 0x8, addend: 0x0, symName: __ZNK5Eigen7MapBaseINS_5BlockIKNS_3MapIKNS_6MatrixIdLin1ELin1ELi0ELin1ELin1EEELi0ENS_11OuterStrideILin1EEEEELin1ELi1ELb1EEELi0EE4rowsEv, symObjAddr: 0x48988, symBinAddr: 0x100049118, symSize: 0x20 }
  - { offset: 0x162120, size: 0x8, addend: 0x0, symName: __ZN5Eigen9BlockImplIKNS_5BlockIKNS_3MapIKNS_6MatrixIdLin1ELin1ELi0ELin1ELin1EEELi0ENS_11OuterStrideILin1EEEEELin1ELi1ELb1EEELin1ELi1ELb0ENS_5DenseEEC2ERSB_llll, symObjAddr: 0x48940, symBinAddr: 0x1000490D0, symSize: 0x48 }
  - { offset: 0x1621A9, size: 0x8, addend: 0x0, symName: __ZN5Eigen8internal15BlockImpl_denseIKNS_3MapIKNS_6MatrixIdLin1ELin1ELi0ELin1ELin1EEELi0ENS_11OuterStrideILin1EEEEELin1ELi1ELb1ELb1EEC2ERS9_l, symObjAddr: 0x48898, symBinAddr: 0x100049028, symSize: 0xA8 }
  - { offset: 0x1621E1, size: 0x8, addend: 0x0, symName: __ZNK5Eigen3MapIKNS_6MatrixIdLin1ELin1ELi0ELin1ELin1EEELi0ENS_11OuterStrideILin1EEEE11outerStrideEv, symObjAddr: 0x48878, symBinAddr: 0x100049008, symSize: 0x20 }
  - { offset: 0x16220B, size: 0x8, addend: 0x0, symName: __ZNK5Eigen3MapIKNS_6MatrixIdLin1ELin1ELi0ELin1ELin1EEELi0ENS_11OuterStrideILin1EEEE11innerStrideEv, symObjAddr: 0x48864, symBinAddr: 0x100048FF4, symSize: 0x14 }
  - { offset: 0x162231, size: 0x8, addend: 0x0, symName: __ZN5Eigen8internal10AssignmentINS_3MapINS_6MatrixIdLin1ELi1ELi0ELin1ELi1EEELi16ENS_6StrideILi0ELi0EEEEENS_5BlockIS4_Lin1ELi1ELb0EEENS0_9assign_opIddEENS0_11Dense2DenseEvE3runERS7_RKS9_RKSB_, symObjAddr: 0x48828, symBinAddr: 0x100048FB8, symSize: 0x3C }
  - { offset: 0x16227D, size: 0x8, addend: 0x0, symName: __ZN5Eigen8internal24call_assignment_no_aliasINS_5BlockINS_6MatrixIdLin1ELi1ELi0ELin1ELi1EEELin1ELi1ELb0EEES5_NS0_9assign_opIddEEEEvRT_RKT0_RKT1_, symObjAddr: 0x487F0, symBinAddr: 0x100048F80, symSize: 0x38 }
  - { offset: 0x162313, size: 0x8, addend: 0x0, symName: __ZN5Eigen8internal24call_assignment_no_aliasINS_3MapINS_6MatrixIdLin1ELi1ELi0ELin1ELi1EEELi0ENS_6StrideILi0ELi0EEEEENS2_IS4_Li16ES6_EENS0_9assign_opIddEEEEvRT_RKT0_RKT1_, symObjAddr: 0x487B8, symBinAddr: 0x100048F48, symSize: 0x38 }
  - { offset: 0x1623A9, size: 0x8, addend: 0x0, symName: __ZN5Eigen8internal24call_assignment_no_aliasINS_3MapINS_6MatrixIdLin1ELi1ELi0ELin1ELi1EEELi16ENS_6StrideILi0ELi0EEEEENS2_IS4_Li0ES6_EENS0_9assign_opIddEEEEvRT_RKT0_RKT1_, symObjAddr: 0x48780, symBinAddr: 0x100048F10, symSize: 0x38 }
  - { offset: 0x16243F, size: 0x8, addend: 0x0, symName: __ZN5Eigen8internal10AssignmentINS_3MapINS_6MatrixIdLin1ELi1ELi0ELin1ELi1EEELi0ENS_6StrideILi0ELi0EEEEES7_NS0_9assign_opIddEENS0_11Dense2DenseEvE3runERS7_RKS7_RKS9_, symObjAddr: 0x48744, symBinAddr: 0x100048ED4, symSize: 0x3C }
  - { offset: 0x16248B, size: 0x8, addend: 0x0, symName: __ZN5Eigen8internal26triangular_solver_unrollerINS_3MapINS_6MatrixIdLi3ELi3ELi0ELi3ELi3EEELi0ENS_11OuterStrideILin1EEEEENS2_INS3_IdLi3ELi1ELi0ELi3ELi1EEELi0ENS_6StrideILi0ELi0EEEEELi5ELi3ELi3ELb1EE3runERKS7_RSB_, symObjAddr: 0x4872C, symBinAddr: 0x100048EBC, symSize: 0x18 }
  - { offset: 0x1624BA, size: 0x8, addend: 0x0, symName: __ZNK5Eigen9DenseBaseINS_13CwiseBinaryOpINS_8internal17scalar_product_opIddEEKNS_9TransposeIKNS_5BlockIKNS6_IKNS_3MapINS_6MatrixIdLi3ELi3ELi0ELi3ELi3EEELi0ENS_11OuterStrideILin1EEEEELi1ELi3ELb0EEELi1ELi2ELb0EEEEEKNS6_INS7_INS8_IdLi3ELi1ELi0ELi3ELi1EEELi0ENS_6StrideILi0ELi0EEEEELi2ELi1ELb0EEEEEE3sumEv, symObjAddr: 0x486E0, symBinAddr: 0x100048E70, symSize: 0x4C }
  - { offset: 0x1624E4, size: 0x8, addend: 0x0, symName: __ZNK5Eigen10MatrixBaseINS_9TransposeIKNS_5BlockIKNS2_IKNS_3MapINS_6MatrixIdLi3ELi3ELi0ELi3ELi3EEELi0ENS_11OuterStrideILin1EEEEELi1ELi3ELb0EEELi1ELi2ELb0EEEEEE12cwiseProductINS2_INS3_INS4_IdLi3ELi1ELi0ELi3ELi1EEELi0ENS_6StrideILi0ELi0EEEEELi2ELi1ELb0EEEEEKNS_13CwiseBinaryOpINS_8internal17scalar_product_opIdNSN_6traitsIT_E6ScalarEEEKSE_KSQ_EERKNS0_ISQ_EE, symObjAddr: 0x48678, symBinAddr: 0x100048E08, symSize: 0x68 }
  - { offset: 0x162527, size: 0x8, addend: 0x0, symName: __ZN5Eigen9DenseBaseINS_3MapINS_6MatrixIdLi3ELi1ELi0ELi3ELi1EEELi0ENS_6StrideILi0ELi0EEEEEE7segmentILi2EEENS7_22FixedSegmentReturnTypeIXT_EE4TypeEll, symObjAddr: 0x48630, symBinAddr: 0x100048DC0, symSize: 0x48 }
  - { offset: 0x16257D, size: 0x8, addend: 0x0, symName: __ZNK5Eigen9DenseBaseINS_5BlockIKNS1_IKNS_3MapINS_6MatrixIdLi3ELi3ELi0ELi3ELi3EEELi0ENS_11OuterStrideILin1EEEEELi1ELi3ELb0EEELi1ELi2ELb0EEEE9transposeEv, symObjAddr: 0x485F8, symBinAddr: 0x100048D88, symSize: 0x38 }
  - { offset: 0x1625A7, size: 0x8, addend: 0x0, symName: __ZNK5Eigen9DenseBaseINS_5BlockIKNS_3MapINS_6MatrixIdLi3ELi3ELi0ELi3ELi3EEELi0ENS_11OuterStrideILin1EEEEELi1ELi3ELb0EEEE7segmentILi2EEENSA_27ConstFixedSegmentReturnTypeIXT_EE4TypeEll, symObjAddr: 0x485B0, symBinAddr: 0x100048D40, symSize: 0x48 }
  - { offset: 0x1625FD, size: 0x8, addend: 0x0, symName: __ZNK5Eigen9DenseBaseINS_13CwiseBinaryOpINS_8internal17scalar_product_opIddEEKNS_9TransposeIKNS_5BlockIKNS6_IKNS_3MapINS_6MatrixIdLi3ELi3ELi0ELi3ELi3EEELi0ENS_11OuterStrideILin1EEEEELi1ELi3ELb0EEELi1ELi1ELb0EEEEEKNS6_INS7_INS8_IdLi3ELi1ELi0ELi3ELi1EEELi0ENS_6StrideILi0ELi0EEEEELi1ELi1ELb0EEEEEE5reduxINS2_13scalar_sum_opIddEEEEdRKT_, symObjAddr: 0x48498, symBinAddr: 0x100048C28, symSize: 0x118 }
  - { offset: 0x162687, size: 0x8, addend: 0x0, symName: __ZN5Eigen8internal15redux_evaluatorINS_13CwiseBinaryOpINS0_17scalar_product_opIddEEKNS_9TransposeIKNS_5BlockIKNS6_IKNS_3MapINS_6MatrixIdLi3ELi3ELi0ELi3ELi3EEELi0ENS_11OuterStrideILin1EEEEELi1ELi3ELb0EEELi1ELi1ELb0EEEEEKNS6_INS7_INS8_IdLi3ELi1ELi0ELi3ELi1EEELi0ENS_6StrideILi0ELi0EEEEELi1ELi1ELb0EEEEEED1Ev, symObjAddr: 0x48478, symBinAddr: 0x100048C08, symSize: 0x20 }
  - { offset: 0x1626CB, size: 0x8, addend: 0x0, symName: __ZN5Eigen8internal9evaluatorINS_13CwiseBinaryOpINS0_17scalar_product_opIddEEKNS_9TransposeIKNS_5BlockIKNS6_IKNS_3MapINS_6MatrixIdLi3ELi3ELi0ELi3ELi3EEELi0ENS_11OuterStrideILin1EEEEELi1ELi3ELb0EEELi1ELi1ELb0EEEEEKNS6_INS7_INS8_IdLi3ELi1ELi0ELi3ELi1EEELi0ENS_6StrideILi0ELi0EEEEELi1ELi1ELb0EEEEEED2Ev, symObjAddr: 0x48458, symBinAddr: 0x100048BE8, symSize: 0x20 }
  - { offset: 0x16270F, size: 0x8, addend: 0x0, symName: __ZN5Eigen8internal16binary_evaluatorINS_13CwiseBinaryOpINS0_17scalar_product_opIddEEKNS_9TransposeIKNS_5BlockIKNS6_IKNS_3MapINS_6MatrixIdLi3ELi3ELi0ELi3ELi3EEELi0ENS_11OuterStrideILin1EEEEELi1ELi3ELb0EEELi1ELi1ELb0EEEEEKNS6_INS7_INS8_IdLi3ELi1ELi0ELi3ELi1EEELi0ENS_6StrideILi0ELi0EEEEELi1ELi1ELb0EEEEENS0_10IndexBasedESR_ddED2Ev, symObjAddr: 0x48430, symBinAddr: 0x100048BC0, symSize: 0x28 }
  - { offset: 0x162753, size: 0x8, addend: 0x0, symName: __ZN5Eigen8internal16binary_evaluatorINS_13CwiseBinaryOpINS0_17scalar_product_opIddEEKNS_9TransposeIKNS_5BlockIKNS6_IKNS_3MapINS_6MatrixIdLi3ELi3ELi0ELi3ELi3EEELi0ENS_11OuterStrideILin1EEEEELi1ELi3ELb0EEELi1ELi1ELb0EEEEEKNS6_INS7_INS8_IdLi3ELi1ELi0ELi3ELi1EEELi0ENS_6StrideILi0ELi0EEEEELi1ELi1ELb0EEEEENS0_10IndexBasedESR_ddE4DataD1Ev, symObjAddr: 0x48400, symBinAddr: 0x100048B90, symSize: 0x30 }
  - { offset: 0x162796, size: 0x8, addend: 0x0, symName: __ZN5Eigen8internal9evaluatorIKNS_5BlockINS_3MapINS_6MatrixIdLi3ELi1ELi0ELi3ELi1EEELi0ENS_6StrideILi0ELi0EEEEELi1ELi1ELb0EEEED1Ev, symObjAddr: 0x483E0, symBinAddr: 0x100048B70, symSize: 0x20 }
  - { offset: 0x1627DA, size: 0x8, addend: 0x0, symName: __ZN5Eigen8internal9evaluatorINS_5BlockINS_3MapINS_6MatrixIdLi3ELi1ELi0ELi3ELi1EEELi0ENS_6StrideILi0ELi0EEEEELi1ELi1ELb0EEEED2Ev, symObjAddr: 0x483C0, symBinAddr: 0x100048B50, symSize: 0x20 }
  - { offset: 0x16281E, size: 0x8, addend: 0x0, symName: __ZN5Eigen8internal15block_evaluatorINS_3MapINS_6MatrixIdLi3ELi1ELi0ELi3ELi1EEELi0ENS_6StrideILi0ELi0EEEEELi1ELi1ELb0ELb1EED2Ev, symObjAddr: 0x483A0, symBinAddr: 0x100048B30, symSize: 0x20 }
  - { offset: 0x162862, size: 0x8, addend: 0x0, symName: __ZN5Eigen8internal17mapbase_evaluatorINS_5BlockINS_3MapINS_6MatrixIdLi3ELi1ELi0ELi3ELi1EEELi0ENS_6StrideILi0ELi0EEEEELi1ELi1ELb0EEENS4_IdLi1ELi1ELi0ELi1ELi1EEEED2Ev, symObjAddr: 0x48380, symBinAddr: 0x100048B10, symSize: 0x20 }
  - { offset: 0x1628A5, size: 0x8, addend: 0x0, symName: __ZN5Eigen8internal9evaluatorIKNS_9TransposeIKNS_5BlockIKNS3_IKNS_3MapINS_6MatrixIdLi3ELi3ELi0ELi3ELi3EEELi0ENS_11OuterStrideILin1EEEEELi1ELi3ELb0EEELi1ELi1ELb0EEEEEED1Ev, symObjAddr: 0x48360, symBinAddr: 0x100048AF0, symSize: 0x20 }
  - { offset: 0x1628E8, size: 0x8, addend: 0x0, symName: __ZN5Eigen8internal9evaluatorINS_9TransposeIKNS_5BlockIKNS3_IKNS_3MapINS_6MatrixIdLi3ELi3ELi0ELi3ELi3EEELi0ENS_11OuterStrideILin1EEEEELi1ELi3ELb0EEELi1ELi1ELb0EEEEEED2Ev, symObjAddr: 0x48340, symBinAddr: 0x100048AD0, symSize: 0x20 }
  - { offset: 0x16292C, size: 0x8, addend: 0x0, symName: __ZN5Eigen8internal15unary_evaluatorINS_9TransposeIKNS_5BlockIKNS3_IKNS_3MapINS_6MatrixIdLi3ELi3ELi0ELi3ELi3EEELi0ENS_11OuterStrideILin1EEEEELi1ELi3ELb0EEELi1ELi1ELb0EEEEENS0_10IndexBasedEdED2Ev, symObjAddr: 0x48318, symBinAddr: 0x100048AA8, symSize: 0x28 }
  - { offset: 0x16296F, size: 0x8, addend: 0x0, symName: __ZN5Eigen8internal9evaluatorIKNS_5BlockIKNS2_IKNS_3MapINS_6MatrixIdLi3ELi3ELi0ELi3ELi3EEELi0ENS_11OuterStrideILin1EEEEELi1ELi3ELb0EEELi1ELi1ELb0EEEED1Ev, symObjAddr: 0x482F8, symBinAddr: 0x100048A88, symSize: 0x20 }
  - { offset: 0x1629B3, size: 0x8, addend: 0x0, symName: __ZN5Eigen8internal9evaluatorINS_5BlockIKNS2_IKNS_3MapINS_6MatrixIdLi3ELi3ELi0ELi3ELi3EEELi0ENS_11OuterStrideILin1EEEEELi1ELi3ELb0EEELi1ELi1ELb0EEEED2Ev, symObjAddr: 0x482D8, symBinAddr: 0x100048A68, symSize: 0x20 }
  - { offset: 0x1629F7, size: 0x8, addend: 0x0, symName: __ZN5Eigen8internal15block_evaluatorIKNS_5BlockIKNS_3MapINS_6MatrixIdLi3ELi3ELi0ELi3ELi3EEELi0ENS_11OuterStrideILin1EEEEELi1ELi3ELb0EEELi1ELi1ELb0ELb1EED2Ev, symObjAddr: 0x482B8, symBinAddr: 0x100048A48, symSize: 0x20 }
  - { offset: 0x162A3B, size: 0x8, addend: 0x0, symName: __ZN5Eigen8internal17mapbase_evaluatorINS_5BlockIKNS2_IKNS_3MapINS_6MatrixIdLi3ELi3ELi0ELi3ELi3EEELi0ENS_11OuterStrideILin1EEEEELi1ELi3ELb0EEELi1ELi1ELb0EEENS4_IdLi1ELi1ELi1ELi1ELi1EEEED2Ev, symObjAddr: 0x48298, symBinAddr: 0x100048A28, symSize: 0x20 }
  - { offset: 0x162A61, size: 0x8, addend: 0x0, symName: __ZNK5Eigen9EigenBaseINS_13CwiseBinaryOpINS_8internal17scalar_product_opIddEEKNS_9TransposeIKNS_5BlockIKNS6_IKNS_3MapINS_6MatrixIdLi3ELi3ELi0ELi3ELi3EEELi0ENS_11OuterStrideILin1EEEEELi1ELi3ELb0EEELi1ELi1ELb0EEEEEKNS6_INS7_INS8_IdLi3ELi1ELi0ELi3ELi1EEELi0ENS_6StrideILi0ELi0EEEEELi1ELi1ELb0EEEEEE7derivedEv, symObjAddr: 0x48284, symBinAddr: 0x100048A14, symSize: 0x14 }
  - { offset: 0x162AD6, size: 0x8, addend: 0x0, symName: __ZN5Eigen13CwiseBinaryOpINS_8internal17scalar_product_opIddEEKNS_9TransposeIKNS_5BlockIKNS5_IKNS_3MapINS_6MatrixIdLi3ELi3ELi0ELi3ELi3EEELi0ENS_11OuterStrideILin1EEEEELi1ELi3ELb0EEELi1ELi1ELb0EEEEEKNS5_INS6_INS7_IdLi3ELi1ELi0ELi3ELi1EEELi0ENS_6StrideILi0ELi0EEEEELi1ELi1ELb0EEEEC1ERSI_RSO_RKS3_, symObjAddr: 0x48194, symBinAddr: 0x100048924, symSize: 0xF0 }
  - { offset: 0x162B4A, size: 0x8, addend: 0x0, symName: __ZN5Eigen5BlockINS_3MapINS_6MatrixIdLi3ELi1ELi0ELi3ELi1EEELi0ENS_6StrideILi0ELi0EEEEELi1ELi1ELb0EEC1ERKS7_, symObjAddr: 0x4816C, symBinAddr: 0x1000488FC, symSize: 0x28 }
  - { offset: 0x162B98, size: 0x8, addend: 0x0, symName: __ZN5Eigen9BlockImplINS_3MapINS_6MatrixIdLi3ELi1ELi0ELi3ELi1EEELi0ENS_6StrideILi0ELi0EEEEELi1ELi1ELb0ENS_5DenseEEC2ERKS8_, symObjAddr: 0x48144, symBinAddr: 0x1000488D4, symSize: 0x28 }
  - { offset: 0x162BE6, size: 0x8, addend: 0x0, symName: __ZN5Eigen8internal15BlockImpl_denseINS_3MapINS_6MatrixIdLi3ELi1ELi0ELi3ELi1EEELi0ENS_6StrideILi0ELi0EEEEELi1ELi1ELb0ELb1EEC2ERKS8_, symObjAddr: 0x480B4, symBinAddr: 0x100048844, symSize: 0x90 }
  - { offset: 0x162C34, size: 0x8, addend: 0x0, symName: __ZN5Eigen9TransposeIKNS_5BlockIKNS1_IKNS_3MapINS_6MatrixIdLi3ELi3ELi0ELi3ELi3EEELi0ENS_11OuterStrideILin1EEEEELi1ELi3ELb0EEELi1ELi1ELb0EEEEC1ERKSD_, symObjAddr: 0x4808C, symBinAddr: 0x10004881C, symSize: 0x28 }
  - { offset: 0x162C8B, size: 0x8, addend: 0x0, symName: __ZN5Eigen17CwiseBinaryOpImplINS_8internal17scalar_product_opIddEEKNS_9TransposeIKNS_5BlockIKNS5_IKNS_3MapINS_6MatrixIdLi3ELi3ELi0ELi3ELi3EEELi0ENS_11OuterStrideILin1EEEEELi1ELi3ELb0EEELi1ELi1ELb0EEEEEKNS5_INS6_INS7_IdLi3ELi1ELi0ELi3ELi1EEELi0ENS_6StrideILi0ELi0EEEEELi1ELi1ELb0EEENS_5DenseEEC2Ev, symObjAddr: 0x4806C, symBinAddr: 0x1000487FC, symSize: 0x20 }
  - { offset: 0x162CCB, size: 0x8, addend: 0x0, symName: __ZN5Eigen10MatrixBaseINS_13CwiseBinaryOpINS_8internal17scalar_product_opIddEEKNS_9TransposeIKNS_5BlockIKNS6_IKNS_3MapINS_6MatrixIdLi3ELi3ELi0ELi3ELi3EEELi0ENS_11OuterStrideILin1EEEEELi1ELi3ELb0EEELi1ELi1ELb0EEEEEKNS6_INS7_INS8_IdLi3ELi1ELi0ELi3ELi1EEELi0ENS_6StrideILi0ELi0EEEEELi1ELi1ELb0EEEEEEC2Ev, symObjAddr: 0x4804C, symBinAddr: 0x1000487DC, symSize: 0x20 }
  - { offset: 0x162CF1, size: 0x8, addend: 0x0, symName: __ZNK5Eigen9EigenBaseINS_5BlockINS_3MapINS_6MatrixIdLi3ELi1ELi0ELi3ELi1EEELi0ENS_6StrideILi0ELi0EEEEELi1ELi1ELb0EEEE7derivedEv, symObjAddr: 0x48038, symBinAddr: 0x1000487C8, symSize: 0x14 }
  - { offset: 0x162D1B, size: 0x8, addend: 0x0, symName: __ZNK5Eigen9EigenBaseINS_9TransposeIKNS_5BlockIKNS2_IKNS_3MapINS_6MatrixIdLi3ELi3ELi0ELi3ELi3EEELi0ENS_11OuterStrideILin1EEEEELi1ELi3ELb0EEELi1ELi1ELb0EEEEEE7derivedEv, symObjAddr: 0x48024, symBinAddr: 0x1000487B4, symSize: 0x14 }
  - { offset: 0x162D86, size: 0x8, addend: 0x0, symName: __ZN5Eigen11VectorBlockINS_3MapINS_6MatrixIdLi3ELi1ELi0ELi3ELi1EEELi0ENS_6StrideILi0ELi0EEEEELi1EEC1ERS6_ll, symObjAddr: 0x47FE4, symBinAddr: 0x100048774, symSize: 0x40 }
  - { offset: 0x162DEE, size: 0x8, addend: 0x0, symName: __ZN5Eigen9TransposeIKNS_5BlockIKNS1_IKNS_3MapINS_6MatrixIdLi3ELi3ELi0ELi3ELi3EEELi0ENS_11OuterStrideILin1EEEEELi1ELi3ELb0EEELi1ELi1ELb0EEEEC1ERSC_, symObjAddr: 0x47FB4, symBinAddr: 0x100048744, symSize: 0x30 }
  - { offset: 0x162E3C, size: 0x8, addend: 0x0, symName: __ZN5Eigen5BlockIKNS0_IKNS_3MapINS_6MatrixIdLi3ELi3ELi0ELi3ELi3EEELi0ENS_11OuterStrideILin1EEEEELi1ELi3ELb0EEELi1ELi1ELb0EEC1ERKSA_, symObjAddr: 0x47F8C, symBinAddr: 0x10004871C, symSize: 0x28 }
  - { offset: 0x162E8A, size: 0x8, addend: 0x0, symName: __ZN5Eigen9BlockImplIKNS_5BlockIKNS_3MapINS_6MatrixIdLi3ELi3ELi0ELi3ELi3EEELi0ENS_11OuterStrideILin1EEEEELi1ELi3ELb0EEELi1ELi1ELb0ENS_5DenseEEC2ERKSC_, symObjAddr: 0x47F64, symBinAddr: 0x1000486F4, symSize: 0x28 }
  - { offset: 0x162ED8, size: 0x8, addend: 0x0, symName: __ZN5Eigen8internal15BlockImpl_denseIKNS_5BlockIKNS_3MapINS_6MatrixIdLi3ELi3ELi0ELi3ELi3EEELi0ENS_11OuterStrideILin1EEEEELi1ELi3ELb0EEELi1ELi1ELb0ELb1EEC2ERKSC_, symObjAddr: 0x47EAC, symBinAddr: 0x10004863C, symSize: 0xB8 }
  - { offset: 0x162F21, size: 0x8, addend: 0x0, symName: __ZN5Eigen13TransposeImplIKNS_5BlockIKNS1_IKNS_3MapINS_6MatrixIdLi3ELi3ELi0ELi3ELi3EEELi0ENS_11OuterStrideILin1EEEEELi1ELi3ELb0EEELi1ELi1ELb0EEENS_5DenseEEC2Ev, symObjAddr: 0x47E8C, symBinAddr: 0x10004861C, symSize: 0x20 }
  - { offset: 0x162F61, size: 0x8, addend: 0x0, symName: __ZN5Eigen10MatrixBaseINS_9TransposeIKNS_5BlockIKNS2_IKNS_3MapINS_6MatrixIdLi3ELi3ELi0ELi3ELi3EEELi0ENS_11OuterStrideILin1EEEEELi1ELi3ELb0EEELi1ELi1ELb0EEEEEEC2Ev, symObjAddr: 0x47E6C, symBinAddr: 0x1000485FC, symSize: 0x20 }
  - { offset: 0x162F87, size: 0x8, addend: 0x0, symName: __ZNK5Eigen9EigenBaseINS_5BlockIKNS1_IKNS_3MapINS_6MatrixIdLi3ELi3ELi0ELi3ELi3EEELi0ENS_11OuterStrideILin1EEEEELi1ELi3ELb0EEELi1ELi1ELb0EEEE7derivedEv, symObjAddr: 0x47E58, symBinAddr: 0x1000485E8, symSize: 0x14 }
  - { offset: 0x162FF2, size: 0x8, addend: 0x0, symName: __ZN5Eigen11VectorBlockIKNS_5BlockIKNS_3MapINS_6MatrixIdLi3ELi3ELi0ELi3ELi3EEELi0ENS_11OuterStrideILin1EEEEELi1ELi3ELb0EEELi1EEC1ERSA_ll, symObjAddr: 0x47E18, symBinAddr: 0x1000485A8, symSize: 0x40 }
  - { offset: 0x163067, size: 0x8, addend: 0x0, symName: __ZN5Eigen9BlockImplIKNS_3MapINS_6MatrixIdLi3ELi3ELi0ELi3ELi3EEELi0ENS_11OuterStrideILin1EEEEELi1ELi3ELb0ENS_5DenseEEC2ERS7_l, symObjAddr: 0x47DE8, symBinAddr: 0x100048578, symSize: 0x30 }
  - { offset: 0x16309B, size: 0x8, addend: 0x0, symName: __ZN5Eigen8internal10AssignmentINS_3MapINS_6MatrixIdLi3ELi1ELi0ELi3ELi1EEELi0ENS_6StrideILi0ELi0EEEEES7_NS0_9assign_opIddEENS0_11Dense2DenseEvE3runERS7_RKS7_RKS9_, symObjAddr: 0x47DAC, symBinAddr: 0x10004853C, symSize: 0x3C }
  - { offset: 0x1630EB, size: 0x8, addend: 0x0, symName: __ZNK5Eigen9DenseBaseINS_13CwiseBinaryOpINS_8internal17scalar_product_opIddEEKNS_9TransposeIKNS_5BlockIKNS6_IKNS_3MapINS_6MatrixIdLi2ELi2ELi0ELi2ELi2EEELi0ENS_11OuterStrideILin1EEEEELi1ELi2ELb0EEELi1ELi1ELb0EEEEEKNS6_INS7_INS8_IdLi2ELi1ELi0ELi2ELi1EEELi0ENS_6StrideILi0ELi0EEEEELi1ELi1ELb0EEEEEE5reduxINS2_13scalar_sum_opIddEEEEdRKT_, symObjAddr: 0x47C94, symBinAddr: 0x100048424, symSize: 0x118 }
  - { offset: 0x163175, size: 0x8, addend: 0x0, symName: __ZN5Eigen8internal15redux_evaluatorINS_13CwiseBinaryOpINS0_17scalar_product_opIddEEKNS_9TransposeIKNS_5BlockIKNS6_IKNS_3MapINS_6MatrixIdLi2ELi2ELi0ELi2ELi2EEELi0ENS_11OuterStrideILin1EEEEELi1ELi2ELb0EEELi1ELi1ELb0EEEEEKNS6_INS7_INS8_IdLi2ELi1ELi0ELi2ELi1EEELi0ENS_6StrideILi0ELi0EEEEELi1ELi1ELb0EEEEEED1Ev, symObjAddr: 0x47C74, symBinAddr: 0x100048404, symSize: 0x20 }
  - { offset: 0x1631B9, size: 0x8, addend: 0x0, symName: __ZN5Eigen8internal9evaluatorINS_13CwiseBinaryOpINS0_17scalar_product_opIddEEKNS_9TransposeIKNS_5BlockIKNS6_IKNS_3MapINS_6MatrixIdLi2ELi2ELi0ELi2ELi2EEELi0ENS_11OuterStrideILin1EEEEELi1ELi2ELb0EEELi1ELi1ELb0EEEEEKNS6_INS7_INS8_IdLi2ELi1ELi0ELi2ELi1EEELi0ENS_6StrideILi0ELi0EEEEELi1ELi1ELb0EEEEEED2Ev, symObjAddr: 0x47C54, symBinAddr: 0x1000483E4, symSize: 0x20 }
  - { offset: 0x1631FD, size: 0x8, addend: 0x0, symName: __ZN5Eigen8internal16binary_evaluatorINS_13CwiseBinaryOpINS0_17scalar_product_opIddEEKNS_9TransposeIKNS_5BlockIKNS6_IKNS_3MapINS_6MatrixIdLi2ELi2ELi0ELi2ELi2EEELi0ENS_11OuterStrideILin1EEEEELi1ELi2ELb0EEELi1ELi1ELb0EEEEEKNS6_INS7_INS8_IdLi2ELi1ELi0ELi2ELi1EEELi0ENS_6StrideILi0ELi0EEEEELi1ELi1ELb0EEEEENS0_10IndexBasedESR_ddED2Ev, symObjAddr: 0x47C2C, symBinAddr: 0x1000483BC, symSize: 0x28 }
  - { offset: 0x163241, size: 0x8, addend: 0x0, symName: __ZN5Eigen8internal16binary_evaluatorINS_13CwiseBinaryOpINS0_17scalar_product_opIddEEKNS_9TransposeIKNS_5BlockIKNS6_IKNS_3MapINS_6MatrixIdLi2ELi2ELi0ELi2ELi2EEELi0ENS_11OuterStrideILin1EEEEELi1ELi2ELb0EEELi1ELi1ELb0EEEEEKNS6_INS7_INS8_IdLi2ELi1ELi0ELi2ELi1EEELi0ENS_6StrideILi0ELi0EEEEELi1ELi1ELb0EEEEENS0_10IndexBasedESR_ddE4DataD1Ev, symObjAddr: 0x47BFC, symBinAddr: 0x10004838C, symSize: 0x30 }
  - { offset: 0x163284, size: 0x8, addend: 0x0, symName: __ZN5Eigen8internal9evaluatorIKNS_5BlockINS_3MapINS_6MatrixIdLi2ELi1ELi0ELi2ELi1EEELi0ENS_6StrideILi0ELi0EEEEELi1ELi1ELb0EEEED1Ev, symObjAddr: 0x47BDC, symBinAddr: 0x10004836C, symSize: 0x20 }
  - { offset: 0x1632C8, size: 0x8, addend: 0x0, symName: __ZN5Eigen8internal9evaluatorINS_5BlockINS_3MapINS_6MatrixIdLi2ELi1ELi0ELi2ELi1EEELi0ENS_6StrideILi0ELi0EEEEELi1ELi1ELb0EEEED2Ev, symObjAddr: 0x47BBC, symBinAddr: 0x10004834C, symSize: 0x20 }
  - { offset: 0x16330C, size: 0x8, addend: 0x0, symName: __ZN5Eigen8internal15block_evaluatorINS_3MapINS_6MatrixIdLi2ELi1ELi0ELi2ELi1EEELi0ENS_6StrideILi0ELi0EEEEELi1ELi1ELb0ELb1EED2Ev, symObjAddr: 0x47B9C, symBinAddr: 0x10004832C, symSize: 0x20 }
  - { offset: 0x163350, size: 0x8, addend: 0x0, symName: __ZN5Eigen8internal17mapbase_evaluatorINS_5BlockINS_3MapINS_6MatrixIdLi2ELi1ELi0ELi2ELi1EEELi0ENS_6StrideILi0ELi0EEEEELi1ELi1ELb0EEENS4_IdLi1ELi1ELi0ELi1ELi1EEEED2Ev, symObjAddr: 0x47B7C, symBinAddr: 0x10004830C, symSize: 0x20 }
  - { offset: 0x163393, size: 0x8, addend: 0x0, symName: __ZN5Eigen8internal9evaluatorIKNS_9TransposeIKNS_5BlockIKNS3_IKNS_3MapINS_6MatrixIdLi2ELi2ELi0ELi2ELi2EEELi0ENS_11OuterStrideILin1EEEEELi1ELi2ELb0EEELi1ELi1ELb0EEEEEED1Ev, symObjAddr: 0x47B5C, symBinAddr: 0x1000482EC, symSize: 0x20 }
  - { offset: 0x1633D6, size: 0x8, addend: 0x0, symName: __ZN5Eigen8internal9evaluatorINS_9TransposeIKNS_5BlockIKNS3_IKNS_3MapINS_6MatrixIdLi2ELi2ELi0ELi2ELi2EEELi0ENS_11OuterStrideILin1EEEEELi1ELi2ELb0EEELi1ELi1ELb0EEEEEED2Ev, symObjAddr: 0x47B3C, symBinAddr: 0x1000482CC, symSize: 0x20 }
  - { offset: 0x16341A, size: 0x8, addend: 0x0, symName: __ZN5Eigen8internal15unary_evaluatorINS_9TransposeIKNS_5BlockIKNS3_IKNS_3MapINS_6MatrixIdLi2ELi2ELi0ELi2ELi2EEELi0ENS_11OuterStrideILin1EEEEELi1ELi2ELb0EEELi1ELi1ELb0EEEEENS0_10IndexBasedEdED2Ev, symObjAddr: 0x47B14, symBinAddr: 0x1000482A4, symSize: 0x28 }
  - { offset: 0x16345D, size: 0x8, addend: 0x0, symName: __ZN5Eigen8internal9evaluatorIKNS_5BlockIKNS2_IKNS_3MapINS_6MatrixIdLi2ELi2ELi0ELi2ELi2EEELi0ENS_11OuterStrideILin1EEEEELi1ELi2ELb0EEELi1ELi1ELb0EEEED1Ev, symObjAddr: 0x47AF4, symBinAddr: 0x100048284, symSize: 0x20 }
  - { offset: 0x1634A1, size: 0x8, addend: 0x0, symName: __ZN5Eigen8internal9evaluatorINS_5BlockIKNS2_IKNS_3MapINS_6MatrixIdLi2ELi2ELi0ELi2ELi2EEELi0ENS_11OuterStrideILin1EEEEELi1ELi2ELb0EEELi1ELi1ELb0EEEED2Ev, symObjAddr: 0x47AD4, symBinAddr: 0x100048264, symSize: 0x20 }
  - { offset: 0x1634E5, size: 0x8, addend: 0x0, symName: __ZN5Eigen8internal15block_evaluatorIKNS_5BlockIKNS_3MapINS_6MatrixIdLi2ELi2ELi0ELi2ELi2EEELi0ENS_11OuterStrideILin1EEEEELi1ELi2ELb0EEELi1ELi1ELb0ELb1EED2Ev, symObjAddr: 0x47AB4, symBinAddr: 0x100048244, symSize: 0x20 }
  - { offset: 0x163529, size: 0x8, addend: 0x0, symName: __ZN5Eigen8internal17mapbase_evaluatorINS_5BlockIKNS2_IKNS_3MapINS_6MatrixIdLi2ELi2ELi0ELi2ELi2EEELi0ENS_11OuterStrideILin1EEEEELi1ELi2ELb0EEELi1ELi1ELb0EEENS4_IdLi1ELi1ELi1ELi1ELi1EEEED2Ev, symObjAddr: 0x47A94, symBinAddr: 0x100048224, symSize: 0x20 }
  - { offset: 0x16354F, size: 0x8, addend: 0x0, symName: __ZNK5Eigen9EigenBaseINS_13CwiseBinaryOpINS_8internal17scalar_product_opIddEEKNS_9TransposeIKNS_5BlockIKNS6_IKNS_3MapINS_6MatrixIdLi2ELi2ELi0ELi2ELi2EEELi0ENS_11OuterStrideILin1EEEEELi1ELi2ELb0EEELi1ELi1ELb0EEEEEKNS6_INS7_INS8_IdLi2ELi1ELi0ELi2ELi1EEELi0ENS_6StrideILi0ELi0EEEEELi1ELi1ELb0EEEEEE7derivedEv, symObjAddr: 0x47A80, symBinAddr: 0x100048210, symSize: 0x14 }
  - { offset: 0x1635C4, size: 0x8, addend: 0x0, symName: __ZN5Eigen13CwiseBinaryOpINS_8internal17scalar_product_opIddEEKNS_9TransposeIKNS_5BlockIKNS5_IKNS_3MapINS_6MatrixIdLi2ELi2ELi0ELi2ELi2EEELi0ENS_11OuterStrideILin1EEEEELi1ELi2ELb0EEELi1ELi1ELb0EEEEEKNS5_INS6_INS7_IdLi2ELi1ELi0ELi2ELi1EEELi0ENS_6StrideILi0ELi0EEEEELi1ELi1ELb0EEEEC1ERSI_RSO_RKS3_, symObjAddr: 0x47990, symBinAddr: 0x100048120, symSize: 0xF0 }
  - { offset: 0x163638, size: 0x8, addend: 0x0, symName: __ZN5Eigen5BlockINS_3MapINS_6MatrixIdLi2ELi1ELi0ELi2ELi1EEELi0ENS_6StrideILi0ELi0EEEEELi1ELi1ELb0EEC1ERKS7_, symObjAddr: 0x47968, symBinAddr: 0x1000480F8, symSize: 0x28 }
  - { offset: 0x163686, size: 0x8, addend: 0x0, symName: __ZN5Eigen9BlockImplINS_3MapINS_6MatrixIdLi2ELi1ELi0ELi2ELi1EEELi0ENS_6StrideILi0ELi0EEEEELi1ELi1ELb0ENS_5DenseEEC2ERKS8_, symObjAddr: 0x47940, symBinAddr: 0x1000480D0, symSize: 0x28 }
  - { offset: 0x1636D4, size: 0x8, addend: 0x0, symName: __ZN5Eigen8internal15BlockImpl_denseINS_3MapINS_6MatrixIdLi2ELi1ELi0ELi2ELi1EEELi0ENS_6StrideILi0ELi0EEEEELi1ELi1ELb0ELb1EEC2ERKS8_, symObjAddr: 0x478B0, symBinAddr: 0x100048040, symSize: 0x90 }
  - { offset: 0x163722, size: 0x8, addend: 0x0, symName: __ZN5Eigen9TransposeIKNS_5BlockIKNS1_IKNS_3MapINS_6MatrixIdLi2ELi2ELi0ELi2ELi2EEELi0ENS_11OuterStrideILin1EEEEELi1ELi2ELb0EEELi1ELi1ELb0EEEEC1ERKSD_, symObjAddr: 0x47888, symBinAddr: 0x100048018, symSize: 0x28 }
  - { offset: 0x163779, size: 0x8, addend: 0x0, symName: __ZN5Eigen17CwiseBinaryOpImplINS_8internal17scalar_product_opIddEEKNS_9TransposeIKNS_5BlockIKNS5_IKNS_3MapINS_6MatrixIdLi2ELi2ELi0ELi2ELi2EEELi0ENS_11OuterStrideILin1EEEEELi1ELi2ELb0EEELi1ELi1ELb0EEEEEKNS5_INS6_INS7_IdLi2ELi1ELi0ELi2ELi1EEELi0ENS_6StrideILi0ELi0EEEEELi1ELi1ELb0EEENS_5DenseEEC2Ev, symObjAddr: 0x47868, symBinAddr: 0x100047FF8, symSize: 0x20 }
  - { offset: 0x1637B9, size: 0x8, addend: 0x0, symName: __ZN5Eigen10MatrixBaseINS_13CwiseBinaryOpINS_8internal17scalar_product_opIddEEKNS_9TransposeIKNS_5BlockIKNS6_IKNS_3MapINS_6MatrixIdLi2ELi2ELi0ELi2ELi2EEELi0ENS_11OuterStrideILin1EEEEELi1ELi2ELb0EEELi1ELi1ELb0EEEEEKNS6_INS7_INS8_IdLi2ELi1ELi0ELi2ELi1EEELi0ENS_6StrideILi0ELi0EEEEELi1ELi1ELb0EEEEEEC2Ev, symObjAddr: 0x47848, symBinAddr: 0x100047FD8, symSize: 0x20 }
  - { offset: 0x1637DF, size: 0x8, addend: 0x0, symName: __ZNK5Eigen9EigenBaseINS_5BlockINS_3MapINS_6MatrixIdLi2ELi1ELi0ELi2ELi1EEELi0ENS_6StrideILi0ELi0EEEEELi1ELi1ELb0EEEE7derivedEv, symObjAddr: 0x47834, symBinAddr: 0x100047FC4, symSize: 0x14 }
  - { offset: 0x163809, size: 0x8, addend: 0x0, symName: __ZNK5Eigen9EigenBaseINS_9TransposeIKNS_5BlockIKNS2_IKNS_3MapINS_6MatrixIdLi2ELi2ELi0ELi2ELi2EEELi0ENS_11OuterStrideILin1EEEEELi1ELi2ELb0EEELi1ELi1ELb0EEEEEE7derivedEv, symObjAddr: 0x47820, symBinAddr: 0x100047FB0, symSize: 0x14 }
  - { offset: 0x163874, size: 0x8, addend: 0x0, symName: __ZN5Eigen11VectorBlockINS_3MapINS_6MatrixIdLi2ELi1ELi0ELi2ELi1EEELi0ENS_6StrideILi0ELi0EEEEELi1EEC1ERS6_ll, symObjAddr: 0x477E0, symBinAddr: 0x100047F70, symSize: 0x40 }
  - { offset: 0x1638DC, size: 0x8, addend: 0x0, symName: __ZN5Eigen9TransposeIKNS_5BlockIKNS1_IKNS_3MapINS_6MatrixIdLi2ELi2ELi0ELi2ELi2EEELi0ENS_11OuterStrideILin1EEEEELi1ELi2ELb0EEELi1ELi1ELb0EEEEC1ERSC_, symObjAddr: 0x477B0, symBinAddr: 0x100047F40, symSize: 0x30 }
  - { offset: 0x16392A, size: 0x8, addend: 0x0, symName: __ZN5Eigen5BlockIKNS0_IKNS_3MapINS_6MatrixIdLi2ELi2ELi0ELi2ELi2EEELi0ENS_11OuterStrideILin1EEEEELi1ELi2ELb0EEELi1ELi1ELb0EEC1ERKSA_, symObjAddr: 0x47788, symBinAddr: 0x100047F18, symSize: 0x28 }
  - { offset: 0x163978, size: 0x8, addend: 0x0, symName: __ZN5Eigen9BlockImplIKNS_5BlockIKNS_3MapINS_6MatrixIdLi2ELi2ELi0ELi2ELi2EEELi0ENS_11OuterStrideILin1EEEEELi1ELi2ELb0EEELi1ELi1ELb0ENS_5DenseEEC2ERKSC_, symObjAddr: 0x47760, symBinAddr: 0x100047EF0, symSize: 0x28 }
  - { offset: 0x1639C6, size: 0x8, addend: 0x0, symName: __ZN5Eigen8internal15BlockImpl_denseIKNS_5BlockIKNS_3MapINS_6MatrixIdLi2ELi2ELi0ELi2ELi2EEELi0ENS_11OuterStrideILin1EEEEELi1ELi2ELb0EEELi1ELi1ELb0ELb1EEC2ERKSC_, symObjAddr: 0x476A8, symBinAddr: 0x100047E38, symSize: 0xB8 }
  - { offset: 0x163A0F, size: 0x8, addend: 0x0, symName: __ZN5Eigen13TransposeImplIKNS_5BlockIKNS1_IKNS_3MapINS_6MatrixIdLi2ELi2ELi0ELi2ELi2EEELi0ENS_11OuterStrideILin1EEEEELi1ELi2ELb0EEELi1ELi1ELb0EEENS_5DenseEEC2Ev, symObjAddr: 0x47688, symBinAddr: 0x100047E18, symSize: 0x20 }
  - { offset: 0x163A4F, size: 0x8, addend: 0x0, symName: __ZN5Eigen10MatrixBaseINS_9TransposeIKNS_5BlockIKNS2_IKNS_3MapINS_6MatrixIdLi2ELi2ELi0ELi2ELi2EEELi0ENS_11OuterStrideILin1EEEEELi1ELi2ELb0EEELi1ELi1ELb0EEEEEEC2Ev, symObjAddr: 0x47668, symBinAddr: 0x100047DF8, symSize: 0x20 }
  - { offset: 0x163A75, size: 0x8, addend: 0x0, symName: __ZNK5Eigen9EigenBaseINS_5BlockIKNS1_IKNS_3MapINS_6MatrixIdLi2ELi2ELi0ELi2ELi2EEELi0ENS_11OuterStrideILin1EEEEELi1ELi2ELb0EEELi1ELi1ELb0EEEE7derivedEv, symObjAddr: 0x47654, symBinAddr: 0x100047DE4, symSize: 0x14 }
  - { offset: 0x163AE0, size: 0x8, addend: 0x0, symName: __ZN5Eigen11VectorBlockIKNS_5BlockIKNS_3MapINS_6MatrixIdLi2ELi2ELi0ELi2ELi2EEELi0ENS_11OuterStrideILin1EEEEELi1ELi2ELb0EEELi1EEC1ERSA_ll, symObjAddr: 0x47614, symBinAddr: 0x100047DA4, symSize: 0x40 }
  - { offset: 0x163B55, size: 0x8, addend: 0x0, symName: __ZN5Eigen9BlockImplIKNS_3MapINS_6MatrixIdLi2ELi2ELi0ELi2ELi2EEELi0ENS_11OuterStrideILin1EEEEELi1ELi2ELb0ENS_5DenseEEC2ERS7_l, symObjAddr: 0x475E4, symBinAddr: 0x100047D74, symSize: 0x30 }
  - { offset: 0x163B89, size: 0x8, addend: 0x0, symName: __ZN5Eigen8internal10AssignmentINS_3MapINS_6MatrixIdLi2ELi1ELi0ELi2ELi1EEELi0ENS_6StrideILi0ELi0EEEEES7_NS0_9assign_opIddEENS0_11Dense2DenseEvE3runERS7_RKS7_RKS9_, symObjAddr: 0x475A8, symBinAddr: 0x100047D38, symSize: 0x3C }
  - { offset: 0x163BD9, size: 0x8, addend: 0x0, symName: __ZNK5Eigen9EigenBaseINS_3MapIKNS_6MatrixIdLin1ELi1ELi0ELin1ELi1EEELi16ENS_6StrideILi0ELi0EEEEEE4sizeEv, symObjAddr: 0x47574, symBinAddr: 0x100047D04, symSize: 0x34 }
  - { offset: 0x163BFF, size: 0x8, addend: 0x0, symName: __ZN5Eigen8internal4paddIdEET_RKS2_S4_, symObjAddr: 0x47548, symBinAddr: 0x100047CD8, symSize: 0x2C }
  - { offset: 0x163C41, size: 0x8, addend: 0x0, symName: __ZN5Eigen8internal26call_dense_assignment_loopINS_3MapINS_6MatrixIdLin1ELin1ELi0ELin1ELin1EEELi16ENS_11OuterStrideILin1EEEEES7_NS0_9assign_opIddEEEEvRT_RKT0_RKT1_, symObjAddr: 0x47498, symBinAddr: 0x100047C28, symSize: 0xB0 }
  - { offset: 0x163D06, size: 0x8, addend: 0x0, symName: __ZN5Eigen8internal18check_for_aliasingINS_3MapINS_6MatrixIdLin1ELin1ELi0ELin1ELin1EEELi16ENS_11OuterStrideILin1EEEEES7_EEvRKT_RKT0_, symObjAddr: 0x47438, symBinAddr: 0x100047BC8, symSize: 0x60 }
  - { offset: 0x163D7F, size: 0x8, addend: 0x0, symName: __ZN5Eigen8internal16binary_evaluatorINS_13CwiseBinaryOpINS0_17scalar_product_opIddEEKNS_12CwiseUnaryOpINS0_18scalar_opposite_opIdEEKNS2_INS0_20scalar_difference_opIddEEKNS_12ArrayWrapperINS_6MatrixIdLin1ELi1ELi0ELin1ELi1EEEEEKNS_14CwiseNullaryOpINS0_18scalar_constant_opIdEEKNS_5ArrayIdLin1ELi1ELi0ELin1ELi1EEEEEEEEESO_EENS0_10IndexBasedESS_ddEC2ERKSR_, symObjAddr: 0x473EC, symBinAddr: 0x100047B7C, symSize: 0x4C }
  - { offset: 0x163DD6, size: 0x8, addend: 0x0, symName: __ZN5Eigen8internal15unary_evaluatorINS_12ArrayWrapperINS_6MatrixIdLin1ELi1ELi0ELin1ELi1EEEEENS0_10IndexBasedEdEC2ERKS5_, symObjAddr: 0x473B0, symBinAddr: 0x100047B40, symSize: 0x3C }
  - { offset: 0x163E01, size: 0x8, addend: 0x0, symName: __ZN5Eigen8internal15call_assignmentINS_5BlockINS2_INS_6MatrixIdLin1ELi1ELi0ELin1ELi1EEELin1ELi1ELb1EEELi1ELi1ELb0EEENS2_IKS5_Li1ELi1ELb0EEEEEvRT_RKT0_, symObjAddr: 0x47374, symBinAddr: 0x100047B04, symSize: 0x3C }
  - { offset: 0x163E52, size: 0x8, addend: 0x0, symName: __ZNK5Eigen9EigenBaseINS_5BlockIKNS1_INS_6MatrixIdLin1ELi1ELi0ELin1ELi1EEELin1ELi1ELb1EEELi1ELi1ELb0EEEE7derivedEv, symObjAddr: 0x47360, symBinAddr: 0x100047AF0, symSize: 0x14 }
  - { offset: 0x163EB0, size: 0x8, addend: 0x0, symName: __ZN5Eigen9BlockImplIKNS_5BlockINS_6MatrixIdLin1ELi1ELi0ELin1ELi1EEELin1ELi1ELb1EEELi1ELi1ELb0ENS_5DenseEEC2ERS5_l, symObjAddr: 0x47330, symBinAddr: 0x100047AC0, symSize: 0x30 }
  - { offset: 0x163EE8, size: 0x8, addend: 0x0, symName: __ZNK5Eigen8internal15BlockImpl_denseINS_6MatrixIdLin1ELi1ELi0ELin1ELi1EEELin1ELi1ELb1ELb1EE11outerStrideEv, symObjAddr: 0x47310, symBinAddr: 0x100047AA0, symSize: 0x20 }
  - { offset: 0x163F12, size: 0x8, addend: 0x0, symName: __ZNK5Eigen8internal15BlockImpl_denseINS_6MatrixIdLin1ELi1ELi0ELin1ELi1EEELin1ELi1ELb1ELb1EE11innerStrideEv, symObjAddr: 0x472F0, symBinAddr: 0x100047A80, symSize: 0x20 }
  - { offset: 0x163F3C, size: 0x8, addend: 0x0, symName: __ZNK5Eigen7MapBaseINS_5BlockINS_6MatrixIdLin1ELi1ELi0ELin1ELi1EEELin1ELi1ELb1EEELi1EE4dataEv, symObjAddr: 0x472D8, symBinAddr: 0x100047A68, symSize: 0x18 }
  - { offset: 0x163F66, size: 0x8, addend: 0x0, symName: __ZNK5Eigen18TriangularViewImplINS_3MapIKNS_6MatrixIdLin1ELin1ELi0ELin1ELin1EEELi0ENS_11OuterStrideILin1EEEEELj2ENS_5DenseEE12solveInPlaceILi1ENS1_INS2_IdLin1ELi1ELi0ELin1ELi1EEELi0ES6_EEEEvRKNS_10MatrixBaseIT0_EE, symObjAddr: 0x471C8, symBinAddr: 0x100047958, symSize: 0x110 }
  - { offset: 0x163FF9, size: 0x8, addend: 0x0, symName: __ZN5Eigen7MapBaseINS_3MapINS_6MatrixIdLin1ELi1ELi0ELin1ELi1EEELi0ENS_11OuterStrideILin1EEEEELi1EEaSERKS7_, symObjAddr: 0x4719C, symBinAddr: 0x10004792C, symSize: 0x2C }
  - { offset: 0x164036, size: 0x8, addend: 0x0, symName: __ZN5Eigen8internal19gemv_dense_selectorILi2ELi0ELb1EE3runINS_3MapIKNS_6MatrixIdLin1ELin1ELi0ELin1ELin1EEELi0ENS_11OuterStrideILin1EEEEENS4_INS5_IdLin1ELi1ELi0ELin1ELi1EEELi0ES9_EENS_5BlockISB_Lin1ELi1ELb0EEEEEvRKT_RKT0_RT1_RKNSL_6ScalarE, symObjAddr: 0x46F50, symBinAddr: 0x1000476E0, symSize: 0x24C }
  - { offset: 0x164319, size: 0x8, addend: 0x0, symName: __ZNK5Eigen10MatrixBaseINS_5BlockIKNS_3MapIKNS_6MatrixIdLin1ELin1ELi0ELin1ELin1EEELi0ENS_11OuterStrideILin1EEEEELi1ELin1ELb0EEEE3dotINS1_IKNS2_INS3_IdLin1ELi1ELi0ELin1ELi1EEELi0ES7_EELin1ELi1ELb1EEEEENS_20ScalarBinaryOpTraitsIdNS_8internal6traitsIT_E6ScalarENSI_17scalar_product_opIdSM_EEE10ReturnTypeERKNS0_ISK_EE, symObjAddr: 0x46ED0, symBinAddr: 0x100047660, symSize: 0x80 }
  - { offset: 0x164366, size: 0x8, addend: 0x0, symName: __ZNK5Eigen9DenseBaseINS_3MapINS_6MatrixIdLin1ELi1ELi0ELin1ELi1EEELi0ENS_11OuterStrideILin1EEEEEE3colEl, symObjAddr: 0x46E90, symBinAddr: 0x100047620, symSize: 0x40 }
  - { offset: 0x1643A1, size: 0x8, addend: 0x0, symName: __ZNK5Eigen9DenseBaseINS_5BlockIKNS_3MapIKNS_6MatrixIdLin1ELin1ELi0ELin1ELin1EEELi0ENS_11OuterStrideILin1EEEEELi1ELin1ELb0EEEE9conjugateEv, symObjAddr: 0x46E74, symBinAddr: 0x100047604, symSize: 0x1C }
  - { offset: 0x1643CB, size: 0x8, addend: 0x0, symName: __ZNK5Eigen9DenseBaseINS_3MapIKNS_6MatrixIdLin1ELin1ELi0ELin1ELin1EEELi0ENS_11OuterStrideILin1EEEEEE3rowEl, symObjAddr: 0x46E34, symBinAddr: 0x1000475C4, symSize: 0x40 }
  - { offset: 0x164406, size: 0x8, addend: 0x0, symName: __ZNK5Eigen18TriangularViewImplINS_3MapIKNS_6MatrixIdLin1ELin1ELi0ELin1ELin1EEELi0ENS_11OuterStrideILin1EEEEELj5ENS_5DenseEE12solveInPlaceINS1_INS2_IdLin1ELi1ELi0ELin1ELi1EEELi0ES6_EEEEvRKNS_10MatrixBaseIT_EE, symObjAddr: 0x46E0C, symBinAddr: 0x10004759C, symSize: 0x28 }
  - { offset: 0x16444A, size: 0x8, addend: 0x0, symName: __ZNK5Eigen14TriangularViewINS_3MapIKNS_6MatrixIdLin1ELin1ELi0ELin1ELin1EEELi0ENS_11OuterStrideILin1EEEEELj5EE4colsEv, symObjAddr: 0x46DF0, symBinAddr: 0x100047580, symSize: 0x1C }
  - { offset: 0x164470, size: 0x8, addend: 0x0, symName: __ZN5Eigen8internal15call_assignmentINS_5BlockINS2_INS_6MatrixIdLin1ELi1ELi0ELin1ELi1EEELin1ELi1ELb1EEELi1ELi1ELb0EEENS2_IKNS2_INS_12CwiseUnaryOpINS0_18scalar_opposite_opIdEEKS4_EELin1ELi1ELb1EEELi1ELi1ELb0EEEEEvRT_RKT0_, symObjAddr: 0x46DB4, symBinAddr: 0x100047544, symSize: 0x3C }
  - { offset: 0x1644C1, size: 0x8, addend: 0x0, symName: __ZNK5Eigen9EigenBaseINS_5BlockIKNS1_INS_12CwiseUnaryOpINS_8internal18scalar_opposite_opIdEEKNS_6MatrixIdLin1ELi1ELi0ELin1ELi1EEEEELin1ELi1ELb1EEELi1ELi1ELb0EEEE7derivedEv, symObjAddr: 0x46DA0, symBinAddr: 0x100047530, symSize: 0x14 }
  - { offset: 0x16451F, size: 0x8, addend: 0x0, symName: __ZN5Eigen9BlockImplIKNS_5BlockINS_12CwiseUnaryOpINS_8internal18scalar_opposite_opIdEEKNS_6MatrixIdLin1ELi1ELi0ELin1ELi1EEEEELin1ELi1ELb1EEELi1ELi1ELb0ENS_5DenseEEC2ERSB_l, symObjAddr: 0x46D70, symBinAddr: 0x100047500, symSize: 0x30 }
  - { offset: 0x164553, size: 0x8, addend: 0x0, symName: __ZN5Eigen8internal15call_assignmentINS_5BlockINS2_INS_6MatrixIdLin1ELi1ELi0ELin1ELi1EEELin1ELi1ELb1EEELi1ELi1ELb0EEES6_NS0_14swap_assign_opIdEEEEvRT_RKT0_RKT1_NS0_9enable_ifIXntsrNS0_25evaluator_assume_aliasingISB_NS0_16evaluator_traitsISB_E5ShapeEEE5valueEPvE4typeE, symObjAddr: 0x46D3C, symBinAddr: 0x1000474CC, symSize: 0x34 }
  - { offset: 0x1645E1, size: 0x8, addend: 0x0, symName: __ZN5Eigen8internal14swap_assign_opIdEC1Ev, symObjAddr: 0x46D28, symBinAddr: 0x1000474B8, symSize: 0x14 }
  - { offset: 0x164607, size: 0x8, addend: 0x0, symName: __ZNK5Eigen9EigenBaseINS_5BlockINS1_INS_6MatrixIdLin1ELi1ELi0ELin1ELi1EEELin1ELi1ELb1EEELi1ELi1ELb0EEEE18const_cast_derivedEv, symObjAddr: 0x46D14, symBinAddr: 0x1000474A4, symSize: 0x14 }
  - { offset: 0x164631, size: 0x8, addend: 0x0, symName: __ZN5Eigen9EigenBaseINS_5BlockINS1_INS_6MatrixIdLin1ELi1ELi0ELin1ELi1EEELin1ELi1ELb1EEELi1ELi1ELb0EEEE7derivedEv, symObjAddr: 0x46D00, symBinAddr: 0x100047490, symSize: 0x14 }
  - { offset: 0x16465B, size: 0x8, addend: 0x0, symName: __ZNK5Eigen9EigenBaseINS_5BlockINS1_INS_6MatrixIdLin1ELi1ELi0ELin1ELi1EEELin1ELi1ELb1EEELi1ELi1ELb0EEEE4colsEv, symObjAddr: 0x46CE0, symBinAddr: 0x100047470, symSize: 0x20 }
  - { offset: 0x164685, size: 0x8, addend: 0x0, symName: __ZNK5Eigen9EigenBaseINS_5BlockINS1_INS_6MatrixIdLin1ELi1ELi0ELin1ELi1EEELin1ELi1ELb1EEELi1ELi1ELb0EEEE4rowsEv, symObjAddr: 0x46CC0, symBinAddr: 0x100047450, symSize: 0x20 }
  - { offset: 0x1646E3, size: 0x8, addend: 0x0, symName: __ZN5Eigen9BlockImplINS_5BlockINS_6MatrixIdLin1ELi1ELi0ELin1ELi1EEELin1ELi1ELb1EEELi1ELi1ELb0ENS_5DenseEEC2ERS4_l, symObjAddr: 0x46C90, symBinAddr: 0x100047420, symSize: 0x30 }
  - { offset: 0x164717, size: 0x8, addend: 0x0, symName: __ZSt9__fill_a1IPbbEvT_S1_RKT0_, symObjAddr: 0x46C30, symBinAddr: 0x1000473C0, symSize: 0x60 }
  - { offset: 0x1647A8, size: 0x8, addend: 0x0, symName: __ZNK5Eigen8internal16binary_evaluatorINS_13CwiseBinaryOpINS0_22scalar_conj_product_opIddEEKNS_9TransposeIKNS_5BlockIKNS_3MapINS_6MatrixIdLin1ELin1ELi0ELin1ELin1EEELi0ENS_11OuterStrideILin1EEEEELi1ELin1ELb0EEEEEKNS6_IKNS6_INS8_IdLin1ELi1ELi0ELin1ELi1EEELin1ELi1ELb0EEELin1ELi1ELb1EEEEENS0_10IndexBasedESO_ddE5coeffEll, symObjAddr: 0x46BA8, symBinAddr: 0x100047338, symSize: 0x88 }
  - { offset: 0x16481C, size: 0x8, addend: 0x0, symName: __ZN5Eigen8internal16binary_evaluatorINS_13CwiseBinaryOpINS0_22scalar_conj_product_opIddEEKNS_9TransposeIKNS_5BlockIKNS_3MapINS_6MatrixIdLin1ELin1ELi0ELin1ELin1EEELi0ENS_11OuterStrideILin1EEEEELi1ELin1ELb0EEEEEKNS6_IKNS6_INS8_IdLin1ELi1ELi0ELin1ELi1EEELin1ELi1ELb0EEELin1ELi1ELb1EEEEENS0_10IndexBasedESO_ddEC2ERKSN_, symObjAddr: 0x46B5C, symBinAddr: 0x1000472EC, symSize: 0x4C }
  - { offset: 0x164847, size: 0x8, addend: 0x0, symName: __ZN5Eigen8internal24call_assignment_no_aliasINS_5BlockINS_6MatrixIdLin1ELi1ELi0ELin1ELi1EEELin1ELi1ELb0EEENS_3MapIS4_Li16ENS_6StrideILi0ELi0EEEEENS0_9assign_opIddEEEEvRT_RKT0_RKT1_, symObjAddr: 0x46B24, symBinAddr: 0x1000472B4, symSize: 0x38 }
  - { offset: 0x1648DD, size: 0x8, addend: 0x0, symName: __ZN5Eigen8internal24call_assignment_no_aliasINS_3MapINS_6MatrixIdLin1ELi1ELi0ELin1ELi1EEELi0ENS_6StrideILi0ELi0EEEEENS_13CwiseBinaryOpINS0_17scalar_product_opIddEEKNS_14CwiseNullaryOpINS0_18scalar_constant_opIdEEKS4_EEKNS_5BlockIKNSH_IKNS2_IKNS3_IdLin1ELin1ELi0ELin1ELin1EEELi0ENS_11OuterStrideILin1EEEEELin1ELi1ELb1EEELin1ELi1ELb0EEEEENS0_13sub_assign_opIddEEEEvRT_RKT0_RKT1_, symObjAddr: 0x46AEC, symBinAddr: 0x10004727C, symSize: 0x38 }
  - { offset: 0x164991, size: 0x8, addend: 0x0, symName: __ZN5Eigen9DenseBaseINS_13CwiseBinaryOpINS_8internal17scalar_product_opIddEEKNS_14CwiseNullaryOpINS2_18scalar_constant_opIdEEKNS_6MatrixIdLin1ELi1ELi0ELin1ELi1EEEEEKNS_5BlockIKNSD_IKNS_3MapIKNS8_IdLin1ELin1ELi0ELin1ELin1EEELi0ENS_11OuterStrideILin1EEEEELin1ELi1ELb1EEELin1ELi1ELb0EEEEEEC2Ev, symObjAddr: 0x46AD8, symBinAddr: 0x100047268, symSize: 0x14 }
  - { offset: 0x164A1C, size: 0x8, addend: 0x0, symName: __ZN5Eigen5BlockIKNS0_IKNS_3MapIKNS_6MatrixIdLin1ELin1ELi0ELin1ELin1EEELi0ENS_11OuterStrideILin1EEEEELin1ELi1ELb1EEELin1ELi1ELb0EEC2ERSA_llll, symObjAddr: 0x468FC, symBinAddr: 0x10004708C, symSize: 0x1DC }
  - { offset: 0x164AB7, size: 0x8, addend: 0x0, symName: __ZN5Eigen9BlockImplIKNS_3MapIKNS_6MatrixIdLin1ELin1ELi0ELin1ELin1EEELi0ENS_11OuterStrideILin1EEEEELin1ELi1ELb1ENS_5DenseEEC2ERS8_l, symObjAddr: 0x468CC, symBinAddr: 0x10004705C, symSize: 0x30 }
  - { offset: 0x164AEF, size: 0x8, addend: 0x0, symName: __ZNK5Eigen15DenseCoeffsBaseINS_3MapIKNS_6MatrixIdLin1ELin1ELi0ELin1ELin1EEELi0ENS_11OuterStrideILin1EEEEELi2EE11outerStrideEv, symObjAddr: 0x468AC, symBinAddr: 0x10004703C, symSize: 0x20 }
  - { offset: 0x164B19, size: 0x8, addend: 0x0, symName: __ZNK5Eigen15DenseCoeffsBaseINS_3MapIKNS_6MatrixIdLin1ELin1ELi0ELin1ELin1EEELi0ENS_11OuterStrideILin1EEEEELi2EE11innerStrideEv, symObjAddr: 0x4688C, symBinAddr: 0x10004701C, symSize: 0x20 }
  - { offset: 0x164B3F, size: 0x8, addend: 0x0, symName: __ZN5Eigen8internal24call_assignment_no_aliasINS_3MapINS_6MatrixIdLin1ELi1ELi0ELin1ELi1EEELi16ENS_6StrideILi0ELi0EEEEENS_5BlockIS4_Lin1ELi1ELb0EEENS0_9assign_opIddEEEEvRT_RKT0_RKT1_, symObjAddr: 0x46854, symBinAddr: 0x100046FE4, symSize: 0x38 }
  - { offset: 0x164BD5, size: 0x8, addend: 0x0, symName: __ZN5Eigen8internal15call_assignmentINS_5BlockINS_6MatrixIdLin1ELi1ELi0ELin1ELi1EEELin1ELi1ELb0EEES5_NS0_9assign_opIddEEEEvRT_RKT0_RKT1_NS0_9enable_ifIXntsrNS0_25evaluator_assume_aliasingISA_NS0_16evaluator_traitsISA_E5ShapeEEE5valueEPvE4typeE, symObjAddr: 0x46820, symBinAddr: 0x100046FB0, symSize: 0x34 }
  - { offset: 0x164C45, size: 0x8, addend: 0x0, symName: __ZN5Eigen8internal15call_assignmentINS_3MapINS_6MatrixIdLin1ELi1ELi0ELin1ELi1EEELi0ENS_6StrideILi0ELi0EEEEENS2_IS4_Li16ES6_EENS0_9assign_opIddEEEEvRT_RKT0_RKT1_NS0_9enable_ifIXntsrNS0_25evaluator_assume_aliasingISD_NS0_16evaluator_traitsISD_E5ShapeEEE5valueEPvE4typeE, symObjAddr: 0x467EC, symBinAddr: 0x100046F7C, symSize: 0x34 }
  - { offset: 0x164CB5, size: 0x8, addend: 0x0, symName: __ZN5Eigen8internal15call_assignmentINS_3MapINS_6MatrixIdLin1ELi1ELi0ELin1ELi1EEELi16ENS_6StrideILi0ELi0EEEEENS2_IS4_Li0ES6_EENS0_9assign_opIddEEEEvRT_RKT0_RKT1_NS0_9enable_ifIXntsrNS0_25evaluator_assume_aliasingISD_NS0_16evaluator_traitsISD_E5ShapeEEE5valueEPvE4typeE, symObjAddr: 0x467B8, symBinAddr: 0x100046F48, symSize: 0x34 }
  - { offset: 0x164D25, size: 0x8, addend: 0x0, symName: __ZN5Eigen8internal24call_assignment_no_aliasINS_3MapINS_6MatrixIdLin1ELi1ELi0ELin1ELi1EEELi0ENS_6StrideILi0ELi0EEEEES7_NS0_9assign_opIddEEEEvRT_RKT0_RKT1_, symObjAddr: 0x46780, symBinAddr: 0x100046F10, symSize: 0x38 }
  - { offset: 0x164DBB, size: 0x8, addend: 0x0, symName: __ZN5Eigen8internal26triangular_solver_unrollerINS_3MapINS_6MatrixIdLi3ELi3ELi0ELi3ELi3EEELi0ENS_11OuterStrideILin1EEEEENS2_INS3_IdLi3ELi1ELi0ELi3ELi1EEELi0ENS_6StrideILi0ELi0EEEEELi5ELi2ELi3ELb0EE3runERKS7_RSB_, symObjAddr: 0x466BC, symBinAddr: 0x100046E4C, symSize: 0xC4 }
  - { offset: 0x164DFA, size: 0x8, addend: 0x0, symName: __ZNK5Eigen9DenseBaseINS_13CwiseBinaryOpINS_8internal17scalar_product_opIddEEKNS_9TransposeIKNS_5BlockIKNS6_IKNS_3MapINS_6MatrixIdLi3ELi3ELi0ELi3ELi3EEELi0ENS_11OuterStrideILin1EEEEELi1ELi3ELb0EEELi1ELi1ELb0EEEEEKNS6_INS7_INS8_IdLi3ELi1ELi0ELi3ELi1EEELi0ENS_6StrideILi0ELi0EEEEELi1ELi1ELb0EEEEEE3sumEv, symObjAddr: 0x46670, symBinAddr: 0x100046E00, symSize: 0x4C }
  - { offset: 0x164E24, size: 0x8, addend: 0x0, symName: __ZNK5Eigen10MatrixBaseINS_9TransposeIKNS_5BlockIKNS2_IKNS_3MapINS_6MatrixIdLi3ELi3ELi0ELi3ELi3EEELi0ENS_11OuterStrideILin1EEEEELi1ELi3ELb0EEELi1ELi1ELb0EEEEEE12cwiseProductINS2_INS3_INS4_IdLi3ELi1ELi0ELi3ELi1EEELi0ENS_6StrideILi0ELi0EEEEELi1ELi1ELb0EEEEEKNS_13CwiseBinaryOpINS_8internal17scalar_product_opIdNSN_6traitsIT_E6ScalarEEEKSE_KSQ_EERKNS0_ISQ_EE, symObjAddr: 0x46608, symBinAddr: 0x100046D98, symSize: 0x68 }
  - { offset: 0x164E67, size: 0x8, addend: 0x0, symName: __ZN5Eigen9DenseBaseINS_3MapINS_6MatrixIdLi3ELi1ELi0ELi3ELi1EEELi0ENS_6StrideILi0ELi0EEEEEE7segmentILi1EEENS7_22FixedSegmentReturnTypeIXT_EE4TypeEll, symObjAddr: 0x465C0, symBinAddr: 0x100046D50, symSize: 0x48 }
  - { offset: 0x164EBD, size: 0x8, addend: 0x0, symName: __ZNK5Eigen9DenseBaseINS_5BlockIKNS1_IKNS_3MapINS_6MatrixIdLi3ELi3ELi0ELi3ELi3EEELi0ENS_11OuterStrideILin1EEEEELi1ELi3ELb0EEELi1ELi1ELb0EEEE9transposeEv, symObjAddr: 0x46588, symBinAddr: 0x100046D18, symSize: 0x38 }
  - { offset: 0x164EE7, size: 0x8, addend: 0x0, symName: __ZNK5Eigen9DenseBaseINS_5BlockIKNS_3MapINS_6MatrixIdLi3ELi3ELi0ELi3ELi3EEELi0ENS_11OuterStrideILin1EEEEELi1ELi3ELb0EEEE7segmentILi1EEENSA_27ConstFixedSegmentReturnTypeIXT_EE4TypeEll, symObjAddr: 0x46540, symBinAddr: 0x100046CD0, symSize: 0x48 }
  - { offset: 0x164F5C, size: 0x8, addend: 0x0, symName: __ZN5Eigen3MapINS_6MatrixIdLi3ELi1ELi0ELi3ELi1EEELi0ENS_6StrideILi0ELi0EEEEC1ERKS5_, symObjAddr: 0x464D4, symBinAddr: 0x100046C64, symSize: 0x6C }
  - { offset: 0x164FAA, size: 0x8, addend: 0x0, symName: __ZN5Eigen5BlockIKNS_3MapINS_6MatrixIdLi3ELi3ELi0ELi3ELi3EEELi0ENS_11OuterStrideILin1EEEEELi1ELi3ELb0EEC1ERKS8_, symObjAddr: 0x464AC, symBinAddr: 0x100046C3C, symSize: 0x28 }
  - { offset: 0x164FF8, size: 0x8, addend: 0x0, symName: __ZN5Eigen9BlockImplIKNS_3MapINS_6MatrixIdLi3ELi3ELi0ELi3ELi3EEELi0ENS_11OuterStrideILin1EEEEELi1ELi3ELb0ENS_5DenseEEC2ERKS9_, symObjAddr: 0x46484, symBinAddr: 0x100046C14, symSize: 0x28 }
  - { offset: 0x165046, size: 0x8, addend: 0x0, symName: __ZN5Eigen8internal15BlockImpl_denseIKNS_3MapINS_6MatrixIdLi3ELi3ELi0ELi3ELi3EEELi0ENS_11OuterStrideILin1EEEEELi1ELi3ELb0ELb1EEC2ERKS9_, symObjAddr: 0x463B8, symBinAddr: 0x100046B48, symSize: 0xCC }
  - { offset: 0x165075, size: 0x8, addend: 0x0, symName: __ZNK5Eigen9EigenBaseINS_5BlockIKNS_3MapINS_6MatrixIdLi3ELi3ELi0ELi3ELi3EEELi0ENS_11OuterStrideILin1EEEEELi1ELi3ELb0EEEE7derivedEv, symObjAddr: 0x463A4, symBinAddr: 0x100046B34, symSize: 0x14 }
  - { offset: 0x1650DD, size: 0x8, addend: 0x0, symName: __ZN5Eigen5BlockIKNS_3MapINS_6MatrixIdLi3ELi3ELi0ELi3ELi3EEELi0ENS_11OuterStrideILin1EEEEELi1ELi3ELb0EEC1ERS7_l, symObjAddr: 0x462FC, symBinAddr: 0x100046A8C, symSize: 0xA8 }
  - { offset: 0x165129, size: 0x8, addend: 0x0, symName: __ZNK5Eigen9EigenBaseINS_3MapINS_6MatrixIdLi3ELi3ELi0ELi3ELi3EEELi0ENS_11OuterStrideILin1EEEEEE7derivedEv, symObjAddr: 0x462E8, symBinAddr: 0x100046A78, symSize: 0x14 }
  - { offset: 0x165153, size: 0x8, addend: 0x0, symName: __ZNK5Eigen15DenseCoeffsBaseINS_3MapINS_6MatrixIdLi3ELi1ELi0ELi3ELi1EEELi0ENS_6StrideILi0ELi0EEEEELi3EE11innerStrideEv, symObjAddr: 0x462C8, symBinAddr: 0x100046A58, symSize: 0x20 }
  - { offset: 0x165179, size: 0x8, addend: 0x0, symName: __ZN5Eigen8internal24call_assignment_no_aliasINS_3MapINS_6MatrixIdLi3ELi1ELi0ELi3ELi1EEELi0ENS_6StrideILi0ELi0EEEEES7_NS0_9assign_opIddEEEEvRT_RKT0_RKT1_, symObjAddr: 0x46290, symBinAddr: 0x100046A20, symSize: 0x38 }
  - { offset: 0x16520F, size: 0x8, addend: 0x0, symName: __ZN5Eigen8internal26triangular_solver_unrollerINS_3MapINS_6MatrixIdLi2ELi2ELi0ELi2ELi2EEELi0ENS_11OuterStrideILin1EEEEENS2_INS3_IdLi2ELi1ELi0ELi2ELi1EEELi0ENS_6StrideILi0ELi0EEEEELi5ELi2ELi2ELb1EE3runERKS7_RSB_, symObjAddr: 0x46278, symBinAddr: 0x100046A08, symSize: 0x18 }
  - { offset: 0x16523E, size: 0x8, addend: 0x0, symName: __ZNK5Eigen9DenseBaseINS_13CwiseBinaryOpINS_8internal17scalar_product_opIddEEKNS_9TransposeIKNS_5BlockIKNS6_IKNS_3MapINS_6MatrixIdLi2ELi2ELi0ELi2ELi2EEELi0ENS_11OuterStrideILin1EEEEELi1ELi2ELb0EEELi1ELi1ELb0EEEEEKNS6_INS7_INS8_IdLi2ELi1ELi0ELi2ELi1EEELi0ENS_6StrideILi0ELi0EEEEELi1ELi1ELb0EEEEEE3sumEv, symObjAddr: 0x4622C, symBinAddr: 0x1000469BC, symSize: 0x4C }
  - { offset: 0x165268, size: 0x8, addend: 0x0, symName: __ZNK5Eigen10MatrixBaseINS_9TransposeIKNS_5BlockIKNS2_IKNS_3MapINS_6MatrixIdLi2ELi2ELi0ELi2ELi2EEELi0ENS_11OuterStrideILin1EEEEELi1ELi2ELb0EEELi1ELi1ELb0EEEEEE12cwiseProductINS2_INS3_INS4_IdLi2ELi1ELi0ELi2ELi1EEELi0ENS_6StrideILi0ELi0EEEEELi1ELi1ELb0EEEEEKNS_13CwiseBinaryOpINS_8internal17scalar_product_opIdNSN_6traitsIT_E6ScalarEEEKSE_KSQ_EERKNS0_ISQ_EE, symObjAddr: 0x461C4, symBinAddr: 0x100046954, symSize: 0x68 }
  - { offset: 0x1652AB, size: 0x8, addend: 0x0, symName: __ZN5Eigen9DenseBaseINS_3MapINS_6MatrixIdLi2ELi1ELi0ELi2ELi1EEELi0ENS_6StrideILi0ELi0EEEEEE7segmentILi1EEENS7_22FixedSegmentReturnTypeIXT_EE4TypeEll, symObjAddr: 0x4617C, symBinAddr: 0x10004690C, symSize: 0x48 }
  - { offset: 0x165301, size: 0x8, addend: 0x0, symName: __ZNK5Eigen9DenseBaseINS_5BlockIKNS1_IKNS_3MapINS_6MatrixIdLi2ELi2ELi0ELi2ELi2EEELi0ENS_11OuterStrideILin1EEEEELi1ELi2ELb0EEELi1ELi1ELb0EEEE9transposeEv, symObjAddr: 0x46144, symBinAddr: 0x1000468D4, symSize: 0x38 }
  - { offset: 0x16532B, size: 0x8, addend: 0x0, symName: __ZNK5Eigen9DenseBaseINS_5BlockIKNS_3MapINS_6MatrixIdLi2ELi2ELi0ELi2ELi2EEELi0ENS_11OuterStrideILin1EEEEELi1ELi2ELb0EEEE7segmentILi1EEENSA_27ConstFixedSegmentReturnTypeIXT_EE4TypeEll, symObjAddr: 0x460FC, symBinAddr: 0x10004688C, symSize: 0x48 }
  - { offset: 0x1653A0, size: 0x8, addend: 0x0, symName: __ZN5Eigen3MapINS_6MatrixIdLi2ELi1ELi0ELi2ELi1EEELi0ENS_6StrideILi0ELi0EEEEC1ERKS5_, symObjAddr: 0x46090, symBinAddr: 0x100046820, symSize: 0x6C }
  - { offset: 0x1653EE, size: 0x8, addend: 0x0, symName: __ZN5Eigen5BlockIKNS_3MapINS_6MatrixIdLi2ELi2ELi0ELi2ELi2EEELi0ENS_11OuterStrideILin1EEEEELi1ELi2ELb0EEC1ERKS8_, symObjAddr: 0x46068, symBinAddr: 0x1000467F8, symSize: 0x28 }
  - { offset: 0x16543C, size: 0x8, addend: 0x0, symName: __ZN5Eigen9BlockImplIKNS_3MapINS_6MatrixIdLi2ELi2ELi0ELi2ELi2EEELi0ENS_11OuterStrideILin1EEEEELi1ELi2ELb0ENS_5DenseEEC2ERKS9_, symObjAddr: 0x46040, symBinAddr: 0x1000467D0, symSize: 0x28 }
  - { offset: 0x16548A, size: 0x8, addend: 0x0, symName: __ZN5Eigen8internal15BlockImpl_denseIKNS_3MapINS_6MatrixIdLi2ELi2ELi0ELi2ELi2EEELi0ENS_11OuterStrideILin1EEEEELi1ELi2ELb0ELb1EEC2ERKS9_, symObjAddr: 0x45F74, symBinAddr: 0x100046704, symSize: 0xCC }
  - { offset: 0x1654B9, size: 0x8, addend: 0x0, symName: __ZNK5Eigen9EigenBaseINS_5BlockIKNS_3MapINS_6MatrixIdLi2ELi2ELi0ELi2ELi2EEELi0ENS_11OuterStrideILin1EEEEELi1ELi2ELb0EEEE7derivedEv, symObjAddr: 0x45F60, symBinAddr: 0x1000466F0, symSize: 0x14 }
  - { offset: 0x165521, size: 0x8, addend: 0x0, symName: __ZN5Eigen5BlockIKNS_3MapINS_6MatrixIdLi2ELi2ELi0ELi2ELi2EEELi0ENS_11OuterStrideILin1EEEEELi1ELi2ELb0EEC1ERS7_l, symObjAddr: 0x45EB8, symBinAddr: 0x100046648, symSize: 0xA8 }
  - { offset: 0x16556D, size: 0x8, addend: 0x0, symName: __ZNK5Eigen9EigenBaseINS_3MapINS_6MatrixIdLi2ELi2ELi0ELi2ELi2EEELi0ENS_11OuterStrideILin1EEEEEE7derivedEv, symObjAddr: 0x45EA4, symBinAddr: 0x100046634, symSize: 0x14 }
  - { offset: 0x165597, size: 0x8, addend: 0x0, symName: __ZNK5Eigen15DenseCoeffsBaseINS_3MapINS_6MatrixIdLi2ELi1ELi0ELi2ELi1EEELi0ENS_6StrideILi0ELi0EEEEELi3EE11innerStrideEv, symObjAddr: 0x45E84, symBinAddr: 0x100046614, symSize: 0x20 }
  - { offset: 0x1655BD, size: 0x8, addend: 0x0, symName: __ZN5Eigen8internal24call_assignment_no_aliasINS_3MapINS_6MatrixIdLi2ELi1ELi0ELi2ELi1EEELi0ENS_6StrideILi0ELi0EEEEES7_NS0_9assign_opIddEEEEvRT_RKT0_RKT1_, symObjAddr: 0x45E4C, symBinAddr: 0x1000465DC, symSize: 0x38 }
  - { offset: 0x165671, size: 0x8, addend: 0x0, symName: __ZN5Eigen8internal14evaluator_baseINS_3MapIKNS_6MatrixIdLin1ELi1ELi0ELin1ELi1EEELi16ENS_6StrideILi0ELi0EEEEEEC2Ev, symObjAddr: 0x45E38, symBinAddr: 0x1000465C8, symSize: 0x14 }
  - { offset: 0x165697, size: 0x8, addend: 0x0, symName: __ZNK5Eigen3MapIKNS_6MatrixIdLin1ELi1ELi0ELin1ELi1EEELi16ENS_6StrideILi0ELi0EEEE11outerStrideEv, symObjAddr: 0x45E04, symBinAddr: 0x100046594, symSize: 0x34 }
  - { offset: 0x1656C1, size: 0x8, addend: 0x0, symName: __ZNK5Eigen3MapIKNS_6MatrixIdLin1ELi1ELi0ELin1ELi1EEELi16ENS_6StrideILi0ELi0EEEE11innerStrideEv, symObjAddr: 0x45DF0, symBinAddr: 0x100046580, symSize: 0x14 }
  - { offset: 0x1656EB, size: 0x8, addend: 0x0, symName: __ZNK5Eigen7MapBaseINS_3MapIKNS_6MatrixIdLin1ELi1ELi0ELin1ELi1EEELi16ENS_6StrideILi0ELi0EEEEELi0EE4dataEv, symObjAddr: 0x45DD8, symBinAddr: 0x100046568, symSize: 0x18 }
  - { offset: 0x165715, size: 0x8, addend: 0x0, symName: __ZNK5Eigen8internal17mapbase_evaluatorINS_3MapINS_6MatrixIdLin1ELin1ELi0ELin1ELin1EEELi0ENS_11OuterStrideILin1EEEEES4_E9rowStrideEv, symObjAddr: 0x45DC0, symBinAddr: 0x100046550, symSize: 0x18 }
  - { offset: 0x16573F, size: 0x8, addend: 0x0, symName: __ZNK5Eigen8internal17mapbase_evaluatorINS_3MapINS_6MatrixIdLin1ELin1ELi0ELin1ELin1EEELi0ENS_11OuterStrideILin1EEEEES4_E9colStrideEv, symObjAddr: 0x45DA0, symBinAddr: 0x100046530, symSize: 0x20 }
  - { offset: 0x165765, size: 0x8, addend: 0x0, symName: __ZN5Eigen8internal5pmaddIdEET_RKS2_S4_S4_, symObjAddr: 0x45D5C, symBinAddr: 0x1000464EC, symSize: 0x44 }
  - { offset: 0x1657BE, size: 0x8, addend: 0x0, symName: __ZN5Eigen8internal22lhs_process_one_packetILi4ELl2ELl1Eddd13__Float64x2_tS2_dS2_NS0_11gebp_traitsIddLb0ELb0ELi4ELi0EEENS0_16BlasLinearMapperIdlLi0ELi1EEENS0_16blas_data_mapperIdlLi0ELi0ELi1EEEE17peeled_kc_onestepElPKdSB_S4_PS2_PNS4_11RhsPacketx4EPdSC_SC_SC_SC_, symObjAddr: 0x45C60, symBinAddr: 0x1000463F0, symSize: 0xFC }
  - { offset: 0x1658DF, size: 0x8, addend: 0x0, symName: __ZN5Eigen6numext8div_ceilIlEET_RKS2_S4_, symObjAddr: 0x45C28, symBinAddr: 0x1000463B8, symSize: 0x38 }
  - { offset: 0x165950, size: 0x8, addend: 0x0, symName: __ZN5Eigen8internal10AssignmentINS_3MapINS_6MatrixIdLin1ELin1ELi0ELin1ELin1EEELi16ENS_11OuterStrideILin1EEEEES7_NS0_9assign_opIddEENS0_11Dense2DenseEvE3runERS7_RKS7_RKS9_, symObjAddr: 0x45BEC, symBinAddr: 0x10004637C, symSize: 0x3C }
  - { offset: 0x1659AB, size: 0x8, addend: 0x0, symName: __ZNK5Eigen8internal17linspaced_op_implIiLb1EEclIlEEKiT_, symObjAddr: 0x45B6C, symBinAddr: 0x1000462FC, symSize: 0x80 }
  - { offset: 0x1659EE, size: 0x8, addend: 0x0, symName: __ZNK5Eigen8internal18scalar_constant_opIiE8packetOpI11__Int32x4_tEEKT_v, symObjAddr: 0x45B48, symBinAddr: 0x1000462D8, symSize: 0x24 }
  - { offset: 0x165A2C, size: 0x8, addend: 0x0, symName: __ZNK5Eigen8internal15nullary_wrapperIiNS0_18scalar_constant_opIiEELb1ELb0ELb0EEclIlEEiRKS3_T_S8_, symObjAddr: 0x45B20, symBinAddr: 0x1000462B0, symSize: 0x28 }
  - { offset: 0x165AAA, size: 0x8, addend: 0x0, symName: __ZN5Eigen8internal9evaluatorINS_13CwiseBinaryOpINS0_17scalar_product_opIddEEKNS_12CwiseUnaryOpINS0_18scalar_opposite_opIdEEKNS2_INS0_20scalar_difference_opIddEEKNS_12ArrayWrapperINS_6MatrixIdLin1ELi1ELi0ELin1ELi1EEEEEKNS_14CwiseNullaryOpINS0_18scalar_constant_opIdEEKNS_5ArrayIdLin1ELi1ELi0ELin1ELi1EEEEEEEEESO_EEEC2ERKSR_, symObjAddr: 0x45AF8, symBinAddr: 0x100046288, symSize: 0x28 }
  - { offset: 0x165B00, size: 0x8, addend: 0x0, symName: __ZN5Eigen8internal9evaluatorINS_12ArrayWrapperINS_6MatrixIdLin1ELi1ELi0ELin1ELi1EEEEEEC2ERKS5_, symObjAddr: 0x45AD0, symBinAddr: 0x100046260, symSize: 0x28 }
  - { offset: 0x165B2F, size: 0x8, addend: 0x0, symName: __ZN5Eigen10MatrixBaseINS_5BlockINS1_INS_6MatrixIdLin1ELi1ELi0ELin1ELi1EEELin1ELi1ELb1EEELi1ELi1ELb0EEEEaSINS1_IKS4_Li1ELi1ELb0EEEEERS5_RKNS_9DenseBaseIT_EE, symObjAddr: 0x45A88, symBinAddr: 0x100046218, symSize: 0x48 }
  - { offset: 0x165BB0, size: 0x8, addend: 0x0, symName: __ZN5Eigen5BlockIKNS0_INS_6MatrixIdLin1ELi1ELi0ELin1ELi1EEELin1ELi1ELb1EEELi1ELi1ELb0EEC1ERS4_l, symObjAddr: 0x459E0, symBinAddr: 0x100046170, symSize: 0xA8 }
  - { offset: 0x165BFE, size: 0x8, addend: 0x0, symName: __ZN5Eigen8internal13is_same_denseINS_5BlockINS_6MatrixIdLin1ELi1ELi0ELin1ELi1EEELin1ELi1ELb1EEES5_EEbRKT_RKT0_PNS0_9enable_ifIXsrNS0_19possibly_same_denseIS6_S9_EE5valueEvE4typeE, symObjAddr: 0x4595C, symBinAddr: 0x1000460EC, symSize: 0x84 }
  - { offset: 0x165C58, size: 0x8, addend: 0x0, symName: __ZNK5Eigen18TriangularViewImplINS_3MapIKNS_6MatrixIdLin1ELin1ELi0ELin1ELin1EEELi0ENS_11OuterStrideILin1EEEEELj2ENS_5DenseEE12solveInPlaceINS1_INS2_IdLin1ELi1ELi0ELin1ELi1EEELi0ES6_EEEEvRKNS_10MatrixBaseIT_EE, symObjAddr: 0x45934, symBinAddr: 0x1000460C4, symSize: 0x28 }
  - { offset: 0x165C9C, size: 0x8, addend: 0x0, symName: __ZN5Eigen3MapINS_6MatrixIdLin1ELi1ELi0ELin1ELi1EEELi0ENS_11OuterStrideILin1EEEEaSERKS5_, symObjAddr: 0x4590C, symBinAddr: 0x10004609C, symSize: 0x28 }
  - { offset: 0x165CD2, size: 0x8, addend: 0x0, symName: __ZN5Eigen8internal13is_same_denseINS_3MapINS_6MatrixIdLin1ELi1ELi0ELin1ELi1EEELi0ENS_11OuterStrideILin1EEEEES7_EEbRKT_RKT0_PNS0_9enable_ifIXsrNS0_19possibly_same_denseIS8_SB_EE5valueEvE4typeE, symObjAddr: 0x45888, symBinAddr: 0x100046018, symSize: 0x84 }
  - { offset: 0x165D2C, size: 0x8, addend: 0x0, symName: __ZNK5Eigen14TriangularViewINS_3MapIKNS_6MatrixIdLin1ELin1ELi0ELin1ELin1EEELi0ENS_11OuterStrideILin1EEEEELj2EE4colsEv, symObjAddr: 0x4586C, symBinAddr: 0x100045FFC, symSize: 0x1C }
  - { offset: 0x165D58, size: 0x8, addend: 0x0, symName: __ZN5Eigen8internal20generic_product_implINS_3MapIKNS_6MatrixIdLin1ELin1ELi0ELin1ELin1EEELi0ENS_11OuterStrideILin1EEEEENS2_INS3_IdLin1ELi1ELi0ELin1ELi1EEELi0ES7_EENS_10DenseShapeESB_Li7EE13scaleAndAddToINS_5BlockIS9_Lin1ELi1ELb0EEEEEvRT_RKS8_RKSA_RKd, symObjAddr: 0x45764, symBinAddr: 0x100045EF4, symSize: 0x108 }
  - { offset: 0x165DEA, size: 0x8, addend: 0x0, symName: __ZNK5Eigen18TriangularViewImplINS_3MapIKNS_6MatrixIdLin1ELin1ELi0ELin1ELin1EEELi0ENS_11OuterStrideILin1EEEEELj5ENS_5DenseEE11_solve_implINS1_INS2_IdLin1ELi1ELi0ELin1ELi1EEELi0ES6_EESC_EEvRKT_RT0_, symObjAddr: 0x45708, symBinAddr: 0x100045E98, symSize: 0x5C }
  - { offset: 0x165E48, size: 0x8, addend: 0x0, symName: __ZNK5Eigen5SolveINS_14TriangularViewINS_3MapIKNS_6MatrixIdLin1ELin1ELi0ELin1ELin1EEELi0ENS_11OuterStrideILin1EEEEELj5EEENS2_INS3_IdLin1ELi1ELi0ELin1ELi1EEELi0ES7_EEE3rhsEv, symObjAddr: 0x456F0, symBinAddr: 0x100045E80, symSize: 0x18 }
  - { offset: 0x165E72, size: 0x8, addend: 0x0, symName: __ZNK5Eigen5SolveINS_14TriangularViewINS_3MapIKNS_6MatrixIdLin1ELin1ELi0ELin1ELin1EEELi0ENS_11OuterStrideILin1EEEEELj5EEENS2_INS3_IdLin1ELi1ELi0ELin1ELi1EEELi0ES7_EEE3decEv, symObjAddr: 0x456D8, symBinAddr: 0x100045E68, symSize: 0x18 }
  - { offset: 0x165E9C, size: 0x8, addend: 0x0, symName: __ZNK5Eigen5SolveINS_14TriangularViewINS_3MapIKNS_6MatrixIdLin1ELin1ELi0ELin1ELin1EEELi0ENS_11OuterStrideILin1EEEEELj5EEENS2_INS3_IdLin1ELi1ELi0ELin1ELi1EEELi0ES7_EEE4colsEv, symObjAddr: 0x456B8, symBinAddr: 0x100045E48, symSize: 0x20 }
  - { offset: 0x165EC6, size: 0x8, addend: 0x0, symName: __ZNK5Eigen5SolveINS_14TriangularViewINS_3MapIKNS_6MatrixIdLin1ELin1ELi0ELin1ELin1EEELi0ENS_11OuterStrideILin1EEEEELj5EEENS2_INS3_IdLin1ELi1ELi0ELin1ELi1EEELi0ES7_EEE4rowsEv, symObjAddr: 0x45698, symBinAddr: 0x100045E28, symSize: 0x20 }
  - { offset: 0x165EF0, size: 0x8, addend: 0x0, symName: __ZN5Eigen10MatrixBaseINS_5BlockINS1_INS_6MatrixIdLin1ELi1ELi0ELin1ELi1EEELin1ELi1ELb1EEELi1ELi1ELb0EEEEaSINS1_IKNS1_INS_12CwiseUnaryOpINS_8internal18scalar_opposite_opIdEEKS3_EELin1ELi1ELb1EEELi1ELi1ELb0EEEEERS5_RKNS_9DenseBaseIT_EE, symObjAddr: 0x45650, symBinAddr: 0x100045DE0, symSize: 0x48 }
  - { offset: 0x165F71, size: 0x8, addend: 0x0, symName: __ZN5Eigen5BlockIKNS0_INS_12CwiseUnaryOpINS_8internal18scalar_opposite_opIdEEKNS_6MatrixIdLin1ELi1ELi0ELin1ELi1EEEEELin1ELi1ELb1EEELi1ELi1ELb0EEC1ERSA_l, symObjAddr: 0x455A8, symBinAddr: 0x100045D38, symSize: 0xA8 }
  - { offset: 0x165FBD, size: 0x8, addend: 0x0, symName: __ZN5Eigen9DenseBaseINS_5BlockINS1_INS_6MatrixIdLin1ELi1ELi0ELin1ELi1EEELin1ELi1ELb1EEELi1ELi1ELb0EEEE4swapIS5_EEvRKNS0_IT_EE, symObjAddr: 0x454BC, symBinAddr: 0x100045C4C, symSize: 0xEC }
  - { offset: 0x16605A, size: 0x8, addend: 0x0, symName: __ZN5Eigen5BlockINS0_INS_6MatrixIdLin1ELi1ELi0ELin1ELi1EEELin1ELi1ELb1EEELi1ELi1ELb0EEC1ERS3_l, symObjAddr: 0x45414, symBinAddr: 0x100045BA4, symSize: 0xA8 }
  - { offset: 0x1660A2, size: 0x8, addend: 0x0, symName: __ZN5Eigen8internal13is_same_denseINS_5BlockINS_6MatrixIdLin1ELi1ELi0ELin1ELi1EEELin1ELi1ELb1EEENS2_INS_12CwiseUnaryOpINS0_18scalar_opposite_opIdEEKS4_EELin1ELi1ELb1EEEEEbRKT_RKT0_PNS0_9enable_ifIXntsrNS0_19possibly_same_denseISC_SF_EE5valueEvE4typeE, symObjAddr: 0x453F8, symBinAddr: 0x100045B88, symSize: 0x1C }
  - { offset: 0x166130, size: 0x8, addend: 0x0, symName: __ZNK5Eigen9DenseBaseINS_13CwiseBinaryOpINS_8internal22scalar_conj_product_opIddEEKNS_9TransposeIKNS_5BlockIKNS_3MapINS_6MatrixIdLin1ELin1ELi0ELin1ELin1EEELi0ENS_11OuterStrideILin1EEEEELi1ELin1ELb0EEEEEKNS6_IKNS6_INS8_IdLin1ELi1ELi0ELin1ELi1EEELin1ELi1ELb0EEELin1ELi1ELb1EEEEEE9outerSizeEv, symObjAddr: 0x453E4, symBinAddr: 0x100045B74, symSize: 0x14 }
  - { offset: 0x16615A, size: 0x8, addend: 0x0, symName: __ZNK5Eigen9DenseBaseINS_13CwiseBinaryOpINS_8internal22scalar_conj_product_opIddEEKNS_9TransposeIKNS_5BlockIKNS_3MapINS_6MatrixIdLin1ELin1ELi0ELin1ELin1EEELi0ENS_11OuterStrideILin1EEEEELi1ELin1ELb0EEEEEKNS6_IKNS6_INS8_IdLin1ELi1ELi0ELin1ELi1EEELin1ELi1ELb0EEELin1ELi1ELb1EEEEEE9innerSizeEv, symObjAddr: 0x453C8, symBinAddr: 0x100045B58, symSize: 0x1C }
  - { offset: 0x166184, size: 0x8, addend: 0x0, symName: __ZNK5Eigen8internal15redux_evaluatorINS_13CwiseBinaryOpINS0_22scalar_conj_product_opIddEEKNS_9TransposeIKNS_5BlockIKNS_3MapINS_6MatrixIdLin1ELin1ELi0ELin1ELin1EEELi0ENS_11OuterStrideILin1EEEEELi1ELin1ELb0EEEEEKNS6_IKNS6_INS8_IdLin1ELi1ELi0ELin1ELi1EEELin1ELi1ELb0EEELin1ELi1ELb1EEEEEE17coeffByOuterInnerEll, symObjAddr: 0x45394, symBinAddr: 0x100045B24, symSize: 0x34 }
  - { offset: 0x1661F8, size: 0x8, addend: 0x0, symName: __ZN5Eigen8internal9evaluatorINS_13CwiseBinaryOpINS0_22scalar_conj_product_opIddEEKNS_9TransposeIKNS_5BlockIKNS_3MapINS_6MatrixIdLin1ELin1ELi0ELin1ELin1EEELi0ENS_11OuterStrideILin1EEEEELi1ELin1ELb0EEEEEKNS6_IKNS6_INS8_IdLin1ELi1ELi0ELin1ELi1EEELin1ELi1ELb0EEELin1ELi1ELb1EEEEEEC2ERKSN_, symObjAddr: 0x4536C, symBinAddr: 0x100045AFC, symSize: 0x28 }
  - { offset: 0x166227, size: 0x8, addend: 0x0, symName: __ZNK5Eigen13CwiseBinaryOpINS_8internal22scalar_conj_product_opIddEEKNS_9TransposeIKNS_5BlockIKNS_3MapINS_6MatrixIdLin1ELin1ELi0ELin1ELin1EEELi0ENS_11OuterStrideILin1EEEEELi1ELin1ELb0EEEEEKNS5_IKNS5_INS7_IdLin1ELi1ELi0ELin1ELi1EEELin1ELi1ELb0EEELin1ELi1ELb1EEEE4colsEv, symObjAddr: 0x45350, symBinAddr: 0x100045AE0, symSize: 0x1C }
  - { offset: 0x166251, size: 0x8, addend: 0x0, symName: __ZNK5Eigen13CwiseBinaryOpINS_8internal22scalar_conj_product_opIddEEKNS_9TransposeIKNS_5BlockIKNS_3MapINS_6MatrixIdLin1ELin1ELi0ELin1ELin1EEELi0ENS_11OuterStrideILin1EEEEELi1ELin1ELb0EEEEEKNS5_IKNS5_INS7_IdLin1ELi1ELi0ELin1ELi1EEELin1ELi1ELb0EEELin1ELi1ELb1EEEE4rowsEv, symObjAddr: 0x45330, symBinAddr: 0x100045AC0, symSize: 0x20 }
  - { offset: 0x16627B, size: 0x8, addend: 0x0, symName: __ZNK5Eigen7MapBaseINS_5BlockIKNS1_INS_6MatrixIdLin1ELi1ELi0ELin1ELi1EEELin1ELi1ELb0EEELin1ELi1ELb1EEELi0EE11checkSanityIS6_EEvNS_8internal9enable_ifIXeqsrNS9_6traitsIT_EE9AlignmentLi0EEPvE4typeE, symObjAddr: 0x45318, symBinAddr: 0x100045AA8, symSize: 0x18 }
  - { offset: 0x1662D1, size: 0x8, addend: 0x0, symName: __ZN5Eigen9DenseBaseINS_5BlockIKNS1_INS_6MatrixIdLin1ELi1ELi0ELin1ELi1EEELin1ELi1ELb0EEELin1ELi1ELb1EEEEC2Ev, symObjAddr: 0x45304, symBinAddr: 0x100045A94, symSize: 0x14 }
  - { offset: 0x1662F7, size: 0x8, addend: 0x0, symName: __ZNK5Eigen7MapBaseINS_5BlockIKNS_3MapINS_6MatrixIdLin1ELin1ELi0ELin1ELin1EEELi0ENS_11OuterStrideILin1EEEEELi1ELin1ELb0EEELi0EE11checkSanityIS9_EEvNS_8internal9enable_ifIXeqsrNSC_6traitsIT_EE9AlignmentLi0EEPvE4typeE, symObjAddr: 0x452EC, symBinAddr: 0x100045A7C, symSize: 0x18 }
  - { offset: 0x16634D, size: 0x8, addend: 0x0, symName: __ZN5Eigen9DenseBaseINS_5BlockIKNS_3MapINS_6MatrixIdLin1ELin1ELi0ELin1ELin1EEELi0ENS_11OuterStrideILin1EEEEELi1ELin1ELb0EEEEC2Ev, symObjAddr: 0x452D8, symBinAddr: 0x100045A68, symSize: 0x14 }
  - { offset: 0x16636F, size: 0x8, addend: 0x0, symName: __ZN5Eigen8internal15call_assignmentINS_5BlockINS_6MatrixIdLin1ELi1ELi0ELin1ELi1EEELin1ELi1ELb0EEENS_3MapIS4_Li16ENS_6StrideILi0ELi0EEEEENS0_9assign_opIddEEEEvRT_RKT0_RKT1_NS0_9enable_ifIXntsrNS0_25evaluator_assume_aliasingISE_NS0_16evaluator_traitsISE_E5ShapeEEE5valueEPvE4typeE, symObjAddr: 0x452A4, symBinAddr: 0x100045A34, symSize: 0x34 }
  - { offset: 0x1663DF, size: 0x8, addend: 0x0, symName: __ZN5Eigen8internal15call_assignmentINS_3MapINS_6MatrixIdLin1ELi1ELi0ELin1ELi1EEELi0ENS_6StrideILi0ELi0EEEEENS_13CwiseBinaryOpINS0_17scalar_product_opIddEEKNS_14CwiseNullaryOpINS0_18scalar_constant_opIdEEKS4_EEKNS_5BlockIKNSH_IKNS2_IKNS3_IdLin1ELin1ELi0ELin1ELin1EEELi0ENS_11OuterStrideILin1EEEEELin1ELi1ELb1EEELin1ELi1ELb0EEEEENS0_13sub_assign_opIddEEEEvRT_RKT0_RKT1_NS0_9enable_ifIXntsrNS0_25evaluator_assume_aliasingISX_NS0_16evaluator_traitsISX_E5ShapeEEE5valueEPvE4typeE, symObjAddr: 0x45270, symBinAddr: 0x100045A00, symSize: 0x34 }
  - { offset: 0x166453, size: 0x8, addend: 0x0, symName: __ZNK5Eigen9EigenBaseINS_13CwiseBinaryOpINS_8internal17scalar_product_opIddEEKNS_14CwiseNullaryOpINS2_18scalar_constant_opIdEEKNS_6MatrixIdLin1ELi1ELi0ELin1ELi1EEEEEKNS_5BlockIKNSD_IKNS_3MapIKNS8_IdLin1ELin1ELi0ELin1ELin1EEELi0ENS_11OuterStrideILin1EEEEELin1ELi1ELb1EEELin1ELi1ELb0EEEEEE7derivedEv, symObjAddr: 0x4525C, symBinAddr: 0x1000459EC, symSize: 0x14 }
  - { offset: 0x1664C8, size: 0x8, addend: 0x0, symName: __ZN5Eigen13CwiseBinaryOpINS_8internal17scalar_product_opIddEEKNS_14CwiseNullaryOpINS1_18scalar_constant_opIdEEKNS_6MatrixIdLin1ELi1ELi0ELin1ELi1EEEEEKNS_5BlockIKNSC_IKNS_3MapIKNS7_IdLin1ELin1ELi0ELin1ELin1EEELi0ENS_11OuterStrideILin1EEEEELin1ELi1ELb1EEELin1ELi1ELb0EEEEC1ERSB_RSN_RKS3_, symObjAddr: 0x45168, symBinAddr: 0x1000458F8, symSize: 0xF4 }
  - { offset: 0x16653C, size: 0x8, addend: 0x0, symName: __ZN5Eigen5BlockIKNS0_IKNS_3MapIKNS_6MatrixIdLin1ELin1ELi0ELin1ELin1EEELi0ENS_11OuterStrideILin1EEEEELin1ELi1ELb1EEELin1ELi1ELb0EEC1ERKSB_, symObjAddr: 0x45140, symBinAddr: 0x1000458D0, symSize: 0x28 }
  - { offset: 0x16658A, size: 0x8, addend: 0x0, symName: __ZN5Eigen9BlockImplIKNS_5BlockIKNS_3MapIKNS_6MatrixIdLin1ELin1ELi0ELin1ELin1EEELi0ENS_11OuterStrideILin1EEEEELin1ELi1ELb1EEELin1ELi1ELb0ENS_5DenseEEC2ERKSD_, symObjAddr: 0x45118, symBinAddr: 0x1000458A8, symSize: 0x28 }
  - { offset: 0x1665D8, size: 0x8, addend: 0x0, symName: __ZN5Eigen8internal15BlockImpl_denseIKNS_5BlockIKNS_3MapIKNS_6MatrixIdLin1ELin1ELi0ELin1ELin1EEELi0ENS_11OuterStrideILin1EEEEELin1ELi1ELb1EEELin1ELi1ELb0ELb1EEC2ERKSD_, symObjAddr: 0x45088, symBinAddr: 0x100045818, symSize: 0x90 }
  - { offset: 0x166626, size: 0x8, addend: 0x0, symName: __ZN5Eigen5BlockIKNS_3MapIKNS_6MatrixIdLin1ELin1ELi0ELin1ELin1EEELi0ENS_11OuterStrideILin1EEEEELin1ELi1ELb1EEC1ERKS9_, symObjAddr: 0x45060, symBinAddr: 0x1000457F0, symSize: 0x28 }
  - { offset: 0x166674, size: 0x8, addend: 0x0, symName: __ZN5Eigen9BlockImplIKNS_3MapIKNS_6MatrixIdLin1ELin1ELi0ELin1ELin1EEELi0ENS_11OuterStrideILin1EEEEELin1ELi1ELb1ENS_5DenseEEC2ERKSA_, symObjAddr: 0x45038, symBinAddr: 0x1000457C8, symSize: 0x28 }
  - { offset: 0x1666C2, size: 0x8, addend: 0x0, symName: __ZN5Eigen8internal15BlockImpl_denseIKNS_3MapIKNS_6MatrixIdLin1ELin1ELi0ELin1ELin1EEELi0ENS_11OuterStrideILin1EEEEELin1ELi1ELb1ELb1EEC2ERKSA_, symObjAddr: 0x44F94, symBinAddr: 0x100045724, symSize: 0xA4 }
  - { offset: 0x166719, size: 0x8, addend: 0x0, symName: __ZN5Eigen17CwiseBinaryOpImplINS_8internal17scalar_product_opIddEEKNS_14CwiseNullaryOpINS1_18scalar_constant_opIdEEKNS_6MatrixIdLin1ELi1ELi0ELin1ELi1EEEEEKNS_5BlockIKNSC_IKNS_3MapIKNS7_IdLin1ELin1ELi0ELin1ELin1EEELi0ENS_11OuterStrideILin1EEEEELin1ELi1ELb1EEELin1ELi1ELb0EEENS_5DenseEEC2Ev, symObjAddr: 0x44F74, symBinAddr: 0x100045704, symSize: 0x20 }
  - { offset: 0x166759, size: 0x8, addend: 0x0, symName: __ZN5Eigen10MatrixBaseINS_13CwiseBinaryOpINS_8internal17scalar_product_opIddEEKNS_14CwiseNullaryOpINS2_18scalar_constant_opIdEEKNS_6MatrixIdLin1ELi1ELi0ELin1ELi1EEEEEKNS_5BlockIKNSD_IKNS_3MapIKNS8_IdLin1ELin1ELi0ELin1ELin1EEELi0ENS_11OuterStrideILin1EEEEELin1ELi1ELb1EEELin1ELi1ELb0EEEEEEC2Ev, symObjAddr: 0x44F54, symBinAddr: 0x1000456E4, symSize: 0x20 }
  - { offset: 0x16677F, size: 0x8, addend: 0x0, symName: __ZNK5Eigen7MapBaseINS_5BlockIKNS1_IKNS_3MapIKNS_6MatrixIdLin1ELin1ELi0ELin1ELin1EEELi0ENS_11OuterStrideILin1EEEEELin1ELi1ELb1EEELin1ELi1ELb0EEELi0EE4colsEv, symObjAddr: 0x44F3C, symBinAddr: 0x1000456CC, symSize: 0x18 }
  - { offset: 0x1667A9, size: 0x8, addend: 0x0, symName: __ZNK5Eigen7MapBaseINS_5BlockIKNS1_IKNS_3MapIKNS_6MatrixIdLin1ELin1ELi0ELin1ELin1EEELi0ENS_11OuterStrideILin1EEEEELin1ELi1ELb1EEELin1ELi1ELb0EEELi0EE4rowsEv, symObjAddr: 0x44F1C, symBinAddr: 0x1000456AC, symSize: 0x20 }
  - { offset: 0x1667D3, size: 0x8, addend: 0x0, symName: __ZNK5Eigen9EigenBaseINS_5BlockIKNS1_IKNS_3MapIKNS_6MatrixIdLin1ELin1ELi0ELin1ELin1EEELi0ENS_11OuterStrideILin1EEEEELin1ELi1ELb1EEELin1ELi1ELb0EEEE7derivedEv, symObjAddr: 0x44F08, symBinAddr: 0x100045698, symSize: 0x14 }
  - { offset: 0x16683E, size: 0x8, addend: 0x0, symName: __ZN5Eigen11VectorBlockIKNS_5BlockIKNS_3MapIKNS_6MatrixIdLin1ELin1ELi0ELin1ELin1EEELi0ENS_11OuterStrideILin1EEEEELin1ELi1ELb1EEELin1EEC1ERSB_ll, symObjAddr: 0x44EC8, symBinAddr: 0x100045658, symSize: 0x40 }
  - { offset: 0x16687F, size: 0x8, addend: 0x0, symName: __ZNK5Eigen9EigenBaseINS_5BlockIKNS_3MapIKNS_6MatrixIdLin1ELin1ELi0ELin1ELin1EEELi0ENS_11OuterStrideILin1EEEEELin1ELi1ELb1EEEE7derivedEv, symObjAddr: 0x44EB4, symBinAddr: 0x100045644, symSize: 0x14 }
  - { offset: 0x1668E7, size: 0x8, addend: 0x0, symName: __ZN5Eigen5BlockIKNS_3MapIKNS_6MatrixIdLin1ELin1ELi0ELin1ELin1EEELi0ENS_11OuterStrideILin1EEEEELin1ELi1ELb1EEC1ERS8_l, symObjAddr: 0x44E0C, symBinAddr: 0x10004559C, symSize: 0xA8 }
  - { offset: 0x166933, size: 0x8, addend: 0x0, symName: __ZNK5Eigen15DenseCoeffsBaseINS_3MapIKNS_6MatrixIdLin1ELin1ELi0ELin1ELin1EEELi0ENS_11OuterStrideILin1EEEEELi2EE9rowStrideEv, symObjAddr: 0x44DF0, symBinAddr: 0x100045580, symSize: 0x1C }
  - { offset: 0x16695D, size: 0x8, addend: 0x0, symName: __ZNK5Eigen15DenseCoeffsBaseINS_3MapIKNS_6MatrixIdLin1ELin1ELi0ELin1ELin1EEELi0ENS_11OuterStrideILin1EEEEELi2EE9colStrideEv, symObjAddr: 0x44DD4, symBinAddr: 0x100045564, symSize: 0x1C }
  - { offset: 0x166983, size: 0x8, addend: 0x0, symName: __ZN5Eigen8internal15call_assignmentINS_3MapINS_6MatrixIdLin1ELi1ELi0ELin1ELi1EEELi16ENS_6StrideILi0ELi0EEEEENS_5BlockIS4_Lin1ELi1ELb0EEENS0_9assign_opIddEEEEvRT_RKT0_RKT1_NS0_9enable_ifIXntsrNS0_25evaluator_assume_aliasingISE_NS0_16evaluator_traitsISE_E5ShapeEEE5valueEPvE4typeE, symObjAddr: 0x44DA0, symBinAddr: 0x100045530, symSize: 0x34 }
  - { offset: 0x1669F3, size: 0x8, addend: 0x0, symName: __ZN5Eigen8internal15call_assignmentINS_5BlockINS_6MatrixIdLin1ELi1ELi0ELin1ELi1EEELin1ELi1ELb0EEES5_EEvRT_RKT0_, symObjAddr: 0x44D64, symBinAddr: 0x1000454F4, symSize: 0x3C }
  - { offset: 0x166A4F, size: 0x8, addend: 0x0, symName: __ZNK5Eigen8internal9evaluatorINS_14CwiseNullaryOpINS0_18scalar_constant_opIdEENS_6MatrixIdLin1ELi1ELi0ELin1ELi1EEEEEE5coeffIlEEdT_, symObjAddr: 0x44D2C, symBinAddr: 0x1000454BC, symSize: 0x38 }
  - { offset: 0x166A8F, size: 0x8, addend: 0x0, symName: __ZN5Eigen8internal15call_assignmentINS_3MapINS_6MatrixIdLin1ELi1ELi0ELin1ELi1EEELi0ENS_6StrideILi0ELi0EEEEENS2_IS4_Li16ES6_EEEEvRT_RKT0_, symObjAddr: 0x44CF0, symBinAddr: 0x100045480, symSize: 0x3C }
  - { offset: 0x166ADC, size: 0x8, addend: 0x0, symName: __ZN5Eigen8internal15call_assignmentINS_3MapINS_6MatrixIdLin1ELi1ELi0ELin1ELi1EEELi16ENS_6StrideILi0ELi0EEEEENS2_IS4_Li0ES6_EEEEvRT_RKT0_, symObjAddr: 0x44CB4, symBinAddr: 0x100045444, symSize: 0x3C }
  - { offset: 0x166B29, size: 0x8, addend: 0x0, symName: __ZN5Eigen8internal15call_assignmentINS_3MapINS_6MatrixIdLin1ELi1ELi0ELin1ELi1EEELi0ENS_6StrideILi0ELi0EEEEES7_NS0_9assign_opIddEEEEvRT_RKT0_RKT1_NS0_9enable_ifIXntsrNS0_25evaluator_assume_aliasingISC_NS0_16evaluator_traitsISC_E5ShapeEEE5valueEPvE4typeE, symObjAddr: 0x44C80, symBinAddr: 0x100045410, symSize: 0x34 }
  - { offset: 0x166B99, size: 0x8, addend: 0x0, symName: __ZN5Eigen8internal26triangular_solver_unrollerINS_3MapINS_6MatrixIdLi3ELi3ELi0ELi3ELi3EEELi0ENS_11OuterStrideILin1EEEEENS2_INS3_IdLi3ELi1ELi0ELi3ELi1EEELi0ENS_6StrideILi0ELi0EEEEELi5ELi1ELi3ELb0EE3runERKS7_RSB_, symObjAddr: 0x44BBC, symBinAddr: 0x10004534C, symSize: 0xC4 }
  - { offset: 0x166BD8, size: 0x8, addend: 0x0, symName: __ZNK5Eigen9DenseBaseINS_3MapINS_6MatrixIdLi3ELi3ELi0ELi3ELi3EEELi0ENS_11OuterStrideILin1EEEEEE3rowEl, symObjAddr: 0x44B7C, symBinAddr: 0x10004530C, symSize: 0x40 }
  - { offset: 0x166C13, size: 0x8, addend: 0x0, symName: __ZN5Eigen7MapBaseINS_3MapINS_6MatrixIdLi3ELi1ELi0ELi3ELi1EEELi0ENS_6StrideILi0ELi0EEEEELi1EE8coeffRefEl, symObjAddr: 0x44B38, symBinAddr: 0x1000452C8, symSize: 0x44 }
  - { offset: 0x166C4A, size: 0x8, addend: 0x0, symName: __ZN5Eigen8internal15call_assignmentINS_3MapINS_6MatrixIdLi3ELi1ELi0ELi3ELi1EEELi0ENS_6StrideILi0ELi0EEEEES7_NS0_9assign_opIddEEEEvRT_RKT0_RKT1_NS0_9enable_ifIXntsrNS0_25evaluator_assume_aliasingISC_NS0_16evaluator_traitsISC_E5ShapeEEE5valueEPvE4typeE, symObjAddr: 0x44B04, symBinAddr: 0x100045294, symSize: 0x34 }
  - { offset: 0x166CBE, size: 0x8, addend: 0x0, symName: __ZN5Eigen8internal31generic_dense_assignment_kernelINS0_9evaluatorINS_3MapINS_6MatrixIdLin1ELi1ELi0ELin1ELi1EEELi0ENS_11OuterStrideILin1EEEEEEENS2_INS_14CwiseNullaryOpINS0_18scalar_constant_opIdEES5_EEEENS0_9assign_opIddEELi0EE11assignCoeffEl, symObjAddr: 0x44A98, symBinAddr: 0x100045228, symSize: 0x6C }
  - { offset: 0x166CF5, size: 0x8, addend: 0x0, symName: __ZN5Eigen8internal26triangular_solver_unrollerINS_3MapINS_6MatrixIdLi2ELi2ELi0ELi2ELi2EEELi0ENS_11OuterStrideILin1EEEEENS2_INS3_IdLi2ELi1ELi0ELi2ELi1EEELi0ENS_6StrideILi0ELi0EEEEELi5ELi1ELi2ELb0EE3runERKS7_RSB_, symObjAddr: 0x449D4, symBinAddr: 0x100045164, symSize: 0xC4 }
  - { offset: 0x166D34, size: 0x8, addend: 0x0, symName: __ZNK5Eigen9DenseBaseINS_3MapINS_6MatrixIdLi2ELi2ELi0ELi2ELi2EEELi0ENS_11OuterStrideILin1EEEEEE3rowEl, symObjAddr: 0x44994, symBinAddr: 0x100045124, symSize: 0x40 }
  - { offset: 0x166D6F, size: 0x8, addend: 0x0, symName: __ZN5Eigen7MapBaseINS_3MapINS_6MatrixIdLi2ELi1ELi0ELi2ELi1EEELi0ENS_6StrideILi0ELi0EEEEELi1EE8coeffRefEl, symObjAddr: 0x44950, symBinAddr: 0x1000450E0, symSize: 0x44 }
  - { offset: 0x166DA6, size: 0x8, addend: 0x0, symName: __ZN5Eigen8internal15call_assignmentINS_3MapINS_6MatrixIdLi2ELi1ELi0ELi2ELi1EEELi0ENS_6StrideILi0ELi0EEEEES7_NS0_9assign_opIddEEEEvRT_RKT0_RKT1_NS0_9enable_ifIXntsrNS0_25evaluator_assume_aliasingISC_NS0_16evaluator_traitsISC_E5ShapeEEE5valueEPvE4typeE, symObjAddr: 0x4491C, symBinAddr: 0x1000450AC, symSize: 0x34 }
  - { offset: 0x166E1A, size: 0x8, addend: 0x0, symName: __ZNK5Eigen8internal18scalar_constant_opIdE8packetOpI13__Float64x2_tEEKT_v, symObjAddr: 0x448F8, symBinAddr: 0x100045088, symSize: 0x24 }
  - { offset: 0x166E75, size: 0x8, addend: 0x0, symName: __ZN5Eigen8internal17mapbase_evaluatorINS_3MapIKNS_6MatrixIdLin1ELi1ELi0ELin1ELi1EEELi16ENS_6StrideILi0ELi0EEEEES5_EC2ERKS8_, symObjAddr: 0x4486C, symBinAddr: 0x100044FFC, symSize: 0x8C }
  - { offset: 0x166EBE, size: 0x8, addend: 0x0, symName: __ZN5Eigen8internal14evaluator_baseINS_14CwiseNullaryOpINS0_18scalar_constant_opIdEEKNS_6MatrixIdLin1ELi1ELi0ELin1ELi1EEEEEEC2Ev, symObjAddr: 0x44858, symBinAddr: 0x100044FE8, symSize: 0x14 }
  - { offset: 0x166EE4, size: 0x8, addend: 0x0, symName: __ZNK5Eigen14CwiseNullaryOpINS_8internal18scalar_constant_opIdEEKNS_6MatrixIdLin1ELi1ELi0ELin1ELi1EEEE7functorEv, symObjAddr: 0x44840, symBinAddr: 0x100044FD0, symSize: 0x18 }
  - { offset: 0x166F19, size: 0x8, addend: 0x0, symName: __ZNK5Eigen8internal9evaluatorINS_14CwiseNullaryOpINS0_18scalar_constant_opIdEENS_6MatrixIdLin1ELin1ELi0ELin1ELin1EEEEEE6packetILi0E13__Float64x2_tlEET0_T1_SC_, symObjAddr: 0x44804, symBinAddr: 0x100044F94, symSize: 0x3C }
  - { offset: 0x166F81, size: 0x8, addend: 0x0, symName: __ZNK5Eigen8internal9evaluatorINS_14CwiseNullaryOpINS0_18scalar_constant_opIdEENS_6MatrixIdLin1ELin1ELi0ELin1ELin1EEEEEE5coeffIlEEdT_SA_, symObjAddr: 0x447C8, symBinAddr: 0x100044F58, symSize: 0x3C }
  - { offset: 0x166FD6, size: 0x8, addend: 0x0, symName: __ZN5Eigen8internal17mapbase_evaluatorINS_3MapINS_6MatrixIdLin1ELin1ELi0ELin1ELin1EEELi0ENS_11OuterStrideILin1EEEEES4_E8coeffRefEll, symObjAddr: 0x44768, symBinAddr: 0x100044EF8, symSize: 0x60 }
  - { offset: 0x167022, size: 0x8, addend: 0x0, symName: __ZNK5Eigen8internal11conj_helperIddLb0ELb0EE5pmaddERKdS4_S4_, symObjAddr: 0x4470C, symBinAddr: 0x100044E9C, symSize: 0x5C }
  - { offset: 0x167088, size: 0x8, addend: 0x0, symName: __ZNK5Eigen8internal11gebp_traitsIddLb0ELb0ELi0ELi0EE16loadLhsUnalignedI13__Float64x2_tEEvPKdRT_, symObjAddr: 0x446D8, symBinAddr: 0x100044E68, symSize: 0x34 }
  - { offset: 0x1670DD, size: 0x8, addend: 0x0, symName: __ZN5Eigen8internal22lhs_process_one_packetILi4ELl2ELl1Eddd13__Float64x2_tS2_dS2_NS0_11gebp_traitsIddLb0ELb0ELi4ELi0EEENS0_16BlasLinearMapperIdlLi0ELi1EEENS0_16blas_data_mapperIdlLi0ELi0ELi1EEEEclERKS8_PKdSD_dllllllilllll, symObjAddr: 0x436FC, symBinAddr: 0x100043E8C, symSize: 0xFDC }
  - { offset: 0x167E75, size: 0x8, addend: 0x0, symName: __ZNK5Eigen8internal11gebp_traitsIddLb0ELb0ELi0ELi0EE3accERKDv2_dS5_R13__Float64x2_t, symObjAddr: 0x436BC, symBinAddr: 0x100043E4C, symSize: 0x40 }
  - { offset: 0x167EEC, size: 0x8, addend: 0x0, symName: __ZN5Eigen8internal8FixedIntILi3EEC1Ev, symObjAddr: 0x436A8, symBinAddr: 0x100043E38, symSize: 0x14 }
  - { offset: 0x167F2C, size: 0x8, addend: 0x0, symName: __ZN5Eigen8internal8FixedIntILi2EEC1Ev, symObjAddr: 0x43694, symBinAddr: 0x100043E24, symSize: 0x14 }
  - { offset: 0x167F6C, size: 0x8, addend: 0x0, symName: __ZN5Eigen8internal8FixedIntILi0EEC1Ev, symObjAddr: 0x43680, symBinAddr: 0x100043E10, symSize: 0x14 }
  - { offset: 0x167F92, size: 0x8, addend: 0x0, symName: __ZNK5Eigen8internal11gebp_traitsIddLb0ELb0ELi0ELi0EE7loadLhsI13__Float64x2_tEEvPKdRT_, symObjAddr: 0x4364C, symBinAddr: 0x100043DDC, symSize: 0x34 }
  - { offset: 0x16800A, size: 0x8, addend: 0x0, symName: __ZN5Eigen8internal11gebp_traitsIddLb0ELb0ELi0ELi0EE7initAccER13__Float64x2_t, symObjAddr: 0x43618, symBinAddr: 0x100043DA8, symSize: 0x34 }
  - { offset: 0x168131, size: 0x8, addend: 0x0, symName: __ZN5Eigen8internal37evaluateProductBlockingSizesHeuristicIddLi4ElEEvRT2_S3_S3_S2_, symObjAddr: 0x42F08, symBinAddr: 0x100043698, symSize: 0x710 }
  - { offset: 0x16850E, size: 0x8, addend: 0x0, symName: __ZN5Eigen8internal24useSpecificBlockingSizesIlEEbRT_S3_S3_, symObjAddr: 0x42ED0, symBinAddr: 0x100043660, symSize: 0x38 }
  - { offset: 0x168563, size: 0x8, addend: 0x0, symName: __ZN5Eigen8internal24call_assignment_no_aliasINS_3MapINS_6MatrixIdLin1ELin1ELi0ELin1ELin1EEELi16ENS_11OuterStrideILin1EEEEES7_NS0_9assign_opIddEEEEvRT_RKT0_RKT1_, symObjAddr: 0x42E98, symBinAddr: 0x100043628, symSize: 0x38 }
  - { offset: 0x1685FD, size: 0x8, addend: 0x0, symName: __ZNK5Eigen8internal17mapbase_evaluatorINS_5BlockINS_6MatrixIiLin1ELi1ELi0ELin1ELi1EEELin1ELi1ELb0EEES4_E5coeffEl, symObjAddr: 0x42E58, symBinAddr: 0x1000435E8, symSize: 0x40 }
  - { offset: 0x168638, size: 0x8, addend: 0x0, symName: __ZNK5Eigen8internal17mapbase_evaluatorINS_5BlockINS_6MatrixIdLin1ELi1ELi0ELin1ELi1EEELin1ELi1ELb0EEES4_E5coeffEl, symObjAddr: 0x42E18, symBinAddr: 0x1000435A8, symSize: 0x40 }
  - { offset: 0x16867E, size: 0x8, addend: 0x0, symName: __ZNK5Eigen8internal12linspaced_opIiEclIlEEKiT_, symObjAddr: 0x42DF4, symBinAddr: 0x100043584, symSize: 0x24 }
  - { offset: 0x1686C1, size: 0x8, addend: 0x0, symName: __ZNK5Eigen8internal15nullary_wrapperIiNS0_18scalar_constant_opIiEELb1ELb0ELb0EE8packetOpI11__Int32x4_tlEET_RKS3_T0_SA_, symObjAddr: 0x42DC4, symBinAddr: 0x100043554, symSize: 0x30 }
  - { offset: 0x16872B, size: 0x8, addend: 0x0, symName: __ZNK5Eigen8internal9evaluatorINS_14CwiseNullaryOpINS0_18scalar_constant_opIiEENS_6MatrixIiLin1ELi1ELi0ELin1ELi1EEEEEE5coeffIlEEiT_, symObjAddr: 0x42D94, symBinAddr: 0x100043524, symSize: 0x30 }
  - { offset: 0x16877A, size: 0x8, addend: 0x0, symName: __ZNK5Eigen8internal15nullary_wrapperIdNS0_18scalar_constant_opIdEELb1ELb0ELb0EEclIlEEdRKS3_T_S8_, symObjAddr: 0x42D64, symBinAddr: 0x1000434F4, symSize: 0x30 }
  - { offset: 0x1687F7, size: 0x8, addend: 0x0, symName: __ZN5Eigen8internal9evaluatorIKNS_13CwiseBinaryOpINS0_17scalar_product_opIddEEKNS_12CwiseUnaryOpINS0_18scalar_opposite_opIdEEKNS2_INS0_20scalar_difference_opIddEEKNS_12ArrayWrapperINS_6MatrixIdLin1ELi1ELi0ELin1ELi1EEEEEKNS_14CwiseNullaryOpINS0_18scalar_constant_opIdEEKNS_5ArrayIdLin1ELi1ELi0ELin1ELi1EEEEEEEEESO_EEEC1ERSS_, symObjAddr: 0x42D3C, symBinAddr: 0x1000434CC, symSize: 0x28 }
  - { offset: 0x168826, size: 0x8, addend: 0x0, symName: __ZNK5Eigen12CwiseUnaryOpINS_8internal13scalar_exp_opIdEEKNS_13CwiseBinaryOpINS1_17scalar_product_opIddEEKNS0_INS1_18scalar_opposite_opIdEEKNS4_INS1_20scalar_difference_opIddEEKNS_12ArrayWrapperINS_6MatrixIdLin1ELi1ELi0ELin1ELi1EEEEEKNS_14CwiseNullaryOpINS1_18scalar_constant_opIdEEKNS_5ArrayIdLin1ELi1ELi0ELin1ELi1EEEEEEEEESP_EEE16nestedExpressionEv, symObjAddr: 0x42D24, symBinAddr: 0x1000434B4, symSize: 0x18 }
  - { offset: 0x168850, size: 0x8, addend: 0x0, symName: __ZNK5Eigen12CwiseUnaryOpINS_8internal13scalar_exp_opIdEEKNS_13CwiseBinaryOpINS1_17scalar_product_opIddEEKNS0_INS1_18scalar_opposite_opIdEEKNS4_INS1_20scalar_difference_opIddEEKNS_12ArrayWrapperINS_6MatrixIdLin1ELi1ELi0ELin1ELi1EEEEEKNS_14CwiseNullaryOpINS1_18scalar_constant_opIdEEKNS_5ArrayIdLin1ELi1ELi0ELin1ELi1EEEEEEEEESP_EEE7functorEv, symObjAddr: 0x42D0C, symBinAddr: 0x10004349C, symSize: 0x18 }
  - { offset: 0x1688A1, size: 0x8, addend: 0x0, symName: __ZN5Eigen8internal9evaluatorIKNS_12ArrayWrapperINS_6MatrixIdLin1ELi1ELi0ELin1ELi1EEEEEEC1ERS6_, symObjAddr: 0x42CE4, symBinAddr: 0x100043474, symSize: 0x28 }
  - { offset: 0x1688D0, size: 0x8, addend: 0x0, symName: __ZNK5Eigen12CwiseUnaryOpINS_8internal13scalar_sin_opIdEEKNS_12ArrayWrapperINS_6MatrixIdLin1ELi1ELi0ELin1ELi1EEEEEE16nestedExpressionEv, symObjAddr: 0x42CD0, symBinAddr: 0x100043460, symSize: 0x14 }
  - { offset: 0x1688FA, size: 0x8, addend: 0x0, symName: __ZNK5Eigen12CwiseUnaryOpINS_8internal13scalar_sin_opIdEEKNS_12ArrayWrapperINS_6MatrixIdLin1ELi1ELi0ELin1ELi1EEEEEE7functorEv, symObjAddr: 0x42CB8, symBinAddr: 0x100043448, symSize: 0x18 }
  - { offset: 0x168920, size: 0x8, addend: 0x0, symName: __ZN5Eigen8internal26permutation_matrix_productINS_5BlockINS_6MatrixIdLin1ELi1ELi0ELin1ELi1EEELin1ELi1ELb1EEELi1ELb1ENS_10DenseShapeEE3runIS5_NS_17PermutationMatrixILin1ELin1EiEEEEvRT_RKT0_RKS5_, symObjAddr: 0x42A10, symBinAddr: 0x1000431A0, symSize: 0x2A8 }
  - { offset: 0x168A43, size: 0x8, addend: 0x0, symName: __ZNK5Eigen7InverseINS_17PermutationMatrixILin1ELin1EiEEE4rowsEv, symObjAddr: 0x429F0, symBinAddr: 0x100043180, symSize: 0x20 }
  - { offset: 0x168A6D, size: 0x8, addend: 0x0, symName: __ZNK5Eigen18TriangularViewImplINS_3MapIKNS_6MatrixIdLin1ELin1ELi0ELin1ELin1EEELi0ENS_11OuterStrideILin1EEEEELj2ENS_5DenseEE11_solve_implINS1_INS2_IdLin1ELi1ELi0ELin1ELi1EEELi0ES6_EESC_EEvRKT_RT0_, symObjAddr: 0x42994, symBinAddr: 0x100043124, symSize: 0x5C }
  - { offset: 0x168ACB, size: 0x8, addend: 0x0, symName: __ZNK5Eigen5SolveINS_14TriangularViewINS_3MapIKNS_6MatrixIdLin1ELin1ELi0ELin1ELin1EEELi0ENS_11OuterStrideILin1EEEEELj2EEENS2_INS3_IdLin1ELi1ELi0ELin1ELi1EEELi0ES7_EEE3rhsEv, symObjAddr: 0x4297C, symBinAddr: 0x10004310C, symSize: 0x18 }
  - { offset: 0x168AF5, size: 0x8, addend: 0x0, symName: __ZNK5Eigen5SolveINS_14TriangularViewINS_3MapIKNS_6MatrixIdLin1ELin1ELi0ELin1ELin1EEELi0ENS_11OuterStrideILin1EEEEELj2EEENS2_INS3_IdLin1ELi1ELi0ELin1ELi1EEELi0ES7_EEE3decEv, symObjAddr: 0x42964, symBinAddr: 0x1000430F4, symSize: 0x18 }
  - { offset: 0x168B1F, size: 0x8, addend: 0x0, symName: __ZNK5Eigen5SolveINS_14TriangularViewINS_3MapIKNS_6MatrixIdLin1ELin1ELi0ELin1ELin1EEELi0ENS_11OuterStrideILin1EEEEELj2EEENS2_INS3_IdLin1ELi1ELi0ELin1ELi1EEELi0ES7_EEE4colsEv, symObjAddr: 0x42944, symBinAddr: 0x1000430D4, symSize: 0x20 }
  - { offset: 0x168B49, size: 0x8, addend: 0x0, symName: __ZNK5Eigen5SolveINS_14TriangularViewINS_3MapIKNS_6MatrixIdLin1ELin1ELi0ELin1ELin1EEELi0ENS_11OuterStrideILin1EEEEELj2EEENS2_INS3_IdLin1ELi1ELi0ELin1ELi1EEELi0ES7_EEE4rowsEv, symObjAddr: 0x42924, symBinAddr: 0x1000430B4, symSize: 0x20 }
  - { offset: 0x168B75, size: 0x8, addend: 0x0, symName: __ZN5Eigen8internal25generic_product_impl_baseINS_3MapIKNS_6MatrixIdLin1ELin1ELi0ELin1ELin1EEELi0ENS_11OuterStrideILin1EEEEENS2_INS3_IdLin1ELi1ELi0ELin1ELi1EEELi0ES7_EENS0_20generic_product_implIS8_SA_NS_10DenseShapeESC_Li7EEEE13scaleAndAddToINS_5BlockIS9_Lin1ELi1ELb0EEEEEvRT_RKS8_RKSA_RKd, symObjAddr: 0x428EC, symBinAddr: 0x10004307C, symSize: 0x38 }
  - { offset: 0x168BDF, size: 0x8, addend: 0x0, symName: __ZNK5Eigen7MapBaseINS_3MapIKNS_6MatrixIdLin1ELin1ELi0ELin1ELin1EEELi0ENS_11OuterStrideILin1EEEEELi0EE4rowsEv, symObjAddr: 0x428CC, symBinAddr: 0x10004305C, symSize: 0x20 }
  - { offset: 0x168C05, size: 0x8, addend: 0x0, symName: __ZN5Eigen8internal10AssignmentINS_3MapINS_6MatrixIdLin1ELi1ELi0ELin1ELi1EEELi0ENS_11OuterStrideILin1EEEEENS_5SolveINS_14TriangularViewINS2_IKNS3_IdLin1ELin1ELi0ELin1ELin1EEELi0ES6_EELj5EEES7_EENS0_9assign_opIddEENS0_11Dense2DenseEvE3runERS7_RKSE_RKSG_, symObjAddr: 0x42810, symBinAddr: 0x100042FA0, symSize: 0xBC }
  - { offset: 0x168C67, size: 0x8, addend: 0x0, symName: __ZN5Eigen8internal26permutation_matrix_productINS_5BlockINS_12CwiseUnaryOpINS0_18scalar_opposite_opIdEEKNS_6MatrixIdLin1ELi1ELi0ELin1ELi1EEEEELin1ELi1ELb1EEELi1ELb0ENS_10DenseShapeEE3runINS2_IS7_Lin1ELi1ELb1EEENS_17PermutationMatrixILin1ELin1EiEEEEvRT_RKT0_RKSA_, symObjAddr: 0x42580, symBinAddr: 0x100042D10, symSize: 0x290 }
  - { offset: 0x168D8A, size: 0x8, addend: 0x0, symName: __ZNK5Eigen9EigenBaseINS_5BlockINS_6MatrixIdLin1ELi1ELi0ELin1ELi1EEELin1ELi1ELb1EEEE4colsEv, symObjAddr: 0x42560, symBinAddr: 0x100042CF0, symSize: 0x20 }
  - { offset: 0x168DB4, size: 0x8, addend: 0x0, symName: __ZNK5Eigen9EigenBaseINS_5BlockINS_6MatrixIdLin1ELi1ELi0ELin1ELi1EEELin1ELi1ELb1EEEE4rowsEv, symObjAddr: 0x42540, symBinAddr: 0x100042CD0, symSize: 0x20 }
  - { offset: 0x168DDE, size: 0x8, addend: 0x0, symName: __ZNK5Eigen8internal15BlockImpl_denseINS_12CwiseUnaryOpINS0_18scalar_opposite_opIdEEKNS_6MatrixIdLin1ELi1ELi0ELin1ELi1EEEEELin1ELi1ELb1ELb0EE4colsEv, symObjAddr: 0x42528, symBinAddr: 0x100042CB8, symSize: 0x18 }
  - { offset: 0x168E08, size: 0x8, addend: 0x0, symName: __ZNK5Eigen7MapBaseINS_5BlockINS_6MatrixIdLin1ELi1ELi0ELin1ELi1EEELin1ELi1ELb1EEELi0EE11checkSanityIS4_EEvNS_8internal9enable_ifIXeqsrNS7_6traitsIT_EE9AlignmentLi0EEPvE4typeE, symObjAddr: 0x42510, symBinAddr: 0x100042CA0, symSize: 0x18 }
  - { offset: 0x168E5E, size: 0x8, addend: 0x0, symName: __ZN5Eigen9DenseBaseINS_5BlockINS_6MatrixIdLin1ELi1ELi0ELin1ELi1EEELin1ELi1ELb1EEEEC2Ev, symObjAddr: 0x424FC, symBinAddr: 0x100042C8C, symSize: 0x14 }
  - { offset: 0x168EF2, size: 0x8, addend: 0x0, symName: __ZN5Eigen15PlainObjectBaseINS_6MatrixIbLin1ELi1ELi0ELin1ELi1EEEE6resizeEll, symObjAddr: 0x423AC, symBinAddr: 0x100042B3C, symSize: 0x150 }
  - { offset: 0x168F87, size: 0x8, addend: 0x0, symName: __ZNK5Eigen14CwiseNullaryOpINS_8internal18scalar_constant_opIbEENS_6MatrixIbLin1ELi1ELi0ELin1ELi1EEEE4colsEv, symObjAddr: 0x42394, symBinAddr: 0x100042B24, symSize: 0x18 }
  - { offset: 0x168FB1, size: 0x8, addend: 0x0, symName: __ZNK5Eigen14CwiseNullaryOpINS_8internal18scalar_constant_opIbEENS_6MatrixIbLin1ELi1ELi0ELin1ELi1EEEE4rowsEv, symObjAddr: 0x42378, symBinAddr: 0x100042B08, symSize: 0x1C }
  - { offset: 0x168FDD, size: 0x8, addend: 0x0, symName: __ZN5Eigen8internal10redux_implINS0_13scalar_sum_opIddEENS0_15redux_evaluatorINS_13CwiseBinaryOpINS0_22scalar_conj_product_opIddEEKNS_9TransposeIKNS_5BlockIKNS_3MapINS_6MatrixIdLin1ELin1ELi0ELin1ELin1EEELi0ENS_11OuterStrideILin1EEEEELi1ELin1ELb0EEEEEKNS9_IKNS9_INSB_IdLin1ELi1ELi0ELin1ELi1EEELin1ELi1ELb0EEELin1ELi1ELb1EEEEEEELi0ELi0EE3runISQ_EEdRKSR_RKS3_RKT_, symObjAddr: 0x42180, symBinAddr: 0x100042910, symSize: 0x1F8 }
  - { offset: 0x1690D1, size: 0x8, addend: 0x0, symName: __ZN5Eigen8internal14evaluator_baseINS_5BlockIKNS2_INS_6MatrixIdLin1ELi1ELi0ELin1ELi1EEELin1ELi1ELb0EEELin1ELi1ELb1EEEED2Ev, symObjAddr: 0x4216C, symBinAddr: 0x1000428FC, symSize: 0x14 }
  - { offset: 0x169111, size: 0x8, addend: 0x0, symName: __ZN5Eigen8internal14evaluator_baseINS_5BlockIKNS_3MapINS_6MatrixIdLin1ELin1ELi0ELin1ELin1EEELi0ENS_11OuterStrideILin1EEEEELi1ELin1ELb0EEEED2Ev, symObjAddr: 0x42158, symBinAddr: 0x1000428E8, symSize: 0x14 }
  - { offset: 0x169151, size: 0x8, addend: 0x0, symName: __ZN5Eigen8internal14evaluator_baseINS_9TransposeIKNS_5BlockIKNS_3MapINS_6MatrixIdLin1ELin1ELi0ELin1ELin1EEELi0ENS_11OuterStrideILin1EEEEELi1ELin1ELb0EEEEEED2Ev, symObjAddr: 0x42144, symBinAddr: 0x1000428D4, symSize: 0x14 }
  - { offset: 0x169191, size: 0x8, addend: 0x0, symName: __ZN5Eigen8internal14evaluator_baseINS_13CwiseBinaryOpINS0_22scalar_conj_product_opIddEEKNS_9TransposeIKNS_5BlockIKNS_3MapINS_6MatrixIdLin1ELin1ELi0ELin1ELin1EEELi0ENS_11OuterStrideILin1EEEEELi1ELin1ELb0EEEEEKNS6_IKNS6_INS8_IdLin1ELi1ELi0ELin1ELi1EEELin1ELi1ELb0EEELin1ELi1ELb1EEEEEED2Ev, symObjAddr: 0x42130, symBinAddr: 0x1000428C0, symSize: 0x14 }
  - { offset: 0x1691DF, size: 0x8, addend: 0x0, symName: __ZN5Eigen8internal15redux_evaluatorINS_13CwiseBinaryOpINS0_22scalar_conj_product_opIddEEKNS_9TransposeIKNS_5BlockIKNS_3MapINS_6MatrixIdLin1ELin1ELi0ELin1ELin1EEELi0ENS_11OuterStrideILin1EEEEELi1ELin1ELb0EEEEEKNS6_IKNS6_INS8_IdLin1ELi1ELi0ELin1ELi1EEELin1ELi1ELb0EEELin1ELi1ELb1EEEEEEC1ERKSN_, symObjAddr: 0x42108, symBinAddr: 0x100042898, symSize: 0x28 }
  - { offset: 0x16920E, size: 0x8, addend: 0x0, symName: __ZNK5Eigen9EigenBaseINS_13CwiseBinaryOpINS_8internal22scalar_conj_product_opIddEEKNS_9TransposeIKNS_5BlockIKNS_3MapINS_6MatrixIdLin1ELin1ELi0ELin1ELin1EEELi0ENS_11OuterStrideILin1EEEEELi1ELin1ELb0EEEEEKNS6_IKNS6_INS8_IdLin1ELi1ELi0ELin1ELi1EEELin1ELi1ELb0EEELin1ELi1ELb1EEEEEE4colsEv, symObjAddr: 0x420E8, symBinAddr: 0x100042878, symSize: 0x20 }
  - { offset: 0x169238, size: 0x8, addend: 0x0, symName: __ZNK5Eigen9EigenBaseINS_13CwiseBinaryOpINS_8internal22scalar_conj_product_opIddEEKNS_9TransposeIKNS_5BlockIKNS_3MapINS_6MatrixIdLin1ELin1ELi0ELin1ELin1EEELi0ENS_11OuterStrideILin1EEEEELi1ELin1ELb0EEEEEKNS6_IKNS6_INS8_IdLin1ELi1ELi0ELin1ELi1EEELin1ELi1ELb0EEELin1ELi1ELb1EEEEEE4rowsEv, symObjAddr: 0x420C8, symBinAddr: 0x100042858, symSize: 0x20 }
  - { offset: 0x169262, size: 0x8, addend: 0x0, symName: __ZNK5Eigen9TransposeIKNS_5BlockIKNS_3MapINS_6MatrixIdLin1ELin1ELi0ELin1ELin1EEELi0ENS_11OuterStrideILin1EEEEELi1ELin1ELb0EEEE4colsEv, symObjAddr: 0x420AC, symBinAddr: 0x10004283C, symSize: 0x1C }
  - { offset: 0x16928C, size: 0x8, addend: 0x0, symName: __ZNK5Eigen9TransposeIKNS_5BlockIKNS_3MapINS_6MatrixIdLin1ELin1ELi0ELin1ELin1EEELi0ENS_11OuterStrideILin1EEEEELi1ELin1ELb0EEEE4rowsEv, symObjAddr: 0x42090, symBinAddr: 0x100042820, symSize: 0x1C }
  - { offset: 0x1692D5, size: 0x8, addend: 0x0, symName: __ZN5Eigen8internal22scalar_conj_product_opIddEC1ERKS2_, symObjAddr: 0x42078, symBinAddr: 0x100042808, symSize: 0x18 }
  - { offset: 0x16931E, size: 0x8, addend: 0x0, symName: __ZN5Eigen9DenseBaseINS_13CwiseBinaryOpINS_8internal22scalar_conj_product_opIddEEKNS_9TransposeIKNS_5BlockIKNS_3MapINS_6MatrixIdLin1ELin1ELi0ELin1ELin1EEELi0ENS_11OuterStrideILin1EEEEELi1ELin1ELb0EEEEEKNS6_IKNS6_INS8_IdLin1ELi1ELi0ELin1ELi1EEELin1ELi1ELb0EEELin1ELi1ELb1EEEEEEC2Ev, symObjAddr: 0x42064, symBinAddr: 0x1000427F4, symSize: 0x14 }
  - { offset: 0x16935E, size: 0x8, addend: 0x0, symName: __ZN5Eigen9DenseBaseINS_9TransposeIKNS_5BlockIKNS_3MapINS_6MatrixIdLin1ELin1ELi0ELin1ELin1EEELi0ENS_11OuterStrideILin1EEEEELi1ELin1ELb0EEEEEEC2Ev, symObjAddr: 0x42050, symBinAddr: 0x1000427E0, symSize: 0x14 }
  - { offset: 0x169384, size: 0x8, addend: 0x0, symName: __ZN5Eigen8internal15BlockImpl_denseIKNS_5BlockINS_6MatrixIdLin1ELi1ELi0ELin1ELi1EEELin1ELi1ELb0EEELin1ELi1ELb1ELb1EE4initEv, symObjAddr: 0x42020, symBinAddr: 0x1000427B0, symSize: 0x30 }
  - { offset: 0x1693F9, size: 0x8, addend: 0x0, symName: __ZN5Eigen7MapBaseINS_5BlockIKNS1_INS_6MatrixIdLin1ELi1ELi0ELin1ELi1EEELin1ELi1ELb0EEELin1ELi1ELb1EEELi0EEC2EPKdll, symObjAddr: 0x41EEC, symBinAddr: 0x10004267C, symSize: 0x134 }
  - { offset: 0x169468, size: 0x8, addend: 0x0, symName: __ZN5Eigen10MatrixBaseINS_5BlockIKNS1_INS_6MatrixIdLin1ELi1ELi0ELin1ELi1EEELin1ELi1ELb0EEELin1ELi1ELb1EEEEC2Ev, symObjAddr: 0x41ECC, symBinAddr: 0x10004265C, symSize: 0x20 }
  - { offset: 0x16948E, size: 0x8, addend: 0x0, symName: __ZN5Eigen8internal15BlockImpl_denseIKNS_3MapINS_6MatrixIdLin1ELin1ELi0ELin1ELin1EEELi0ENS_11OuterStrideILin1EEEEELi1ELin1ELb0ELb1EE4initEv, symObjAddr: 0x41E9C, symBinAddr: 0x10004262C, symSize: 0x30 }
  - { offset: 0x169503, size: 0x8, addend: 0x0, symName: __ZN5Eigen7MapBaseINS_5BlockIKNS_3MapINS_6MatrixIdLin1ELin1ELi0ELin1ELin1EEELi0ENS_11OuterStrideILin1EEEEELi1ELin1ELb0EEELi0EEC2EPKdll, symObjAddr: 0x41D68, symBinAddr: 0x1000424F8, symSize: 0x134 }
  - { offset: 0x169572, size: 0x8, addend: 0x0, symName: __ZN5Eigen10MatrixBaseINS_5BlockIKNS_3MapINS_6MatrixIdLin1ELin1ELi0ELin1ELin1EEELi0ENS_11OuterStrideILin1EEEEELi1ELin1ELb0EEEEC2Ev, symObjAddr: 0x41D48, symBinAddr: 0x1000424D8, symSize: 0x20 }
  - { offset: 0x169594, size: 0x8, addend: 0x0, symName: __ZN5Eigen8internal15call_assignmentINS_5BlockINS_6MatrixIdLin1ELi1ELi0ELin1ELi1EEELin1ELi1ELb0EEENS_3MapIS4_Li16ENS_6StrideILi0ELi0EEEEEEEvRT_RKT0_, symObjAddr: 0x41D0C, symBinAddr: 0x10004249C, symSize: 0x3C }
  - { offset: 0x1695E1, size: 0x8, addend: 0x0, symName: __ZN5Eigen8internal29general_matrix_vector_productIldNS0_22const_blas_data_mapperIdlLi0EEELi0ELb0EdS3_Lb0ELi0EE3runEllRKS3_S6_Pdld, symObjAddr: 0x40644, symBinAddr: 0x100040DD4, symSize: 0x16C8 }
  - { offset: 0x16A790, size: 0x8, addend: 0x0, symName: __ZNK5Eigen7MapBaseINS_3MapIKNS_6MatrixIdLin1ELin1ELi0ELin1ELin1EEELi0ENS_11OuterStrideILin1EEEEELi0EE8coeffRefEll, symObjAddr: 0x405E4, symBinAddr: 0x100040D74, symSize: 0x60 }
  - { offset: 0x16A7DA, size: 0x8, addend: 0x0, symName: __ZN5Eigen10MatrixBaseINS_3MapINS_6MatrixIdLin1ELi1ELi0ELin1ELi1EEELi0ENS_6StrideILi0ELi0EEEEEEmIINS_13CwiseBinaryOpINS_8internal17scalar_product_opIddEEKNS_14CwiseNullaryOpINSA_18scalar_constant_opIdEEKS3_EEKNS_5BlockIKNSJ_IKNS1_IKNS2_IdLin1ELin1ELi0ELin1ELin1EEELi0ENS_11OuterStrideILin1EEEEELin1ELi1ELb1EEELin1ELi1ELb0EEEEEEERS6_RKNS0_IT_EE, symObjAddr: 0x40584, symBinAddr: 0x100040D14, symSize: 0x60 }
  - { offset: 0x16A81F, size: 0x8, addend: 0x0, symName: __ZN5EigenmlIdEEKNS_13CwiseBinaryOpINS_8internal17scalar_product_opINS2_18promote_scalar_argIdT_XsrNS2_14has_ReturnTypeINS_20ScalarBinaryOpTraitsIS5_dNS3_IS5_dEEEEEE5valueEE4typeEdEEKNS2_19plain_constant_typeINS_5BlockIKNSF_IKNS_3MapIKNS_6MatrixIdLin1ELin1ELi0ELin1ELin1EEELi0ENS_11OuterStrideILin1EEEEELin1ELi1ELb1EEELin1ELi1ELb0EEESC_E4typeEKSQ_EERKS5_RKNS_10MatrixBaseISQ_EE, symObjAddr: 0x404E0, symBinAddr: 0x100040C70, symSize: 0xA4 }
  - { offset: 0x16A865, size: 0x8, addend: 0x0, symName: __ZNK5Eigen9DenseBaseINS_5BlockIKNS_3MapIKNS_6MatrixIdLin1ELin1ELi0ELin1ELin1EEELi0ENS_11OuterStrideILin1EEEEELin1ELi1ELb1EEEE7segmentIlEEKNSB_27ConstFixedSegmentReturnTypeIXsrNS_8internal15get_fixed_valueIT_Lin1EEE5valueEE4TypeElSG_, symObjAddr: 0x4048C, symBinAddr: 0x100040C1C, symSize: 0x54 }
  - { offset: 0x16A8BA, size: 0x8, addend: 0x0, symName: __ZNK5Eigen9DenseBaseINS_3MapIKNS_6MatrixIdLin1ELin1ELi0ELin1ELin1EEELi0ENS_11OuterStrideILin1EEEEEE3colEl, symObjAddr: 0x4044C, symBinAddr: 0x100040BDC, symSize: 0x40 }
  - { offset: 0x16A8F5, size: 0x8, addend: 0x0, symName: __ZNK5Eigen7MapBaseINS_3MapIKNS_6MatrixIdLin1ELin1ELi0ELin1ELin1EEELi0ENS_11OuterStrideILin1EEEEELi0EE5coeffEll, symObjAddr: 0x403EC, symBinAddr: 0x100040B7C, symSize: 0x60 }
  - { offset: 0x16A93B, size: 0x8, addend: 0x0, symName: __ZN5Eigen8internal15call_assignmentINS_3MapINS_6MatrixIdLin1ELi1ELi0ELin1ELi1EEELi16ENS_6StrideILi0ELi0EEEEENS_5BlockIS4_Lin1ELi1ELb0EEEEEvRT_RKT0_, symObjAddr: 0x403B0, symBinAddr: 0x100040B40, symSize: 0x3C }
  - { offset: 0x16A98C, size: 0x8, addend: 0x0, symName: __ZN5Eigen10MatrixBaseINS_5BlockINS_6MatrixIdLin1ELi1ELi0ELin1ELi1EEELin1ELi1ELb0EEEEaSERKS5_, symObjAddr: 0x40368, symBinAddr: 0x100040AF8, symSize: 0x48 }
  - { offset: 0x16A9C6, size: 0x8, addend: 0x0, symName: __ZNK5Eigen8internal9evaluatorINS_14CwiseNullaryOpINS0_18scalar_constant_opIdEENS_6MatrixIdLin1ELi1ELi0ELin1ELi1EEEEEE6packetILi0E13__Float64x2_tlEET0_T1_, symObjAddr: 0x40330, symBinAddr: 0x100040AC0, symSize: 0x38 }
  - { offset: 0x16AA1D, size: 0x8, addend: 0x0, symName: __ZN5Eigen8internal31generic_dense_assignment_kernelINS0_9evaluatorINS_5BlockINS_6MatrixIdLin1ELi1ELi0ELin1ELi1EEELin1ELi1ELb0EEEEENS2_INS_14CwiseNullaryOpINS0_18scalar_constant_opIdEES5_EEEENS0_9assign_opIddEELi0EE11assignCoeffEl, symObjAddr: 0x402C4, symBinAddr: 0x100040A54, symSize: 0x6C }
  - { offset: 0x16AA58, size: 0x8, addend: 0x0, symName: __ZN5Eigen10MatrixBaseINS_3MapINS_6MatrixIdLin1ELi1ELi0ELin1ELi1EEELi0ENS_6StrideILi0ELi0EEEEEEaSINS1_IS3_Li16ES5_EEEERS6_RKNS_9DenseBaseIT_EE, symObjAddr: 0x4027C, symBinAddr: 0x100040A0C, symSize: 0x48 }
  - { offset: 0x16AA9B, size: 0x8, addend: 0x0, symName: __ZN5Eigen10MatrixBaseINS_3MapINS_6MatrixIdLin1ELi1ELi0ELin1ELi1EEELi16ENS_6StrideILi0ELi0EEEEEEaSINS1_IS3_Li0ES5_EEEERS6_RKNS_9DenseBaseIT_EE, symObjAddr: 0x40234, symBinAddr: 0x1000409C4, symSize: 0x48 }
  - { offset: 0x16AADA, size: 0x8, addend: 0x0, symName: __ZN5Eigen8internal15call_assignmentINS_3MapINS_6MatrixIdLin1ELi1ELi0ELin1ELi1EEELi0ENS_6StrideILi0ELi0EEEEES7_EEvRT_RKT0_, symObjAddr: 0x401F8, symBinAddr: 0x100040988, symSize: 0x3C }
  - { offset: 0x16AB27, size: 0x8, addend: 0x0, symName: __ZN5Eigen8internal26triangular_solver_unrollerINS_3MapINS_6MatrixIdLi3ELi3ELi0ELi3ELi3EEELi0ENS_11OuterStrideILin1EEEEENS2_INS3_IdLi3ELi1ELi0ELi3ELi1EEELi0ENS_6StrideILi0ELi0EEEEELi5ELi0ELi3ELb0EE3runERKS7_RSB_, symObjAddr: 0x401C8, symBinAddr: 0x100040958, symSize: 0x30 }
  - { offset: 0x16AB66, size: 0x8, addend: 0x0, symName: __ZNK5Eigen7MapBaseINS_3MapINS_6MatrixIdLi3ELi3ELi0ELi3ELi3EEELi0ENS_11OuterStrideILin1EEEEELi0EE4rowsEv, symObjAddr: 0x401B0, symBinAddr: 0x100040940, symSize: 0x18 }
  - { offset: 0x16AB8C, size: 0x8, addend: 0x0, symName: __ZN5Eigen8internal15call_assignmentINS_3MapINS_6MatrixIdLi3ELi1ELi0ELi3ELi1EEELi0ENS_6StrideILi0ELi0EEEEES7_EEvRT_RKT0_, symObjAddr: 0x40174, symBinAddr: 0x100040904, symSize: 0x3C }
  - { offset: 0x16ABDD, size: 0x8, addend: 0x0, symName: __ZN5Eigen8internal31generic_dense_assignment_kernelINS0_9evaluatorINS_3MapINS_6MatrixIdLin1ELi1ELi0ELin1ELi1EEELi0ENS_11OuterStrideILin1EEEEEEENS2_INS_14CwiseNullaryOpINS0_18scalar_constant_opIdEES5_EEEENS0_9assign_opIddEELi0EE12assignPacketILi16ELi0E13__Float64x2_tEEvl, symObjAddr: 0x40108, symBinAddr: 0x100040898, symSize: 0x6C }
  - { offset: 0x16AC31, size: 0x8, addend: 0x0, symName: __ZN5Eigen8internal31unaligned_dense_assignment_loopILb0EE3runINS0_31generic_dense_assignment_kernelINS0_9evaluatorINS_3MapINS_6MatrixIdLin1ELi1ELi0ELin1ELi1EEELi0ENS_11OuterStrideILin1EEEEEEENS5_INS_14CwiseNullaryOpINS0_18scalar_constant_opIdEES8_EEEENS0_9assign_opIddEELi0EEEEEvRT_ll, symObjAddr: 0x400B0, symBinAddr: 0x100040840, symSize: 0x58 }
  - { offset: 0x16ACAE, size: 0x8, addend: 0x0, symName: __ZNK5Eigen8internal31generic_dense_assignment_kernelINS0_9evaluatorINS_3MapINS_6MatrixIdLin1ELi1ELi0ELin1ELi1EEELi0ENS_11OuterStrideILin1EEEEEEENS2_INS_14CwiseNullaryOpINS0_18scalar_constant_opIdEES5_EEEENS0_9assign_opIddEELi0EE10dstDataPtrEv, symObjAddr: 0x40090, symBinAddr: 0x100040820, symSize: 0x20 }
  - { offset: 0x16ACD8, size: 0x8, addend: 0x0, symName: __ZN5Eigen9DenseBaseINS_3MapINS_6MatrixIdLin1ELi1ELi0ELin1ELi1EEELi0ENS_11OuterStrideILin1EEEEEE6resizeEll, symObjAddr: 0x3FFD0, symBinAddr: 0x100040760, symSize: 0xC0 }
  - { offset: 0x16AD2A, size: 0x8, addend: 0x0, symName: __ZN5Eigen8internal26triangular_solver_unrollerINS_3MapINS_6MatrixIdLi2ELi2ELi0ELi2ELi2EEELi0ENS_11OuterStrideILin1EEEEENS2_INS3_IdLi2ELi1ELi0ELi2ELi1EEELi0ENS_6StrideILi0ELi0EEEEELi5ELi0ELi2ELb0EE3runERKS7_RSB_, symObjAddr: 0x3FFA0, symBinAddr: 0x100040730, symSize: 0x30 }
  - { offset: 0x16AD69, size: 0x8, addend: 0x0, symName: __ZNK5Eigen7MapBaseINS_3MapINS_6MatrixIdLi2ELi2ELi0ELi2ELi2EEELi0ENS_11OuterStrideILin1EEEEELi0EE4rowsEv, symObjAddr: 0x3FF88, symBinAddr: 0x100040718, symSize: 0x18 }
  - { offset: 0x16AD8F, size: 0x8, addend: 0x0, symName: __ZN5Eigen8internal15call_assignmentINS_3MapINS_6MatrixIdLi2ELi1ELi0ELi2ELi1EEELi0ENS_6StrideILi0ELi0EEEEES7_EEvRT_RKT0_, symObjAddr: 0x3FF4C, symBinAddr: 0x1000406DC, symSize: 0x3C }
  - { offset: 0x16ADE0, size: 0x8, addend: 0x0, symName: __ZNK5Eigen8internal17mapbase_evaluatorINS_3MapIKNS_6MatrixIdLin1ELi1ELi0ELin1ELi1EEELi16ENS_6StrideILi0ELi0EEEEES5_E5coeffEl, symObjAddr: 0x3FF04, symBinAddr: 0x100040694, symSize: 0x48 }
  - { offset: 0x16AE1B, size: 0x8, addend: 0x0, symName: __ZNK5Eigen8internal9evaluatorINS_14CwiseNullaryOpINS0_18scalar_constant_opIdEEKNS_6MatrixIdLin1ELi1ELi0ELin1ELi1EEEEEE5coeffIlEEdT_, symObjAddr: 0x3FECC, symBinAddr: 0x10004065C, symSize: 0x38 }
  - { offset: 0x16AE5F, size: 0x8, addend: 0x0, symName: __ZNK5Eigen8internal15nullary_wrapperIdNS0_18scalar_constant_opIdEELb1ELb0ELb0EE8packetOpI13__Float64x2_tlEET_RKS3_T0_SA_, symObjAddr: 0x3FE9C, symBinAddr: 0x10004062C, symSize: 0x30 }
  - { offset: 0x16AEE6, size: 0x8, addend: 0x0, symName: __ZN5Eigen8internal9evaluatorINS_3MapIKNS_6MatrixIdLin1ELi1ELi0ELin1ELi1EEELi16ENS_6StrideILi0ELi0EEEEEEC2ERKS8_, symObjAddr: 0x3FE74, symBinAddr: 0x100040604, symSize: 0x28 }
  - { offset: 0x16AF3D, size: 0x8, addend: 0x0, symName: __ZN5Eigen8internal9evaluatorINS_14CwiseNullaryOpINS0_18scalar_constant_opIdEEKNS_6MatrixIdLin1ELi1ELi0ELin1ELi1EEEEEEC2ERKS8_, symObjAddr: 0x3FE30, symBinAddr: 0x1000405C0, symSize: 0x44 }
  - { offset: 0x16AF6C, size: 0x8, addend: 0x0, symName: __ZN5Eigen8internal31generic_dense_assignment_kernelINS0_9evaluatorINS_3MapINS_6MatrixIdLin1ELin1ELi0ELin1ELin1EEELi0ENS_11OuterStrideILin1EEEEEEENS2_INS_14CwiseNullaryOpINS0_18scalar_constant_opIdEES5_EEEENS0_9assign_opIddEELi0EE12assignPacketILi16ELi0E13__Float64x2_tEEvll, symObjAddr: 0x3FDB8, symBinAddr: 0x100040548, symSize: 0x78 }
  - { offset: 0x16AFD5, size: 0x8, addend: 0x0, symName: __ZN5Eigen8internal31generic_dense_assignment_kernelINS0_9evaluatorINS_3MapINS_6MatrixIdLin1ELin1ELi0ELin1ELin1EEELi0ENS_11OuterStrideILin1EEEEEEENS2_INS_14CwiseNullaryOpINS0_18scalar_constant_opIdEES5_EEEENS0_9assign_opIddEELi0EE11assignCoeffEll, symObjAddr: 0x3FD40, symBinAddr: 0x1000404D0, symSize: 0x78 }
  - { offset: 0x16B01D, size: 0x8, addend: 0x0, symName: __ZN5Eigen8internal31generic_dense_assignment_kernelINS0_9evaluatorINS_3MapINS_6MatrixIdLin1ELin1ELi0ELin1ELin1EEELi0ENS_11OuterStrideILin1EEEEEEENS2_INS_14CwiseNullaryOpINS0_18scalar_constant_opIdEES5_EEEENS0_9assign_opIddEELi0EE20colIndexByOuterInnerEll, symObjAddr: 0x3FD28, symBinAddr: 0x1000404B8, symSize: 0x18 }
  - { offset: 0x16B058, size: 0x8, addend: 0x0, symName: __ZN5Eigen8internal31generic_dense_assignment_kernelINS0_9evaluatorINS_3MapINS_6MatrixIdLin1ELin1ELi0ELin1ELin1EEELi0ENS_11OuterStrideILin1EEEEEEENS2_INS_14CwiseNullaryOpINS0_18scalar_constant_opIdEES5_EEEENS0_9assign_opIddEELi0EE20rowIndexByOuterInnerEll, symObjAddr: 0x3FD10, symBinAddr: 0x1000404A0, symSize: 0x18 }
  - { offset: 0x16B0B1, size: 0x8, addend: 0x0, symName: __ZN5Eigen8internal14evaluator_baseINS_3MapINS_6MatrixIdLin1ELin1ELi0ELin1ELin1EEELi0ENS_11OuterStrideILin1EEEEEEC2Ev, symObjAddr: 0x3FCFC, symBinAddr: 0x10004048C, symSize: 0x14 }
  - { offset: 0x16B0D7, size: 0x8, addend: 0x0, symName: __ZN5Eigen8internal11gebp_kernelIddlNS0_16blas_data_mapperIdlLi0ELi0ELi1EEELi6ELi4ELb0ELb0EEclERKS3_PKdS8_llldllll, symObjAddr: 0x3ADC0, symBinAddr: 0x10003B550, symSize: 0x4F3C }
  - { offset: 0x16DD8E, size: 0x8, addend: 0x0, symName: __ZN5Eigen8internal13gemm_pack_lhsIdlNS0_22const_blas_data_mapperIdlLi0EEELi6ELi2E13__Float64x2_tLi0ELb0ELb0EEclEPdRKS3_llll, symObjAddr: 0x3A68C, symBinAddr: 0x10003AE1C, symSize: 0x734 }
  - { offset: 0x16E4B7, size: 0x8, addend: 0x0, symName: __ZN5Eigen8internal13gemm_pack_rhsIdlNS0_16blas_data_mapperIdlLi0ELi0ELi1EEELi4ELi0ELb0ELb1EEclEPdRKS3_llll, symObjAddr: 0x39FC0, symBinAddr: 0x10003A750, symSize: 0x6CC }
  - { offset: 0x16EC37, size: 0x8, addend: 0x0, symName: __ZNK5Eigen8internal7conj_ifILb0EEclIdEERKT_S6_, symObjAddr: 0x39FA8, symBinAddr: 0x10003A738, symSize: 0x18 }
  - { offset: 0x16EC7A, size: 0x8, addend: 0x0, symName: __ZN5Eigen8internal15level3_blockingIddE6blockBEv, symObjAddr: 0x39F90, symBinAddr: 0x10003A720, symSize: 0x18 }
  - { offset: 0x16ECA4, size: 0x8, addend: 0x0, symName: __ZN5Eigen8internal15level3_blockingIddE6blockAEv, symObjAddr: 0x39F78, symBinAddr: 0x10003A708, symSize: 0x18 }
  - { offset: 0x16ECCE, size: 0x8, addend: 0x0, symName: __ZNK5Eigen8internal15level3_blockingIddE2mcEv, symObjAddr: 0x39F60, symBinAddr: 0x10003A6F0, symSize: 0x18 }
  - { offset: 0x16ECF8, size: 0x8, addend: 0x0, symName: __ZNK5Eigen8internal15level3_blockingIddE2kcEv, symObjAddr: 0x39F48, symBinAddr: 0x10003A6D8, symSize: 0x18 }
  - { offset: 0x16ED65, size: 0x8, addend: 0x0, symName: __ZN5Eigen8internal14aligned_deleteIdEEvPT_m, symObjAddr: 0x39F18, symBinAddr: 0x10003A6A8, symSize: 0x30 }
  - { offset: 0x16EDA9, size: 0x8, addend: 0x0, symName: __ZN5Eigen8internal27computeProductBlockingSizesIddLi4ElEEvRT2_S3_S3_S2_, symObjAddr: 0x39EBC, symBinAddr: 0x10003A64C, symSize: 0x5C }
  - { offset: 0x16EE49, size: 0x8, addend: 0x0, symName: __ZN5Eigen8internal15level3_blockingIddEC2Ev, symObjAddr: 0x39E80, symBinAddr: 0x10003A610, symSize: 0x3C }
  - { offset: 0x16EE6B, size: 0x8, addend: 0x0, symName: __ZN5Eigen8internal15call_assignmentINS_3MapINS_6MatrixIdLin1ELin1ELi0ELin1ELin1EEELi16ENS_11OuterStrideILin1EEEEES7_NS0_9assign_opIddEEEEvRT_RKT0_RKT1_NS0_9enable_ifIXntsrNS0_25evaluator_assume_aliasingISC_NS0_16evaluator_traitsISC_E5ShapeEEE5valueEPvE4typeE, symObjAddr: 0x39E4C, symBinAddr: 0x10003A5DC, symSize: 0x34 }
  - { offset: 0x16EEDB, size: 0x8, addend: 0x0, symName: __ZSt9__fill_a1IPiiEvT_S1_RKT0_, symObjAddr: 0x39DEC, symBinAddr: 0x10003A57C, symSize: 0x60 }
  - { offset: 0x16EF6C, size: 0x8, addend: 0x0, symName: __ZN5Eigen8internal31generic_dense_assignment_kernelINS0_9evaluatorINS_6MatrixIiLin1ELi1ELi0ELin1ELi1EEEEENS2_INS_5BlockIS4_Lin1ELi1ELb0EEEEENS0_9assign_opIiiEELi0EE11assignCoeffEl, symObjAddr: 0x39D8C, symBinAddr: 0x10003A51C, symSize: 0x60 }
  - { offset: 0x16EFA7, size: 0x8, addend: 0x0, symName: __ZNK5Eigen8internal17mapbase_evaluatorINS_5BlockINS_6MatrixIiLin1ELi1ELi0ELin1ELi1EEELin1ELi1ELb0EEES4_E6packetILi0E11__Int32x4_tEET0_l, symObjAddr: 0x39D34, symBinAddr: 0x10003A4C4, symSize: 0x58 }
  - { offset: 0x16F019, size: 0x8, addend: 0x0, symName: __ZN5Eigen8internal31generic_dense_assignment_kernelINS0_9evaluatorINS_6MatrixIdLin1ELi1ELi0ELin1ELi1EEEEENS2_INS_5BlockIS4_Lin1ELi1ELb0EEEEENS0_9assign_opIddEELi0EE11assignCoeffEl, symObjAddr: 0x39CD4, symBinAddr: 0x10003A464, symSize: 0x60 }
  - { offset: 0x16F054, size: 0x8, addend: 0x0, symName: __ZNK5Eigen8internal17mapbase_evaluatorINS_5BlockINS_6MatrixIdLin1ELi1ELi0ELin1ELi1EEELin1ELi1ELb0EEES4_E6packetILi0E13__Float64x2_tEET0_l, symObjAddr: 0x39C7C, symBinAddr: 0x10003A40C, symSize: 0x58 }
  - { offset: 0x16F0D1, size: 0x8, addend: 0x0, symName: __ZNK5Eigen8internal15nullary_wrapperIiNS0_12linspaced_opIiEELb0ELb1ELb0EEclIlEEiRKS3_T_, symObjAddr: 0x39C54, symBinAddr: 0x10003A3E4, symSize: 0x28 }
  - { offset: 0x16F126, size: 0x8, addend: 0x0, symName: __ZNK5Eigen8internal17mapbase_evaluatorINS_3MapINS_6MatrixIiLin1ELi1ELi0ELin1ELi1EEELi0ENS_6StrideILi0ELi0EEEEES4_E5coeffEl, symObjAddr: 0x39C14, symBinAddr: 0x10003A3A4, symSize: 0x40 }
  - { offset: 0x16F161, size: 0x8, addend: 0x0, symName: __ZNK5Eigen8internal9evaluatorINS_14CwiseNullaryOpINS0_18scalar_constant_opIiEENS_6MatrixIiLin1ELi1ELi0ELin1ELi1EEEEEE6packetILi0E11__Int32x4_tlEET0_T1_, symObjAddr: 0x39BDC, symBinAddr: 0x10003A36C, symSize: 0x38 }
  - { offset: 0x16F1B8, size: 0x8, addend: 0x0, symName: __ZN5Eigen8internal31generic_dense_assignment_kernelINS0_9evaluatorINS_3MapINS_6MatrixIiLin1ELi1ELi0ELin1ELi1EEELi0ENS_6StrideILi0ELi0EEEEEEENS2_INS_14CwiseNullaryOpINS0_18scalar_constant_opIiEES5_EEEENS0_9assign_opIiiEELi0EE11assignCoeffEl, symObjAddr: 0x39B74, symBinAddr: 0x10003A304, symSize: 0x68 }
  - { offset: 0x16F1F3, size: 0x8, addend: 0x0, symName: __ZNK5Eigen13CwiseBinaryOpINS_8internal20scalar_difference_opIddEEKNS_6MatrixIdLin1ELi1ELi0ELin1ELi1EEES6_E3rhsEv, symObjAddr: 0x39B5C, symBinAddr: 0x10003A2EC, symSize: 0x18 }
  - { offset: 0x16F21D, size: 0x8, addend: 0x0, symName: __ZNK5Eigen13CwiseBinaryOpINS_8internal20scalar_difference_opIddEEKNS_6MatrixIdLin1ELi1ELi0ELin1ELi1EEES6_E3lhsEv, symObjAddr: 0x39B44, symBinAddr: 0x10003A2D4, symSize: 0x18 }
  - { offset: 0x16F247, size: 0x8, addend: 0x0, symName: __ZNK5Eigen13CwiseBinaryOpINS_8internal20scalar_difference_opIddEEKNS_6MatrixIdLin1ELi1ELi0ELin1ELi1EEES6_E7functorEv, symObjAddr: 0x39B2C, symBinAddr: 0x10003A2BC, symSize: 0x18 }
  - { offset: 0x16F27C, size: 0x8, addend: 0x0, symName: __ZNK5Eigen8internal9evaluatorINS_14CwiseNullaryOpINS0_18scalar_constant_opIdEEKNS_5ArrayIdLin1ELi1ELi0ELin1ELi1EEEEEE5coeffIlEEdT_, symObjAddr: 0x39AF4, symBinAddr: 0x10003A284, symSize: 0x38 }
  - { offset: 0x16F2C0, size: 0x8, addend: 0x0, symName: __ZNK5Eigen8internal16binary_evaluatorINS_13CwiseBinaryOpINS0_20scalar_difference_opIddEEKNS_12ArrayWrapperINS_6MatrixIdLin1ELi1ELi0ELin1ELi1EEEEEKNS_14CwiseNullaryOpINS0_18scalar_constant_opIdEEKNS_5ArrayIdLin1ELi1ELi0ELin1ELi1EEEEEEENS0_10IndexBasedESJ_ddE4Data4funcEv, symObjAddr: 0x39AE0, symBinAddr: 0x10003A270, symSize: 0x14 }
  - { offset: 0x16F2EA, size: 0x8, addend: 0x0, symName: __ZNK5Eigen8internal18scalar_opposite_opIdEclERKd, symObjAddr: 0x39ABC, symBinAddr: 0x10003A24C, symSize: 0x24 }
  - { offset: 0x16F324, size: 0x8, addend: 0x0, symName: __ZNK5Eigen8internal15unary_evaluatorINS_12CwiseUnaryOpINS0_18scalar_opposite_opIdEEKNS_13CwiseBinaryOpINS0_20scalar_difference_opIddEEKNS_12ArrayWrapperINS_6MatrixIdLin1ELi1ELi0ELin1ELi1EEEEEKNS_14CwiseNullaryOpINS0_18scalar_constant_opIdEEKNS_5ArrayIdLin1ELi1ELi0ELin1ELi1EEEEEEEEENS0_10IndexBasedEdE4Data4funcEv, symObjAddr: 0x39AA8, symBinAddr: 0x10003A238, symSize: 0x14 }
  - { offset: 0x16F376, size: 0x8, addend: 0x0, symName: __ZN5Eigen8internal15unary_evaluatorINS_12CwiseUnaryOpINS0_13scalar_exp_opIdEEKNS_13CwiseBinaryOpINS0_17scalar_product_opIddEEKNS2_INS0_18scalar_opposite_opIdEEKNS5_INS0_20scalar_difference_opIddEEKNS_12ArrayWrapperINS_6MatrixIdLin1ELi1ELi0ELin1ELi1EEEEEKNS_14CwiseNullaryOpINS0_18scalar_constant_opIdEEKNS_5ArrayIdLin1ELi1ELi0ELin1ELi1EEEEEEEEESQ_EEEENS0_10IndexBasedEdE4DataC1ERKSV_, symObjAddr: 0x39A50, symBinAddr: 0x10003A1E0, symSize: 0x58 }
  - { offset: 0x16F3BF, size: 0x8, addend: 0x0, symName: __ZN5Eigen8internal14evaluator_baseINS_12CwiseUnaryOpINS0_13scalar_exp_opIdEEKNS_13CwiseBinaryOpINS0_17scalar_product_opIddEEKNS2_INS0_18scalar_opposite_opIdEEKNS5_INS0_20scalar_difference_opIddEEKNS_12ArrayWrapperINS_6MatrixIdLin1ELi1ELi0ELin1ELi1EEEEEKNS_14CwiseNullaryOpINS0_18scalar_constant_opIdEEKNS_5ArrayIdLin1ELi1ELi0ELin1ELi1EEEEEEEEESQ_EEEEEC2Ev, symObjAddr: 0x39A3C, symBinAddr: 0x10003A1CC, symSize: 0x14 }
  - { offset: 0x16F40D, size: 0x8, addend: 0x0, symName: __ZN5Eigen8internal15unary_evaluatorINS_12CwiseUnaryOpINS0_13scalar_sin_opIdEEKNS_12ArrayWrapperINS_6MatrixIdLin1ELi1ELi0ELin1ELi1EEEEEEENS0_10IndexBasedEdE4DataC1ERKSA_, symObjAddr: 0x399E4, symBinAddr: 0x10003A174, symSize: 0x58 }
  - { offset: 0x16F456, size: 0x8, addend: 0x0, symName: __ZN5Eigen8internal14evaluator_baseINS_12CwiseUnaryOpINS0_13scalar_sin_opIdEEKNS_12ArrayWrapperINS_6MatrixIdLin1ELi1ELi0ELin1ELi1EEEEEEEEC2Ev, symObjAddr: 0x399D0, symBinAddr: 0x10003A160, symSize: 0x14 }
  - { offset: 0x16F478, size: 0x8, addend: 0x0, symName: __ZN5Eigen8internal20generic_product_implINS_7InverseINS_17PermutationMatrixILin1ELin1EiEEEENS_5BlockINS_6MatrixIdLin1ELi1ELi0ELin1ELi1EEELin1ELi1ELb1EEENS_16PermutationShapeENS_10DenseShapeELi7EE6evalToIS9_EEvRT_RKS5_RKS9_, symObjAddr: 0x39998, symBinAddr: 0x10003A128, symSize: 0x38 }
  - { offset: 0x16F4D1, size: 0x8, addend: 0x0, symName: __ZNK5Eigen7ProductINS_7InverseINS_17PermutationMatrixILin1ELin1EiEEEENS_5BlockINS_6MatrixIdLin1ELi1ELi0ELin1ELi1EEELin1ELi1ELb1EEELi2EE3rhsEv, symObjAddr: 0x39980, symBinAddr: 0x10003A110, symSize: 0x18 }
  - { offset: 0x16F4FB, size: 0x8, addend: 0x0, symName: __ZNK5Eigen7ProductINS_7InverseINS_17PermutationMatrixILin1ELin1EiEEEENS_5BlockINS_6MatrixIdLin1ELi1ELi0ELin1ELi1EEELin1ELi1ELb1EEELi2EE3lhsEv, symObjAddr: 0x3996C, symBinAddr: 0x10003A0FC, symSize: 0x14 }
  - { offset: 0x16F525, size: 0x8, addend: 0x0, symName: __ZNK5Eigen7ProductINS_7InverseINS_17PermutationMatrixILin1ELin1EiEEEENS_5BlockINS_6MatrixIdLin1ELi1ELi0ELin1ELi1EEELin1ELi1ELb1EEELi2EE4colsEv, symObjAddr: 0x3994C, symBinAddr: 0x10003A0DC, symSize: 0x20 }
  - { offset: 0x16F54F, size: 0x8, addend: 0x0, symName: __ZNK5Eigen7ProductINS_7InverseINS_17PermutationMatrixILin1ELin1EiEEEENS_5BlockINS_6MatrixIdLin1ELi1ELi0ELin1ELi1EEELin1ELi1ELb1EEELi2EE4rowsEv, symObjAddr: 0x39930, symBinAddr: 0x10003A0C0, symSize: 0x1C }
  - { offset: 0x16F575, size: 0x8, addend: 0x0, symName: __ZN5Eigen8internal10AssignmentINS_3MapINS_6MatrixIdLin1ELi1ELi0ELin1ELi1EEELi0ENS_11OuterStrideILin1EEEEENS_5SolveINS_14TriangularViewINS2_IKNS3_IdLin1ELin1ELi0ELin1ELin1EEELi0ES6_EELj2EEES7_EENS0_9assign_opIddEENS0_11Dense2DenseEvE3runERS7_RKSE_RKSG_, symObjAddr: 0x39874, symBinAddr: 0x10003A004, symSize: 0xBC }
  - { offset: 0x16F5D7, size: 0x8, addend: 0x0, symName: __ZN5Eigen8internal25generic_product_impl_baseINS_3MapIKNS_6MatrixIdLin1ELin1ELi0ELin1ELin1EEELi0ENS_11OuterStrideILin1EEEEENS2_INS3_IdLin1ELi1ELi0ELin1ELi1EEELi0ES7_EENS0_20generic_product_implIS8_SA_NS_10DenseShapeESC_Li7EEEE6evalToINS_5BlockIS9_Lin1ELi1ELb0EEEEEvRT_RKS8_RKSA_, symObjAddr: 0x3982C, symBinAddr: 0x100039FBC, symSize: 0x48 }
  - { offset: 0x16F630, size: 0x8, addend: 0x0, symName: __ZNK5Eigen7ProductINS_3MapIKNS_6MatrixIdLin1ELin1ELi0ELin1ELin1EEELi0ENS_11OuterStrideILin1EEEEENS1_INS2_IdLin1ELi1ELi0ELin1ELi1EEELi0ES6_EELi0EE3rhsEv, symObjAddr: 0x39814, symBinAddr: 0x100039FA4, symSize: 0x18 }
  - { offset: 0x16F65A, size: 0x8, addend: 0x0, symName: __ZNK5Eigen7ProductINS_3MapIKNS_6MatrixIdLin1ELin1ELi0ELin1ELin1EEELi0ENS_11OuterStrideILin1EEEEENS1_INS2_IdLin1ELi1ELi0ELin1ELi1EEELi0ES6_EELi0EE3lhsEv, symObjAddr: 0x39800, symBinAddr: 0x100039F90, symSize: 0x14 }
  - { offset: 0x16F684, size: 0x8, addend: 0x0, symName: __ZNK5Eigen7ProductINS_3MapIKNS_6MatrixIdLin1ELin1ELi0ELin1ELin1EEELi0ENS_11OuterStrideILin1EEEEENS1_INS2_IdLin1ELi1ELi0ELin1ELi1EEELi0ES6_EELi0EE4colsEv, symObjAddr: 0x397E0, symBinAddr: 0x100039F70, symSize: 0x20 }
  - { offset: 0x16F6AE, size: 0x8, addend: 0x0, symName: __ZNK5Eigen7ProductINS_3MapIKNS_6MatrixIdLin1ELin1ELi0ELin1ELin1EEELi0ENS_11OuterStrideILin1EEEEENS1_INS2_IdLin1ELi1ELi0ELin1ELi1EEELi0ES6_EELi0EE4rowsEv, symObjAddr: 0x397C4, symBinAddr: 0x100039F54, symSize: 0x1C }
  - { offset: 0x16F6D4, size: 0x8, addend: 0x0, symName: __ZN5Eigen8internal24call_assignment_no_aliasINS_3MapINS_6MatrixIdLin1ELi1ELi0ELin1ELi1EEELi0ENS_11OuterStrideILin1EEEEENS_5SolveINS_14TriangularViewINS2_IKNS3_IdLin1ELin1ELi0ELin1ELin1EEELi0ES6_EELj5EEES7_EENS0_9assign_opIddEEEEvRT_RKT0_RKT1_, symObjAddr: 0x3978C, symBinAddr: 0x100039F1C, symSize: 0x38 }
  - { offset: 0x16F76A, size: 0x8, addend: 0x0, symName: __ZN5Eigen8internal20generic_product_implINS_17PermutationMatrixILin1ELin1EiEENS_5BlockINS_12CwiseUnaryOpINS0_18scalar_opposite_opIdEEKNS_6MatrixIdLin1ELi1ELi0ELin1ELi1EEEEELin1ELi1ELb1EEENS_16PermutationShapeENS_10DenseShapeELi7EE6evalToINS4_IS9_Lin1ELi1ELb1EEEEEvRT_RKS3_RKSC_, symObjAddr: 0x3975C, symBinAddr: 0x100039EEC, symSize: 0x30 }
  - { offset: 0x16F7C3, size: 0x8, addend: 0x0, symName: __ZNK5Eigen7ProductINS_17PermutationMatrixILin1ELin1EiEENS_5BlockINS_12CwiseUnaryOpINS_8internal18scalar_opposite_opIdEEKNS_6MatrixIdLin1ELi1ELi0ELin1ELi1EEEEELin1ELi1ELb1EEELi2EE3rhsEv, symObjAddr: 0x39744, symBinAddr: 0x100039ED4, symSize: 0x18 }
  - { offset: 0x16F7ED, size: 0x8, addend: 0x0, symName: __ZNK5Eigen7ProductINS_17PermutationMatrixILin1ELin1EiEENS_5BlockINS_12CwiseUnaryOpINS_8internal18scalar_opposite_opIdEEKNS_6MatrixIdLin1ELi1ELi0ELin1ELi1EEEEELin1ELi1ELb1EEELi2EE3lhsEv, symObjAddr: 0x3972C, symBinAddr: 0x100039EBC, symSize: 0x18 }
  - { offset: 0x16F817, size: 0x8, addend: 0x0, symName: __ZN5Eigen9DenseBaseINS_5BlockINS_6MatrixIdLin1ELi1ELi0ELin1ELi1EEELin1ELi1ELb1EEEE6resizeEll, symObjAddr: 0x3966C, symBinAddr: 0x100039DFC, symSize: 0xC0 }
  - { offset: 0x16F86D, size: 0x8, addend: 0x0, symName: __ZNK5Eigen7MapBaseINS_5BlockINS_6MatrixIdLin1ELi1ELi0ELin1ELi1EEELin1ELi1ELb1EEELi0EE4colsEv, symObjAddr: 0x39654, symBinAddr: 0x100039DE4, symSize: 0x18 }
  - { offset: 0x16F897, size: 0x8, addend: 0x0, symName: __ZNK5Eigen7ProductINS_17PermutationMatrixILin1ELin1EiEENS_5BlockINS_12CwiseUnaryOpINS_8internal18scalar_opposite_opIdEEKNS_6MatrixIdLin1ELi1ELi0ELin1ELi1EEEEELin1ELi1ELb1EEELi2EE4colsEv, symObjAddr: 0x39634, symBinAddr: 0x100039DC4, symSize: 0x20 }
  - { offset: 0x16F8C1, size: 0x8, addend: 0x0, symName: __ZNK5Eigen7ProductINS_17PermutationMatrixILin1ELin1EiEENS_5BlockINS_12CwiseUnaryOpINS_8internal18scalar_opposite_opIdEEKNS_6MatrixIdLin1ELi1ELi0ELin1ELi1EEEEELin1ELi1ELb1EEELi2EE4rowsEv, symObjAddr: 0x39614, symBinAddr: 0x100039DA4, symSize: 0x20 }
  - { offset: 0x16F936, size: 0x8, addend: 0x0, symName: __ZN5Eigen7MapBaseINS_5BlockINS_6MatrixIdLin1ELi1ELi0ELin1ELi1EEELin1ELi1ELb1EEELi0EEC2EPdll, symObjAddr: 0x394E0, symBinAddr: 0x100039C70, symSize: 0x134 }
  - { offset: 0x16F9A5, size: 0x8, addend: 0x0, symName: __ZN5Eigen10MatrixBaseINS_5BlockINS_6MatrixIdLin1ELi1ELi0ELin1ELi1EEELin1ELi1ELb1EEEEC2Ev, symObjAddr: 0x394C0, symBinAddr: 0x100039C50, symSize: 0x20 }
  - { offset: 0x16FA18, size: 0x8, addend: 0x0, symName: __ZNK5Eigen8internal18scalar_constant_opIbEclEv, symObjAddr: 0x394A8, symBinAddr: 0x100039C38, symSize: 0x18 }
  - { offset: 0x16FA42, size: 0x8, addend: 0x0, symName: __ZNK5Eigen14CwiseNullaryOpINS_8internal18scalar_constant_opIbEENS_6MatrixIbLin1ELi1ELi0ELin1ELi1EEEE7functorEv, symObjAddr: 0x39490, symBinAddr: 0x100039C20, symSize: 0x18 }
  - { offset: 0x16FA6C, size: 0x8, addend: 0x0, symName: __ZN5Eigen15PlainObjectBaseINS_6MatrixIbLin1ELi1ELi0ELin1ELi1EEEE4dataEv, symObjAddr: 0x39474, symBinAddr: 0x100039C04, symSize: 0x1C }
  - { offset: 0x16FA92, size: 0x8, addend: 0x0, symName: __ZN5Eigen8internal17resize_if_allowedINS_6MatrixIbLin1ELi1ELi0ELin1ELi1EEENS_14CwiseNullaryOpINS0_18scalar_constant_opIbEES3_EEbbEEvRT_RKT0_RKNS0_9assign_opIT1_T2_EE, symObjAddr: 0x3935C, symBinAddr: 0x100039AEC, symSize: 0x118 }
  - { offset: 0x16FB26, size: 0x8, addend: 0x0, symName: __ZN5Eigen8internal4pmulIdEET_RKS2_S4_, symObjAddr: 0x39330, symBinAddr: 0x100039AC0, symSize: 0x2C }
  - { offset: 0x16FB6C, size: 0x8, addend: 0x0, symName: __ZNK5Eigen8internal7conj_ifILb0EE5pconjIdEERKT_S6_, symObjAddr: 0x39318, symBinAddr: 0x100039AA8, symSize: 0x18 }
  - { offset: 0x16FBAF, size: 0x8, addend: 0x0, symName: __ZNK5Eigen8internal7conj_ifILb0EE5pconjI13__Float64x2_tEERKT_S7_, symObjAddr: 0x39300, symBinAddr: 0x100039A90, symSize: 0x18 }
  - { offset: 0x16FBEE, size: 0x8, addend: 0x0, symName: __ZN5Eigen8internal17real_default_implIdLb0EE3runERKd, symObjAddr: 0x392E4, symBinAddr: 0x100039A74, symSize: 0x1C }
  - { offset: 0x16FC17, size: 0x8, addend: 0x0, symName: __ZN5Eigen8internal11blas_traitsINS_5BlockINS_6MatrixIdLin1ELi1ELi0ELin1ELi1EEELin1ELi1ELb0EEEE19extractScalarFactorERKS5_, symObjAddr: 0x392CC, symBinAddr: 0x100039A5C, symSize: 0x18 }
  - { offset: 0x16FC39, size: 0x8, addend: 0x0, symName: __ZN5Eigen8internal11blas_traitsINS_3MapINS_6MatrixIdLin1ELin1ELi0ELin1ELin1EEELi0ENS_11OuterStrideILin1EEEEEE19extractScalarFactorERKS7_, symObjAddr: 0x392B4, symBinAddr: 0x100039A44, symSize: 0x18 }
  - { offset: 0x16FC5F, size: 0x8, addend: 0x0, symName: __ZNK5Eigen9DenseBaseINS_13CwiseBinaryOpINS_8internal22scalar_conj_product_opIddEEKNS_9TransposeIKNS_5BlockIKNS_3MapINS_6MatrixIdLin1ELin1ELi0ELin1ELin1EEELi0ENS_11OuterStrideILin1EEEEELi1ELin1ELb0EEEEEKNS6_IKNS6_INS8_IdLin1ELi1ELi0ELin1ELi1EEELin1ELi1ELb0EEELin1ELi1ELb1EEEEEE5reduxINS2_13scalar_sum_opIddEEEEdRKT_, symObjAddr: 0x3919C, symBinAddr: 0x10003992C, symSize: 0x118 }
  - { offset: 0x16FCEB, size: 0x8, addend: 0x0, symName: __ZN5Eigen8internal15redux_evaluatorINS_13CwiseBinaryOpINS0_22scalar_conj_product_opIddEEKNS_9TransposeIKNS_5BlockIKNS_3MapINS_6MatrixIdLin1ELin1ELi0ELin1ELin1EEELi0ENS_11OuterStrideILin1EEEEELi1ELin1ELb0EEEEEKNS6_IKNS6_INS8_IdLin1ELi1ELi0ELin1ELi1EEELin1ELi1ELb0EEELin1ELi1ELb1EEEEEED1Ev, symObjAddr: 0x3917C, symBinAddr: 0x10003990C, symSize: 0x20 }
  - { offset: 0x16FD2F, size: 0x8, addend: 0x0, symName: __ZN5Eigen8internal9evaluatorINS_13CwiseBinaryOpINS0_22scalar_conj_product_opIddEEKNS_9TransposeIKNS_5BlockIKNS_3MapINS_6MatrixIdLin1ELin1ELi0ELin1ELin1EEELi0ENS_11OuterStrideILin1EEEEELi1ELin1ELb0EEEEEKNS6_IKNS6_INS8_IdLin1ELi1ELi0ELin1ELi1EEELin1ELi1ELb0EEELin1ELi1ELb1EEEEEED2Ev, symObjAddr: 0x3915C, symBinAddr: 0x1000398EC, symSize: 0x20 }
  - { offset: 0x16FD73, size: 0x8, addend: 0x0, symName: __ZN5Eigen8internal16binary_evaluatorINS_13CwiseBinaryOpINS0_22scalar_conj_product_opIddEEKNS_9TransposeIKNS_5BlockIKNS_3MapINS_6MatrixIdLin1ELin1ELi0ELin1ELin1EEELi0ENS_11OuterStrideILin1EEEEELi1ELin1ELb0EEEEEKNS6_IKNS6_INS8_IdLin1ELi1ELi0ELin1ELi1EEELin1ELi1ELb0EEELin1ELi1ELb1EEEEENS0_10IndexBasedESO_ddED2Ev, symObjAddr: 0x39134, symBinAddr: 0x1000398C4, symSize: 0x28 }
  - { offset: 0x16FDB7, size: 0x8, addend: 0x0, symName: __ZN5Eigen8internal16binary_evaluatorINS_13CwiseBinaryOpINS0_22scalar_conj_product_opIddEEKNS_9TransposeIKNS_5BlockIKNS_3MapINS_6MatrixIdLin1ELin1ELi0ELin1ELin1EEELi0ENS_11OuterStrideILin1EEEEELi1ELin1ELb0EEEEEKNS6_IKNS6_INS8_IdLin1ELi1ELi0ELin1ELi1EEELin1ELi1ELb0EEELin1ELi1ELb1EEEEENS0_10IndexBasedESO_ddE4DataD1Ev, symObjAddr: 0x39104, symBinAddr: 0x100039894, symSize: 0x30 }
  - { offset: 0x16FDFA, size: 0x8, addend: 0x0, symName: __ZN5Eigen8internal9evaluatorIKNS_5BlockIKNS2_INS_6MatrixIdLin1ELi1ELi0ELin1ELi1EEELin1ELi1ELb0EEELin1ELi1ELb1EEEED1Ev, symObjAddr: 0x390E4, symBinAddr: 0x100039874, symSize: 0x20 }
  - { offset: 0x16FE3E, size: 0x8, addend: 0x0, symName: __ZN5Eigen8internal9evaluatorINS_5BlockIKNS2_INS_6MatrixIdLin1ELi1ELi0ELin1ELi1EEELin1ELi1ELb0EEELin1ELi1ELb1EEEED2Ev, symObjAddr: 0x390C4, symBinAddr: 0x100039854, symSize: 0x20 }
  - { offset: 0x16FE82, size: 0x8, addend: 0x0, symName: __ZN5Eigen8internal15block_evaluatorIKNS_5BlockINS_6MatrixIdLin1ELi1ELi0ELin1ELi1EEELin1ELi1ELb0EEELin1ELi1ELb1ELb1EED2Ev, symObjAddr: 0x390A4, symBinAddr: 0x100039834, symSize: 0x20 }
  - { offset: 0x16FEC6, size: 0x8, addend: 0x0, symName: __ZN5Eigen8internal17mapbase_evaluatorINS_5BlockIKNS2_INS_6MatrixIdLin1ELi1ELi0ELin1ELi1EEELin1ELi1ELb0EEELin1ELi1ELb1EEES4_ED2Ev, symObjAddr: 0x39084, symBinAddr: 0x100039814, symSize: 0x20 }
  - { offset: 0x16FF09, size: 0x8, addend: 0x0, symName: __ZN5Eigen8internal9evaluatorIKNS_9TransposeIKNS_5BlockIKNS_3MapINS_6MatrixIdLin1ELin1ELi0ELin1ELin1EEELi0ENS_11OuterStrideILin1EEEEELi1ELin1ELb0EEEEEED1Ev, symObjAddr: 0x39064, symBinAddr: 0x1000397F4, symSize: 0x20 }
  - { offset: 0x16FF4C, size: 0x8, addend: 0x0, symName: __ZN5Eigen8internal9evaluatorINS_9TransposeIKNS_5BlockIKNS_3MapINS_6MatrixIdLin1ELin1ELi0ELin1ELin1EEELi0ENS_11OuterStrideILin1EEEEELi1ELin1ELb0EEEEEED2Ev, symObjAddr: 0x39044, symBinAddr: 0x1000397D4, symSize: 0x20 }
  - { offset: 0x16FF90, size: 0x8, addend: 0x0, symName: __ZN5Eigen8internal15unary_evaluatorINS_9TransposeIKNS_5BlockIKNS_3MapINS_6MatrixIdLin1ELin1ELi0ELin1ELin1EEELi0ENS_11OuterStrideILin1EEEEELi1ELin1ELb0EEEEENS0_10IndexBasedEdED2Ev, symObjAddr: 0x3901C, symBinAddr: 0x1000397AC, symSize: 0x28 }
  - { offset: 0x16FFD3, size: 0x8, addend: 0x0, symName: __ZN5Eigen8internal9evaluatorIKNS_5BlockIKNS_3MapINS_6MatrixIdLin1ELin1ELi0ELin1ELin1EEELi0ENS_11OuterStrideILin1EEEEELi1ELin1ELb0EEEED1Ev, symObjAddr: 0x38FFC, symBinAddr: 0x10003978C, symSize: 0x20 }
  - { offset: 0x170017, size: 0x8, addend: 0x0, symName: __ZN5Eigen8internal9evaluatorINS_5BlockIKNS_3MapINS_6MatrixIdLin1ELin1ELi0ELin1ELin1EEELi0ENS_11OuterStrideILin1EEEEELi1ELin1ELb0EEEED2Ev, symObjAddr: 0x38FDC, symBinAddr: 0x10003976C, symSize: 0x20 }
  - { offset: 0x17005B, size: 0x8, addend: 0x0, symName: __ZN5Eigen8internal15block_evaluatorIKNS_3MapINS_6MatrixIdLin1ELin1ELi0ELin1ELin1EEELi0ENS_11OuterStrideILin1EEEEELi1ELin1ELb0ELb1EED2Ev, symObjAddr: 0x38FBC, symBinAddr: 0x10003974C, symSize: 0x20 }
  - { offset: 0x17009F, size: 0x8, addend: 0x0, symName: __ZN5Eigen8internal17mapbase_evaluatorINS_5BlockIKNS_3MapINS_6MatrixIdLin1ELin1ELi0ELin1ELin1EEELi0ENS_11OuterStrideILin1EEEEELi1ELin1ELb0EEENS4_IdLi1ELin1ELi1ELi1ELin1EEEED2Ev, symObjAddr: 0x38F9C, symBinAddr: 0x10003972C, symSize: 0x20 }
  - { offset: 0x1700C5, size: 0x8, addend: 0x0, symName: __ZNK5Eigen9EigenBaseINS_13CwiseBinaryOpINS_8internal22scalar_conj_product_opIddEEKNS_9TransposeIKNS_5BlockIKNS_3MapINS_6MatrixIdLin1ELin1ELi0ELin1ELin1EEELi0ENS_11OuterStrideILin1EEEEELi1ELin1ELb0EEEEEKNS6_IKNS6_INS8_IdLin1ELi1ELi0ELin1ELi1EEELin1ELi1ELb0EEELin1ELi1ELb1EEEEEE7derivedEv, symObjAddr: 0x38F88, symBinAddr: 0x100039718, symSize: 0x14 }
  - { offset: 0x1700EF, size: 0x8, addend: 0x0, symName: __ZNK5Eigen9EigenBaseINS_13CwiseBinaryOpINS_8internal22scalar_conj_product_opIddEEKNS_9TransposeIKNS_5BlockIKNS_3MapINS_6MatrixIdLin1ELin1ELi0ELin1ELin1EEELi0ENS_11OuterStrideILin1EEEEELi1ELin1ELb0EEEEEKNS6_IKNS6_INS8_IdLin1ELi1ELi0ELin1ELi1EEELin1ELi1ELb0EEELin1ELi1ELb1EEEEEE4sizeEv, symObjAddr: 0x38F54, symBinAddr: 0x1000396E4, symSize: 0x34 }
  - { offset: 0x170164, size: 0x8, addend: 0x0, symName: __ZN5Eigen13CwiseBinaryOpINS_8internal22scalar_conj_product_opIddEEKNS_9TransposeIKNS_5BlockIKNS_3MapINS_6MatrixIdLin1ELin1ELi0ELin1ELin1EEELi0ENS_11OuterStrideILin1EEEEELi1ELin1ELb0EEEEEKNS5_IKNS5_INS7_IdLin1ELi1ELi0ELin1ELi1EEELin1ELi1ELb0EEELin1ELi1ELb1EEEEC1ERSG_RSL_RKS3_, symObjAddr: 0x38E30, symBinAddr: 0x1000395C0, symSize: 0x124 }
  - { offset: 0x1701D8, size: 0x8, addend: 0x0, symName: __ZN5Eigen9TransposeIKNS_5BlockIKNS_3MapINS_6MatrixIdLin1ELin1ELi0ELin1ELin1EEELi0ENS_11OuterStrideILin1EEEEELi1ELin1ELb0EEEEC1ERKSB_, symObjAddr: 0x38E08, symBinAddr: 0x100039598, symSize: 0x28 }
  - { offset: 0x17022F, size: 0x8, addend: 0x0, symName: __ZN5Eigen17CwiseBinaryOpImplINS_8internal22scalar_conj_product_opIddEEKNS_9TransposeIKNS_5BlockIKNS_3MapINS_6MatrixIdLin1ELin1ELi0ELin1ELin1EEELi0ENS_11OuterStrideILin1EEEEELi1ELin1ELb0EEEEEKNS5_IKNS5_INS7_IdLin1ELi1ELi0ELin1ELi1EEELin1ELi1ELb0EEELin1ELi1ELb1EEENS_5DenseEEC2Ev, symObjAddr: 0x38DE8, symBinAddr: 0x100039578, symSize: 0x20 }
  - { offset: 0x17026F, size: 0x8, addend: 0x0, symName: __ZN5Eigen10MatrixBaseINS_13CwiseBinaryOpINS_8internal22scalar_conj_product_opIddEEKNS_9TransposeIKNS_5BlockIKNS_3MapINS_6MatrixIdLin1ELin1ELi0ELin1ELin1EEELi0ENS_11OuterStrideILin1EEEEELi1ELin1ELb0EEEEEKNS6_IKNS6_INS8_IdLin1ELi1ELi0ELin1ELi1EEELin1ELi1ELb0EEELin1ELi1ELb1EEEEEEC2Ev, symObjAddr: 0x38DC8, symBinAddr: 0x100039558, symSize: 0x20 }
  - { offset: 0x170295, size: 0x8, addend: 0x0, symName: __ZNK5Eigen9EigenBaseINS_9TransposeIKNS_5BlockIKNS_3MapINS_6MatrixIdLin1ELin1ELi0ELin1ELin1EEELi0ENS_11OuterStrideILin1EEEEELi1ELin1ELb0EEEEEE7derivedEv, symObjAddr: 0x38DB4, symBinAddr: 0x100039544, symSize: 0x14 }
  - { offset: 0x1702E6, size: 0x8, addend: 0x0, symName: __ZN5Eigen9TransposeIKNS_5BlockIKNS_3MapINS_6MatrixIdLin1ELin1ELi0ELin1ELin1EEELi0ENS_11OuterStrideILin1EEEEELi1ELin1ELb0EEEEC1ERSA_, symObjAddr: 0x38D84, symBinAddr: 0x100039514, symSize: 0x30 }
  - { offset: 0x170334, size: 0x8, addend: 0x0, symName: __ZN5Eigen5BlockIKNS_3MapINS_6MatrixIdLin1ELin1ELi0ELin1ELin1EEELi0ENS_11OuterStrideILin1EEEEELi1ELin1ELb0EEC1ERKS8_, symObjAddr: 0x38D5C, symBinAddr: 0x1000394EC, symSize: 0x28 }
  - { offset: 0x170382, size: 0x8, addend: 0x0, symName: __ZN5Eigen9BlockImplIKNS_3MapINS_6MatrixIdLin1ELin1ELi0ELin1ELin1EEELi0ENS_11OuterStrideILin1EEEEELi1ELin1ELb0ENS_5DenseEEC2ERKS9_, symObjAddr: 0x38D34, symBinAddr: 0x1000394C4, symSize: 0x28 }
  - { offset: 0x1703D0, size: 0x8, addend: 0x0, symName: __ZN5Eigen8internal15BlockImpl_denseIKNS_3MapINS_6MatrixIdLin1ELin1ELi0ELin1ELin1EEELi0ENS_11OuterStrideILin1EEEEELi1ELin1ELb0ELb1EEC2ERKS9_, symObjAddr: 0x38CA4, symBinAddr: 0x100039434, symSize: 0x90 }
  - { offset: 0x170419, size: 0x8, addend: 0x0, symName: __ZN5Eigen13TransposeImplIKNS_5BlockIKNS_3MapINS_6MatrixIdLin1ELin1ELi0ELin1ELin1EEELi0ENS_11OuterStrideILin1EEEEELi1ELin1ELb0EEENS_5DenseEEC2Ev, symObjAddr: 0x38C84, symBinAddr: 0x100039414, symSize: 0x20 }
  - { offset: 0x170459, size: 0x8, addend: 0x0, symName: __ZN5Eigen10MatrixBaseINS_9TransposeIKNS_5BlockIKNS_3MapINS_6MatrixIdLin1ELin1ELi0ELin1ELin1EEELi0ENS_11OuterStrideILin1EEEEELi1ELin1ELb0EEEEEEC2Ev, symObjAddr: 0x38C64, symBinAddr: 0x1000393F4, symSize: 0x20 }
  - { offset: 0x17047F, size: 0x8, addend: 0x0, symName: __ZNK5Eigen7MapBaseINS_5BlockIKNS1_INS_6MatrixIdLin1ELi1ELi0ELin1ELi1EEELin1ELi1ELb0EEELin1ELi1ELb1EEELi0EE4colsEv, symObjAddr: 0x38C4C, symBinAddr: 0x1000393DC, symSize: 0x18 }
  - { offset: 0x1704A9, size: 0x8, addend: 0x0, symName: __ZNK5Eigen7MapBaseINS_5BlockIKNS1_INS_6MatrixIdLin1ELi1ELi0ELin1ELi1EEELin1ELi1ELb0EEELin1ELi1ELb1EEELi0EE4rowsEv, symObjAddr: 0x38C2C, symBinAddr: 0x1000393BC, symSize: 0x20 }
  - { offset: 0x1704D3, size: 0x8, addend: 0x0, symName: __ZNK5Eigen9EigenBaseINS_5BlockIKNS1_INS_6MatrixIdLin1ELi1ELi0ELin1ELi1EEELin1ELi1ELb0EEELin1ELi1ELb1EEEE7derivedEv, symObjAddr: 0x38C18, symBinAddr: 0x1000393A8, symSize: 0x14 }
  - { offset: 0x1704FD, size: 0x8, addend: 0x0, symName: __ZNK5Eigen7MapBaseINS_5BlockIKNS_3MapINS_6MatrixIdLin1ELin1ELi0ELin1ELin1EEELi0ENS_11OuterStrideILin1EEEEELi1ELin1ELb0EEELi0EE4colsEv, symObjAddr: 0x38BF8, symBinAddr: 0x100039388, symSize: 0x20 }
  - { offset: 0x170527, size: 0x8, addend: 0x0, symName: __ZNK5Eigen7MapBaseINS_5BlockIKNS_3MapINS_6MatrixIdLin1ELin1ELi0ELin1ELin1EEELi0ENS_11OuterStrideILin1EEEEELi1ELin1ELb0EEELi0EE4rowsEv, symObjAddr: 0x38BE0, symBinAddr: 0x100039370, symSize: 0x18 }
  - { offset: 0x170587, size: 0x8, addend: 0x0, symName: __ZN5Eigen8internal15BlockImpl_denseIKNS_5BlockINS_6MatrixIdLin1ELi1ELi0ELin1ELi1EEELin1ELi1ELb0EEELin1ELi1ELb1ELb1EEC2ERS6_l, symObjAddr: 0x38B1C, symBinAddr: 0x1000392AC, symSize: 0xC4 }
  - { offset: 0x1705F5, size: 0x8, addend: 0x0, symName: __ZN5Eigen8internal15BlockImpl_denseIKNS_3MapINS_6MatrixIdLin1ELin1ELi0ELin1ELin1EEELi0ENS_11OuterStrideILin1EEEEELi1ELin1ELb0ELb1EEC2ERS8_l, symObjAddr: 0x38A74, symBinAddr: 0x100039204, symSize: 0xA8 }
  - { offset: 0x17062D, size: 0x8, addend: 0x0, symName: __ZN5Eigen10MatrixBaseINS_5BlockINS_6MatrixIdLin1ELi1ELi0ELin1ELi1EEELin1ELi1ELb0EEEEaSINS_3MapIS3_Li16ENS_6StrideILi0ELi0EEEEEEERS4_RKNS_9DenseBaseIT_EE, symObjAddr: 0x38A2C, symBinAddr: 0x1000391BC, symSize: 0x48 }
  - { offset: 0x17066C, size: 0x8, addend: 0x0, symName: __ZN5Eigen8internal23triangular_solve_vectorIddlLi1ELi5ELb0ELi0EE3runElPKdlPd, symObjAddr: 0x386C4, symBinAddr: 0x100038E54, symSize: 0x368 }
  - { offset: 0x170707, size: 0x8, addend: 0x0, symName: __ZZN5Eigen8internal23triangular_solve_vectorIddlLi1ELi5ELb0ELi0EE3runElPKdlPdE10PanelWidth, symObjAddr: 0x57C58, symBinAddr: 0x100062EE8, symSize: 0x0 }
  - { offset: 0x17091D, size: 0x8, addend: 0x0, symName: __ZN5Eigen10MatrixBaseINS_3MapINS_6MatrixIdLin1ELi1ELi0ELin1ELi1EEELi16ENS_6StrideILi0ELi0EEEEEEaSINS_5BlockIS3_Lin1ELi1ELb0EEEEERS6_RKNS_9DenseBaseIT_EE, symObjAddr: 0x3867C, symBinAddr: 0x100038E0C, symSize: 0x48 }
  - { offset: 0x170960, size: 0x8, addend: 0x0, symName: __ZN5Eigen7MapBaseINS_5BlockINS_6MatrixIdLin1ELi1ELi0ELin1ELi1EEELin1ELi1ELb0EEELi1EEaSERKS5_, symObjAddr: 0x38650, symBinAddr: 0x100038DE0, symSize: 0x2C }
  - { offset: 0x17099B, size: 0x8, addend: 0x0, symName: __ZN5Eigen8internal31generic_dense_assignment_kernelINS0_9evaluatorINS_5BlockINS_6MatrixIdLin1ELi1ELi0ELin1ELi1EEELin1ELi1ELb0EEEEENS2_INS_14CwiseNullaryOpINS0_18scalar_constant_opIdEES5_EEEENS0_9assign_opIddEELi0EE12assignPacketILi16ELi0E13__Float64x2_tEEvl, symObjAddr: 0x385E4, symBinAddr: 0x100038D74, symSize: 0x6C }
  - { offset: 0x1709EF, size: 0x8, addend: 0x0, symName: __ZN5Eigen8internal31unaligned_dense_assignment_loopILb0EE3runINS0_31generic_dense_assignment_kernelINS0_9evaluatorINS_5BlockINS_6MatrixIdLin1ELi1ELi0ELin1ELi1EEELin1ELi1ELb0EEEEENS5_INS_14CwiseNullaryOpINS0_18scalar_constant_opIdEES8_EEEENS0_9assign_opIddEELi0EEEEEvRT_ll, symObjAddr: 0x3858C, symBinAddr: 0x100038D1C, symSize: 0x58 }
  - { offset: 0x170A6C, size: 0x8, addend: 0x0, symName: __ZNK5Eigen8internal31generic_dense_assignment_kernelINS0_9evaluatorINS_5BlockINS_6MatrixIdLin1ELi1ELi0ELin1ELi1EEELin1ELi1ELb0EEEEENS2_INS_14CwiseNullaryOpINS0_18scalar_constant_opIdEES5_EEEENS0_9assign_opIddEELi0EE10dstDataPtrEv, symObjAddr: 0x3856C, symBinAddr: 0x100038CFC, symSize: 0x20 }
  - { offset: 0x170AB0, size: 0x8, addend: 0x0, symName: __ZN5Eigen8internal14evaluator_baseINS_14CwiseNullaryOpINS0_18scalar_constant_opIdEENS_6MatrixIdLin1ELi1ELi0ELin1ELi1EEEEEEC2Ev, symObjAddr: 0x38558, symBinAddr: 0x100038CE8, symSize: 0x14 }
  - { offset: 0x170AD2, size: 0x8, addend: 0x0, symName: __ZN5Eigen8internal26triangular_solver_selectorINS_3MapINS_6MatrixIdLin1ELin1ELi0ELin1ELin1EEELi0ENS_11OuterStrideILin1EEEEENS2_INS3_IdLin1ELi1ELi0ELin1ELi1EEELi0ENS_6StrideILi0ELi0EEEEELi1ELi5ELi0ELi1EE3runERKS7_RSB_, symObjAddr: 0x382E0, symBinAddr: 0x100038A70, symSize: 0x278 }
  - { offset: 0x170B7B, size: 0x8, addend: 0x0, symName: __ZNK5Eigen9EigenBaseINS_3MapINS_6MatrixIdLin1ELi1ELi0ELin1ELi1EEELi0ENS_6StrideILi0ELi0EEEEEE18const_cast_derivedEv, symObjAddr: 0x382CC, symBinAddr: 0x100038A5C, symSize: 0x14 }
  - { offset: 0x170BA5, size: 0x8, addend: 0x0, symName: __ZN5Eigen10MatrixBaseINS_3MapINS_6MatrixIdLin1ELi1ELi0ELin1ELi1EEELi0ENS_6StrideILi0ELi0EEEEEEaSERKS7_, symObjAddr: 0x38284, symBinAddr: 0x100038A14, symSize: 0x48 }
  - { offset: 0x170BDB, size: 0x8, addend: 0x0, symName: __ZN5Eigen8internal26triangular_solver_selectorINS_3MapINS_6MatrixIdLi3ELi3ELi0ELi3ELi3EEELi0ENS_11OuterStrideILin1EEEEENS2_INS3_IdLi3ELi1ELi0ELi3ELi1EEELi0ENS_6StrideILi0ELi0EEEEELi1ELi5ELi2ELi1EE3runERKS7_RSB_, symObjAddr: 0x3825C, symBinAddr: 0x1000389EC, symSize: 0x28 }
  - { offset: 0x170C18, size: 0x8, addend: 0x0, symName: __ZNK5Eigen14TriangularViewINS_3MapINS_6MatrixIdLi3ELi3ELi0ELi3ELi3EEELi0ENS_11OuterStrideILin1EEEEELj5EE16nestedExpressionEv, symObjAddr: 0x38248, symBinAddr: 0x1000389D8, symSize: 0x14 }
  - { offset: 0x170C42, size: 0x8, addend: 0x0, symName: __ZNK5Eigen14TriangularViewINS_3MapINS_6MatrixIdLi3ELi3ELi0ELi3ELi3EEELi0ENS_11OuterStrideILin1EEEEELj5EE4rowsEv, symObjAddr: 0x3822C, symBinAddr: 0x1000389BC, symSize: 0x1C }
  - { offset: 0x170C6C, size: 0x8, addend: 0x0, symName: __ZNK5Eigen14TriangularBaseINS_14TriangularViewINS_3MapINS_6MatrixIdLi3ELi3ELi0ELi3ELi3EEELi0ENS_11OuterStrideILin1EEEEELj5EEEE7derivedEv, symObjAddr: 0x38218, symBinAddr: 0x1000389A8, symSize: 0x14 }
  - { offset: 0x170C96, size: 0x8, addend: 0x0, symName: __ZNK5Eigen9EigenBaseINS_3MapINS_6MatrixIdLi3ELi1ELi0ELi3ELi1EEELi0ENS_6StrideILi0ELi0EEEEEE18const_cast_derivedEv, symObjAddr: 0x38204, symBinAddr: 0x100038994, symSize: 0x14 }
  - { offset: 0x170CC0, size: 0x8, addend: 0x0, symName: __ZN5Eigen10MatrixBaseINS_3MapINS_6MatrixIdLi3ELi1ELi0ELi3ELi1EEELi0ENS_6StrideILi0ELi0EEEEEEaSERKS7_, symObjAddr: 0x381BC, symBinAddr: 0x10003894C, symSize: 0x48 }
  - { offset: 0x170CF6, size: 0x8, addend: 0x0, symName: __ZN5Eigen8internal21dense_assignment_loopINS0_31generic_dense_assignment_kernelINS0_9evaluatorINS_3MapINS_6MatrixIdLin1ELi1ELi0ELin1ELi1EEELi0ENS_11OuterStrideILin1EEEEEEENS3_INS_14CwiseNullaryOpINS0_18scalar_constant_opIdEES6_EEEENS0_9assign_opIddEELi0EEELi3ELi0EE3runERSI_, symObjAddr: 0x38108, symBinAddr: 0x100038898, symSize: 0xB4 }
  - { offset: 0x170DA4, size: 0x8, addend: 0x0, symName: __ZNK5Eigen8internal31generic_dense_assignment_kernelINS0_9evaluatorINS_3MapINS_6MatrixIdLin1ELi1ELi0ELin1ELi1EEELi0ENS_11OuterStrideILin1EEEEEEENS2_INS_14CwiseNullaryOpINS0_18scalar_constant_opIdEES5_EEEENS0_9assign_opIddEELi0EE4sizeEv, symObjAddr: 0x380E8, symBinAddr: 0x100038878, symSize: 0x20 }
  - { offset: 0x170E20, size: 0x8, addend: 0x0, symName: __ZN5Eigen8internal31generic_dense_assignment_kernelINS0_9evaluatorINS_3MapINS_6MatrixIdLin1ELi1ELi0ELin1ELi1EEELi0ENS_11OuterStrideILin1EEEEEEENS2_INS_14CwiseNullaryOpINS0_18scalar_constant_opIdEES5_EEEENS0_9assign_opIddEELi0EEC1ERS9_RKSE_RKSG_RS8_, symObjAddr: 0x38094, symBinAddr: 0x100038824, symSize: 0x54 }
  - { offset: 0x170E6A, size: 0x8, addend: 0x0, symName: __ZNK5Eigen9EigenBaseINS_3MapINS_6MatrixIdLin1ELi1ELi0ELin1ELi1EEELi0ENS_11OuterStrideILin1EEEEEE18const_cast_derivedEv, symObjAddr: 0x38080, symBinAddr: 0x100038810, symSize: 0x14 }
  - { offset: 0x170E90, size: 0x8, addend: 0x0, symName: __ZN5Eigen8internal17resize_if_allowedINS_3MapINS_6MatrixIdLin1ELi1ELi0ELin1ELi1EEELi0ENS_11OuterStrideILin1EEEEENS_14CwiseNullaryOpINS0_18scalar_constant_opIdEES4_EEddEEvRT_RKT0_RKNS0_9assign_opIT1_T2_EE, symObjAddr: 0x37F68, symBinAddr: 0x1000386F8, symSize: 0x118 }
  - { offset: 0x170F24, size: 0x8, addend: 0x0, symName: __ZN5Eigen8internal26triangular_solver_selectorINS_3MapINS_6MatrixIdLi2ELi2ELi0ELi2ELi2EEELi0ENS_11OuterStrideILin1EEEEENS2_INS3_IdLi2ELi1ELi0ELi2ELi1EEELi0ENS_6StrideILi0ELi0EEEEELi1ELi5ELi2ELi1EE3runERKS7_RSB_, symObjAddr: 0x37F40, symBinAddr: 0x1000386D0, symSize: 0x28 }
  - { offset: 0x170F61, size: 0x8, addend: 0x0, symName: __ZNK5Eigen14TriangularViewINS_3MapINS_6MatrixIdLi2ELi2ELi0ELi2ELi2EEELi0ENS_11OuterStrideILin1EEEEELj5EE16nestedExpressionEv, symObjAddr: 0x37F2C, symBinAddr: 0x1000386BC, symSize: 0x14 }
  - { offset: 0x170F8B, size: 0x8, addend: 0x0, symName: __ZNK5Eigen14TriangularViewINS_3MapINS_6MatrixIdLi2ELi2ELi0ELi2ELi2EEELi0ENS_11OuterStrideILin1EEEEELj5EE4rowsEv, symObjAddr: 0x37F10, symBinAddr: 0x1000386A0, symSize: 0x1C }
  - { offset: 0x170FB5, size: 0x8, addend: 0x0, symName: __ZNK5Eigen14TriangularBaseINS_14TriangularViewINS_3MapINS_6MatrixIdLi2ELi2ELi0ELi2ELi2EEELi0ENS_11OuterStrideILin1EEEEELj5EEEE7derivedEv, symObjAddr: 0x37EFC, symBinAddr: 0x10003868C, symSize: 0x14 }
  - { offset: 0x170FDF, size: 0x8, addend: 0x0, symName: __ZNK5Eigen9EigenBaseINS_3MapINS_6MatrixIdLi2ELi1ELi0ELi2ELi1EEELi0ENS_6StrideILi0ELi0EEEEEE18const_cast_derivedEv, symObjAddr: 0x37EE8, symBinAddr: 0x100038678, symSize: 0x14 }
  - { offset: 0x171009, size: 0x8, addend: 0x0, symName: __ZN5Eigen10MatrixBaseINS_3MapINS_6MatrixIdLi2ELi1ELi0ELi2ELi1EEELi0ENS_6StrideILi0ELi0EEEEEEaSERKS7_, symObjAddr: 0x37EA0, symBinAddr: 0x100038630, symSize: 0x48 }
  - { offset: 0x171043, size: 0x8, addend: 0x0, symName: __ZNK5Eigen8internal16binary_evaluatorINS_13CwiseBinaryOpINS0_13scalar_sum_opIddEEKNS2_IS4_KNS2_INS0_17scalar_product_opIddEEKNS_14CwiseNullaryOpINS0_18scalar_constant_opIdEEKNS_6MatrixIdLin1ELi1ELi0ELin1ELi1EEEEEKNS_3MapISC_Li16ENS_6StrideILi0ELi0EEEEEEESL_EESL_EENS0_10IndexBasedESP_ddE5coeffEl, symObjAddr: 0x37E24, symBinAddr: 0x1000385B4, symSize: 0x7C }
  - { offset: 0x17107E, size: 0x8, addend: 0x0, symName: __ZNK5Eigen8internal16binary_evaluatorINS_13CwiseBinaryOpINS0_13scalar_sum_opIddEEKNS2_IS4_KNS2_INS0_17scalar_product_opIddEEKNS_14CwiseNullaryOpINS0_18scalar_constant_opIdEEKNS_6MatrixIdLin1ELi1ELi0ELin1ELi1EEEEEKNS_3MapISC_Li16ENS_6StrideILi0ELi0EEEEEEESL_EESL_EENS0_10IndexBasedESP_ddE4Data4funcEv, symObjAddr: 0x37E10, symBinAddr: 0x1000385A0, symSize: 0x14 }
  - { offset: 0x1710CF, size: 0x8, addend: 0x0, symName: __ZN5Eigen8internal9evaluatorIKNS_13CwiseBinaryOpINS0_13scalar_sum_opIddEEKNS2_INS0_17scalar_product_opIddEEKNS_14CwiseNullaryOpINS0_18scalar_constant_opIdEEKNS_6MatrixIdLin1ELi1ELi0ELin1ELi1EEEEEKNS_3MapISC_Li16ENS_6StrideILi0ELi0EEEEEEESL_EEEC1ERSN_, symObjAddr: 0x37DE8, symBinAddr: 0x100038578, symSize: 0x28 }
  - { offset: 0x1710FE, size: 0x8, addend: 0x0, symName: __ZNK5Eigen13CwiseBinaryOpINS_8internal13scalar_sum_opIddEEKNS0_IS3_KNS0_INS1_17scalar_product_opIddEEKNS_14CwiseNullaryOpINS1_18scalar_constant_opIdEEKNS_6MatrixIdLin1ELi1ELi0ELin1ELi1EEEEEKNS_3MapISB_Li16ENS_6StrideILi0ELi0EEEEEEESK_EESK_E3rhsEv, symObjAddr: 0x37DD0, symBinAddr: 0x100038560, symSize: 0x18 }
  - { offset: 0x171128, size: 0x8, addend: 0x0, symName: __ZNK5Eigen13CwiseBinaryOpINS_8internal13scalar_sum_opIddEEKNS0_IS3_KNS0_INS1_17scalar_product_opIddEEKNS_14CwiseNullaryOpINS1_18scalar_constant_opIdEEKNS_6MatrixIdLin1ELi1ELi0ELin1ELi1EEEEEKNS_3MapISB_Li16ENS_6StrideILi0ELi0EEEEEEESK_EESK_E3lhsEv, symObjAddr: 0x37DB8, symBinAddr: 0x100038548, symSize: 0x18 }
  - { offset: 0x171152, size: 0x8, addend: 0x0, symName: __ZNK5Eigen13CwiseBinaryOpINS_8internal13scalar_sum_opIddEEKNS0_IS3_KNS0_INS1_17scalar_product_opIddEEKNS_14CwiseNullaryOpINS1_18scalar_constant_opIdEEKNS_6MatrixIdLin1ELi1ELi0ELin1ELi1EEEEEKNS_3MapISB_Li16ENS_6StrideILi0ELi0EEEEEEESK_EESK_E7functorEv, symObjAddr: 0x37DA0, symBinAddr: 0x100038530, symSize: 0x18 }
  - { offset: 0x17117C, size: 0x8, addend: 0x0, symName: __ZNK5Eigen8internal16binary_evaluatorINS_13CwiseBinaryOpINS0_13scalar_sum_opIddEEKNS2_INS0_17scalar_product_opIddEEKNS_14CwiseNullaryOpINS0_18scalar_constant_opIdEEKNS_6MatrixIdLin1ELi1ELi0ELin1ELi1EEEEEKNS_3MapISC_Li16ENS_6StrideILi0ELi0EEEEEEESL_EENS0_10IndexBasedESN_ddE5coeffEl, symObjAddr: 0x37D24, symBinAddr: 0x1000384B4, symSize: 0x7C }
  - { offset: 0x1711B7, size: 0x8, addend: 0x0, symName: __ZNK5Eigen8internal13scalar_sum_opIddE8packetOpI13__Float64x2_tEET_RKS5_S7_, symObjAddr: 0x37CF4, symBinAddr: 0x100038484, symSize: 0x30 }
  - { offset: 0x17120A, size: 0x8, addend: 0x0, symName: __ZNK5Eigen8internal16binary_evaluatorINS_13CwiseBinaryOpINS0_13scalar_sum_opIddEEKNS2_INS0_17scalar_product_opIddEEKNS_14CwiseNullaryOpINS0_18scalar_constant_opIdEEKNS_6MatrixIdLin1ELi1ELi0ELin1ELi1EEEEEKNS_3MapISC_Li16ENS_6StrideILi0ELi0EEEEEEESL_EENS0_10IndexBasedESN_ddE4Data4funcEv, symObjAddr: 0x37CE0, symBinAddr: 0x100038470, symSize: 0x14 }
  - { offset: 0x17125B, size: 0x8, addend: 0x0, symName: __ZN5Eigen8internal9evaluatorIKNS_13CwiseBinaryOpINS0_17scalar_product_opIddEEKNS_14CwiseNullaryOpINS0_18scalar_constant_opIdEEKNS_6MatrixIdLin1ELi1ELi0ELin1ELi1EEEEEKNS_3MapISA_Li16ENS_6StrideILi0ELi0EEEEEEEEC1ERSJ_, symObjAddr: 0x37CB8, symBinAddr: 0x100038448, symSize: 0x28 }
  - { offset: 0x17128A, size: 0x8, addend: 0x0, symName: __ZNK5Eigen13CwiseBinaryOpINS_8internal13scalar_sum_opIddEEKNS0_INS1_17scalar_product_opIddEEKNS_14CwiseNullaryOpINS1_18scalar_constant_opIdEEKNS_6MatrixIdLin1ELi1ELi0ELin1ELi1EEEEEKNS_3MapISB_Li16ENS_6StrideILi0ELi0EEEEEEESK_E3rhsEv, symObjAddr: 0x37CA0, symBinAddr: 0x100038430, symSize: 0x18 }
  - { offset: 0x1712B4, size: 0x8, addend: 0x0, symName: __ZNK5Eigen13CwiseBinaryOpINS_8internal13scalar_sum_opIddEEKNS0_INS1_17scalar_product_opIddEEKNS_14CwiseNullaryOpINS1_18scalar_constant_opIdEEKNS_6MatrixIdLin1ELi1ELi0ELin1ELi1EEEEEKNS_3MapISB_Li16ENS_6StrideILi0ELi0EEEEEEESK_E3lhsEv, symObjAddr: 0x37C88, symBinAddr: 0x100038418, symSize: 0x18 }
  - { offset: 0x1712DE, size: 0x8, addend: 0x0, symName: __ZNK5Eigen13CwiseBinaryOpINS_8internal13scalar_sum_opIddEEKNS0_INS1_17scalar_product_opIddEEKNS_14CwiseNullaryOpINS1_18scalar_constant_opIdEEKNS_6MatrixIdLin1ELi1ELi0ELin1ELi1EEEEEKNS_3MapISB_Li16ENS_6StrideILi0ELi0EEEEEEESK_E7functorEv, symObjAddr: 0x37C70, symBinAddr: 0x100038400, symSize: 0x18 }
  - { offset: 0x171308, size: 0x8, addend: 0x0, symName: __ZNK5Eigen8internal16binary_evaluatorINS_13CwiseBinaryOpINS0_17scalar_product_opIddEEKNS_14CwiseNullaryOpINS0_18scalar_constant_opIdEEKNS_6MatrixIdLin1ELi1ELi0ELin1ELi1EEEEEKNS_3MapISA_Li16ENS_6StrideILi0ELi0EEEEEEENS0_10IndexBasedESJ_ddE5coeffEl, symObjAddr: 0x37BF4, symBinAddr: 0x100038384, symSize: 0x7C }
  - { offset: 0x171343, size: 0x8, addend: 0x0, symName: __ZNK5Eigen8internal17scalar_product_opIddE8packetOpI13__Float64x2_tEET_RKS5_S7_, symObjAddr: 0x37BC4, symBinAddr: 0x100038354, symSize: 0x30 }
  - { offset: 0x171396, size: 0x8, addend: 0x0, symName: __ZNK5Eigen8internal17mapbase_evaluatorINS_3MapIKNS_6MatrixIdLin1ELi1ELi0ELin1ELi1EEELi16ENS_6StrideILi0ELi0EEEEES5_E6packetILi16E13__Float64x2_tEET0_l, symObjAddr: 0x37B6C, symBinAddr: 0x1000382FC, symSize: 0x58 }
  - { offset: 0x171408, size: 0x8, addend: 0x0, symName: __ZNK5Eigen8internal9evaluatorINS_14CwiseNullaryOpINS0_18scalar_constant_opIdEEKNS_6MatrixIdLin1ELi1ELi0ELin1ELi1EEEEEE6packetILi16E13__Float64x2_tlEET0_T1_, symObjAddr: 0x37B34, symBinAddr: 0x1000382C4, symSize: 0x38 }
  - { offset: 0x17145F, size: 0x8, addend: 0x0, symName: __ZNK5Eigen8internal16binary_evaluatorINS_13CwiseBinaryOpINS0_17scalar_product_opIddEEKNS_14CwiseNullaryOpINS0_18scalar_constant_opIdEEKNS_6MatrixIdLin1ELi1ELi0ELin1ELi1EEEEEKNS_3MapISA_Li16ENS_6StrideILi0ELi0EEEEEEENS0_10IndexBasedESJ_ddE4Data4funcEv, symObjAddr: 0x37B20, symBinAddr: 0x1000382B0, symSize: 0x14 }
  - { offset: 0x171489, size: 0x8, addend: 0x0, symName: __ZNK5Eigen9EigenBaseINS_3MapINS_6MatrixIdLin1ELi1ELi0ELin1ELi1EEELi16ENS_6StrideILi0ELi0EEEEEE7derivedEv, symObjAddr: 0x37B0C, symBinAddr: 0x10003829C, symSize: 0x14 }
  - { offset: 0x1714DA, size: 0x8, addend: 0x0, symName: __ZN5Eigen8internal9evaluatorIKNS_3MapIKNS_6MatrixIdLin1ELi1ELi0ELin1ELi1EEELi16ENS_6StrideILi0ELi0EEEEEEC1ERS9_, symObjAddr: 0x37AE4, symBinAddr: 0x100038274, symSize: 0x28 }
  - { offset: 0x171530, size: 0x8, addend: 0x0, symName: __ZN5Eigen8internal9evaluatorIKNS_14CwiseNullaryOpINS0_18scalar_constant_opIdEEKNS_6MatrixIdLin1ELi1ELi0ELin1ELi1EEEEEEC1ERS9_, symObjAddr: 0x37ABC, symBinAddr: 0x10003824C, symSize: 0x28 }
  - { offset: 0x17155F, size: 0x8, addend: 0x0, symName: __ZNK5Eigen13CwiseBinaryOpINS_8internal17scalar_product_opIddEEKNS_14CwiseNullaryOpINS1_18scalar_constant_opIdEEKNS_6MatrixIdLin1ELi1ELi0ELin1ELi1EEEEEKNS_3MapIS9_Li16ENS_6StrideILi0ELi0EEEEEE3rhsEv, symObjAddr: 0x37AA4, symBinAddr: 0x100038234, symSize: 0x18 }
  - { offset: 0x171589, size: 0x8, addend: 0x0, symName: __ZNK5Eigen13CwiseBinaryOpINS_8internal17scalar_product_opIddEEKNS_14CwiseNullaryOpINS1_18scalar_constant_opIdEEKNS_6MatrixIdLin1ELi1ELi0ELin1ELi1EEEEEKNS_3MapIS9_Li16ENS_6StrideILi0ELi0EEEEEE3lhsEv, symObjAddr: 0x37A8C, symBinAddr: 0x10003821C, symSize: 0x18 }
  - { offset: 0x1715B3, size: 0x8, addend: 0x0, symName: __ZNK5Eigen13CwiseBinaryOpINS_8internal17scalar_product_opIddEEKNS_14CwiseNullaryOpINS1_18scalar_constant_opIdEEKNS_6MatrixIdLin1ELi1ELi0ELin1ELi1EEEEEKNS_3MapIS9_Li16ENS_6StrideILi0ELi0EEEEEE7functorEv, symObjAddr: 0x37A74, symBinAddr: 0x100038204, symSize: 0x18 }
  - { offset: 0x1715DD, size: 0x8, addend: 0x0, symName: __ZN5Eigen8internal31generic_dense_assignment_kernelINS0_9evaluatorINS_3MapINS_6MatrixIdLin1ELin1ELi0ELin1ELin1EEELi0ENS_11OuterStrideILin1EEEEEEENS2_INS_14CwiseNullaryOpINS0_18scalar_constant_opIdEES5_EEEENS0_9assign_opIddEELi0EE24assignPacketByOuterInnerILi16ELi0E13__Float64x2_tEEvll, symObjAddr: 0x37A24, symBinAddr: 0x1000381B4, symSize: 0x50 }
  - { offset: 0x171668, size: 0x8, addend: 0x0, symName: __ZN5Eigen8internal31generic_dense_assignment_kernelINS0_9evaluatorINS_3MapINS_6MatrixIdLin1ELin1ELi0ELin1ELin1EEELi0ENS_11OuterStrideILin1EEEEEEENS2_INS_14CwiseNullaryOpINS0_18scalar_constant_opIdEES5_EEEENS0_9assign_opIddEELi0EE23assignCoeffByOuterInnerEll, symObjAddr: 0x379D4, symBinAddr: 0x100038164, symSize: 0x50 }
  - { offset: 0x1716D6, size: 0x8, addend: 0x0, symName: __ZNK5Eigen9DenseBaseINS_3MapINS_6MatrixIdLin1ELin1ELi0ELin1ELin1EEELi0ENS_11OuterStrideILin1EEEEEE9outerSizeEv, symObjAddr: 0x379B8, symBinAddr: 0x100038148, symSize: 0x1C }
  - { offset: 0x171700, size: 0x8, addend: 0x0, symName: __ZNK5Eigen9DenseBaseINS_3MapINS_6MatrixIdLin1ELin1ELi0ELin1ELin1EEELi0ENS_11OuterStrideILin1EEEEEE9innerSizeEv, symObjAddr: 0x3799C, symBinAddr: 0x10003812C, symSize: 0x1C }
  - { offset: 0x171726, size: 0x8, addend: 0x0, symName: __ZN5Eigen8internal21dense_assignment_loopINS0_31generic_dense_assignment_kernelINS0_9evaluatorINS_3MapINS_6MatrixIdLin1ELin1ELi0ELin1ELin1EEELi0ENS_11OuterStrideILin1EEEEEEENS3_INS_14CwiseNullaryOpINS0_18scalar_constant_opIdEES6_EEEENS0_9assign_opIddEELi0EEELi0ELi0EE3runERSI_, symObjAddr: 0x378F8, symBinAddr: 0x100038088, symSize: 0xA4 }
  - { offset: 0x17179C, size: 0x8, addend: 0x0, symName: __ZNK5Eigen8internal31generic_dense_assignment_kernelINS0_9evaluatorINS_3MapINS_6MatrixIdLin1ELin1ELi0ELin1ELin1EEELi0ENS_11OuterStrideILin1EEEEEEENS2_INS_14CwiseNullaryOpINS0_18scalar_constant_opIdEES5_EEEENS0_9assign_opIddEELi0EE10dstDataPtrEv, symObjAddr: 0x378D8, symBinAddr: 0x100038068, symSize: 0x20 }
  - { offset: 0x1717EE, size: 0x8, addend: 0x0, symName: __ZN5Eigen8internal17mapbase_evaluatorINS_3MapINS_6MatrixIdLin1ELin1ELi0ELin1ELin1EEELi0ENS_11OuterStrideILin1EEEEES4_EC2ERKS7_, symObjAddr: 0x3784C, symBinAddr: 0x100037FDC, symSize: 0x8C }
  - { offset: 0x17181D, size: 0x8, addend: 0x0, symName: __ZN5Eigen9DenseBaseINS_3MapINS_6MatrixIdLin1ELin1ELi0ELin1ELin1EEELi0ENS_11OuterStrideILin1EEEEEE6resizeEll, symObjAddr: 0x3778C, symBinAddr: 0x100037F1C, symSize: 0xC0 }
  - { offset: 0x17188D, size: 0x8, addend: 0x0, symName: __ZN5Eigen8internal14evaluator_baseINS_14CwiseNullaryOpINS0_18scalar_constant_opIdEENS_6MatrixIdLin1ELin1ELi0ELin1ELin1EEEEEEC2Ev, symObjAddr: 0x37778, symBinAddr: 0x100037F08, symSize: 0x14 }
  - { offset: 0x1718AF, size: 0x8, addend: 0x0, symName: __ZN5Eigen8internal23triangular_solve_matrixIdlLi1ELi5ELb0ELi0ELi0ELi1EE3runEllPKdlPdllRNS0_15level3_blockingIddEE, symObjAddr: 0x369D8, symBinAddr: 0x100037168, symSize: 0xDA0 }
  - { offset: 0x1724EC, size: 0x8, addend: 0x0, symName: __ZNK5Eigen7MapBaseINS_3MapINS_6MatrixIdLin1ELin1ELi0ELin1ELin1EEELi0ENS_11OuterStrideILin1EEEEELi0EE8coeffRefEll, symObjAddr: 0x36978, symBinAddr: 0x100037108, symSize: 0x60 }
  - { offset: 0x172550, size: 0x8, addend: 0x0, symName: __ZN5Eigen8internal19gemm_blocking_spaceILi0EddLin1ELin1ELin1ELi4ELb0EED1Ev, symObjAddr: 0x36928, symBinAddr: 0x1000370B8, symSize: 0x50 }
  - { offset: 0x1725E7, size: 0x8, addend: 0x0, symName: __ZN5Eigen8internal19gemm_blocking_spaceILi0EddLin1ELin1ELin1ELi4ELb0EEC1Ellllb, symObjAddr: 0x36824, symBinAddr: 0x100036FB4, symSize: 0x104 }
  - { offset: 0x172663, size: 0x8, addend: 0x0, symName: __ZN5Eigen8internal15call_assignmentINS_3MapINS_6MatrixIdLin1ELin1ELi0ELin1ELin1EEELi16ENS_11OuterStrideILin1EEEEES7_EEvRT_RKT0_, symObjAddr: 0x367E8, symBinAddr: 0x100036F78, symSize: 0x3C }
  - { offset: 0x1726F8, size: 0x8, addend: 0x0, symName: __ZNK5Eigen8internal9evaluatorINS_15PlainObjectBaseINS_6MatrixIiLin1ELi1ELi0ELin1ELi1EEEEEE6packetILi0E11__Int32x4_tEET0_l, symObjAddr: 0x367A4, symBinAddr: 0x100036F34, symSize: 0x44 }
  - { offset: 0x172768, size: 0x8, addend: 0x0, symName: __ZN5Eigen8internal31generic_dense_assignment_kernelINS0_9evaluatorINS_5BlockINS_6MatrixIiLin1ELi1ELi0ELin1ELi1EEELin1ELi1ELb0EEEEENS2_IS5_EENS0_9assign_opIiiEELi0EE11assignCoeffEl, symObjAddr: 0x36744, symBinAddr: 0x100036ED4, symSize: 0x60 }
  - { offset: 0x17279F, size: 0x8, addend: 0x0, symName: __ZN5Eigen8internal31unaligned_dense_assignment_loopILb0EE3runINS0_31generic_dense_assignment_kernelINS0_9evaluatorINS_6MatrixIiLin1ELi1ELi0ELin1ELi1EEEEENS5_INS_5BlockIS7_Lin1ELi1ELb0EEEEENS0_9assign_opIiiEELi0EEEEEvRT_ll, symObjAddr: 0x366EC, symBinAddr: 0x100036E7C, symSize: 0x58 }
  - { offset: 0x17281C, size: 0x8, addend: 0x0, symName: __ZN5Eigen8internal31generic_dense_assignment_kernelINS0_9evaluatorINS_6MatrixIiLin1ELi1ELi0ELin1ELi1EEEEENS2_INS_5BlockIS4_Lin1ELi1ELb0EEEEENS0_9assign_opIiiEELi0EE12assignPacketILi16ELi0E11__Int32x4_tEEvl, symObjAddr: 0x36680, symBinAddr: 0x100036E10, symSize: 0x6C }
  - { offset: 0x172870, size: 0x8, addend: 0x0, symName: __ZN5Eigen8internal31unaligned_dense_assignment_loopILb1EE3runINS0_31generic_dense_assignment_kernelINS0_9evaluatorINS_6MatrixIiLin1ELi1ELi0ELin1ELi1EEEEENS5_INS_5BlockIS7_Lin1ELi1ELb0EEEEENS0_9assign_opIiiEELi0EEEEEvRT_ll, symObjAddr: 0x36664, symBinAddr: 0x100036DF4, symSize: 0x1C }
  - { offset: 0x1728B1, size: 0x8, addend: 0x0, symName: __ZN5Eigen8internal31generic_dense_assignment_kernelINS0_9evaluatorINS_5BlockINS_6MatrixIdLin1ELi1ELi0ELin1ELi1EEELin1ELi1ELb0EEEEENS2_IS5_EENS0_9assign_opIddEELi0EE11assignCoeffEl, symObjAddr: 0x36604, symBinAddr: 0x100036D94, symSize: 0x60 }
  - { offset: 0x1728E8, size: 0x8, addend: 0x0, symName: __ZN5Eigen8internal31unaligned_dense_assignment_loopILb0EE3runINS0_31generic_dense_assignment_kernelINS0_9evaluatorINS_6MatrixIdLin1ELi1ELi0ELin1ELi1EEEEENS5_INS_5BlockIS7_Lin1ELi1ELb0EEEEENS0_9assign_opIddEELi0EEEEEvRT_ll, symObjAddr: 0x365AC, symBinAddr: 0x100036D3C, symSize: 0x58 }
  - { offset: 0x172965, size: 0x8, addend: 0x0, symName: __ZN5Eigen8internal31generic_dense_assignment_kernelINS0_9evaluatorINS_6MatrixIdLin1ELi1ELi0ELin1ELi1EEEEENS2_INS_5BlockIS4_Lin1ELi1ELb0EEEEENS0_9assign_opIddEELi0EE12assignPacketILi16ELi0E13__Float64x2_tEEvl, symObjAddr: 0x36540, symBinAddr: 0x100036CD0, symSize: 0x6C }
  - { offset: 0x1729B9, size: 0x8, addend: 0x0, symName: __ZN5Eigen8internal31unaligned_dense_assignment_loopILb1EE3runINS0_31generic_dense_assignment_kernelINS0_9evaluatorINS_6MatrixIdLin1ELi1ELi0ELin1ELi1EEEEENS5_INS_5BlockIS7_Lin1ELi1ELb0EEEEENS0_9assign_opIddEELi0EEEEEvRT_ll, symObjAddr: 0x36524, symBinAddr: 0x100036CB4, symSize: 0x1C }
  - { offset: 0x172A69, size: 0x8, addend: 0x0, symName: __ZNK5Eigen8internal9assign_opIiiE11assignCoeffERiRKi, symObjAddr: 0x364F8, symBinAddr: 0x100036C88, symSize: 0x2C }
  - { offset: 0x172ABE, size: 0x8, addend: 0x0, symName: __ZNK5Eigen8internal9evaluatorINS_14CwiseNullaryOpINS0_12linspaced_opIiEENS_6MatrixIiLin1ELi1ELi0ELin1ELi1EEEEEE5coeffIlEEiT_, symObjAddr: 0x364CC, symBinAddr: 0x100036C5C, symSize: 0x2C }
  - { offset: 0x172B02, size: 0x8, addend: 0x0, symName: __ZNK5Eigen8internal17mapbase_evaluatorINS_3MapINS_6MatrixIiLin1ELi1ELi0ELin1ELi1EEELi0ENS_6StrideILi0ELi0EEEEES4_E6packetILi0E11__Int32x4_tEET0_l, symObjAddr: 0x36474, symBinAddr: 0x100036C04, symSize: 0x58 }
  - { offset: 0x172B74, size: 0x8, addend: 0x0, symName: __ZN5Eigen8internal17mapbase_evaluatorINS_3MapINS_6MatrixIiLin1ELi1ELi0ELin1ELi1EEELi0ENS_6StrideILi0ELi0EEEEES4_E8coeffRefEl, symObjAddr: 0x36434, symBinAddr: 0x100036BC4, symSize: 0x40 }
  - { offset: 0x172BAF, size: 0x8, addend: 0x0, symName: __ZN5Eigen8internal31generic_dense_assignment_kernelINS0_9evaluatorINS_3MapINS_6MatrixIiLin1ELi1ELi0ELin1ELi1EEELi0ENS_6StrideILi0ELi0EEEEEEES9_NS0_9assign_opIiiEELi0EE11assignCoeffEl, symObjAddr: 0x363D4, symBinAddr: 0x100036B64, symSize: 0x60 }
  - { offset: 0x172BEA, size: 0x8, addend: 0x0, symName: __ZN5Eigen7MapBaseINS_3MapINS_6MatrixIiLin1ELi1ELi0ELin1ELi1EEELi0ENS_6StrideILi0ELi0EEEEELi1EE4dataEv, symObjAddr: 0x363BC, symBinAddr: 0x100036B4C, symSize: 0x18 }
  - { offset: 0x172C2E, size: 0x8, addend: 0x0, symName: __ZN5Eigen8internal14evaluator_baseINS_3MapINS_6MatrixIiLin1ELi1ELi0ELin1ELi1EEELi0ENS_6StrideILi0ELi0EEEEEEC2Ev, symObjAddr: 0x363A8, symBinAddr: 0x100036B38, symSize: 0x14 }
  - { offset: 0x172C54, size: 0x8, addend: 0x0, symName: __ZNK5Eigen3MapINS_6MatrixIiLin1ELi1ELi0ELin1ELi1EEELi0ENS_6StrideILi0ELi0EEEE11outerStrideEv, symObjAddr: 0x36374, symBinAddr: 0x100036B04, symSize: 0x34 }
  - { offset: 0x172C7E, size: 0x8, addend: 0x0, symName: __ZNK5Eigen3MapINS_6MatrixIiLin1ELi1ELi0ELin1ELi1EEELi0ENS_6StrideILi0ELi0EEEE11innerStrideEv, symObjAddr: 0x36360, symBinAddr: 0x100036AF0, symSize: 0x14 }
  - { offset: 0x172CA8, size: 0x8, addend: 0x0, symName: __ZNK5Eigen7MapBaseINS_3MapINS_6MatrixIiLin1ELi1ELi0ELin1ELi1EEELi0ENS_6StrideILi0ELi0EEEEELi1EE4dataEv, symObjAddr: 0x36348, symBinAddr: 0x100036AD8, symSize: 0x18 }
  - { offset: 0x172CD2, size: 0x8, addend: 0x0, symName: __ZN5Eigen8internal31generic_dense_assignment_kernelINS0_9evaluatorINS_3MapINS_6MatrixIiLin1ELi1ELi0ELin1ELi1EEELi0ENS_6StrideILi0ELi0EEEEEEENS2_INS_14CwiseNullaryOpINS0_18scalar_constant_opIiEES5_EEEENS0_9assign_opIiiEELi0EE12assignPacketILi16ELi0E11__Int32x4_tEEvl, symObjAddr: 0x362DC, symBinAddr: 0x100036A6C, symSize: 0x6C }
  - { offset: 0x172D26, size: 0x8, addend: 0x0, symName: __ZN5Eigen8internal31unaligned_dense_assignment_loopILb0EE3runINS0_31generic_dense_assignment_kernelINS0_9evaluatorINS_3MapINS_6MatrixIiLin1ELi1ELi0ELin1ELi1EEELi0ENS_6StrideILi0ELi0EEEEEEENS5_INS_14CwiseNullaryOpINS0_18scalar_constant_opIiEES8_EEEENS0_9assign_opIiiEELi0EEEEEvRT_ll, symObjAddr: 0x36284, symBinAddr: 0x100036A14, symSize: 0x58 }
  - { offset: 0x172DA3, size: 0x8, addend: 0x0, symName: __ZNK5Eigen8internal31generic_dense_assignment_kernelINS0_9evaluatorINS_3MapINS_6MatrixIiLin1ELi1ELi0ELin1ELi1EEELi0ENS_6StrideILi0ELi0EEEEEEENS2_INS_14CwiseNullaryOpINS0_18scalar_constant_opIiEES5_EEEENS0_9assign_opIiiEELi0EE10dstDataPtrEv, symObjAddr: 0x36264, symBinAddr: 0x1000369F4, symSize: 0x20 }
  - { offset: 0x172DE7, size: 0x8, addend: 0x0, symName: __ZN5Eigen8internal14evaluator_baseINS_14CwiseNullaryOpINS0_18scalar_constant_opIiEENS_6MatrixIiLin1ELi1ELi0ELin1ELi1EEEEEEC2Ev, symObjAddr: 0x36250, symBinAddr: 0x1000369E0, symSize: 0x14 }
  - { offset: 0x172E35, size: 0x8, addend: 0x0, symName: __ZN5Eigen8internal16binary_evaluatorINS_13CwiseBinaryOpINS0_20scalar_difference_opIddEEKNS_6MatrixIdLin1ELi1ELi0ELin1ELi1EEES7_EENS0_10IndexBasedES9_ddE4DataC1ERKS8_, symObjAddr: 0x361C4, symBinAddr: 0x100036954, symSize: 0x8C }
  - { offset: 0x172E7E, size: 0x8, addend: 0x0, symName: __ZN5Eigen8internal14evaluator_baseINS_13CwiseBinaryOpINS0_20scalar_difference_opIddEEKNS_6MatrixIdLin1ELi1ELi0ELin1ELi1EEES7_EEEC2Ev, symObjAddr: 0x361B0, symBinAddr: 0x100036940, symSize: 0x14 }
  - { offset: 0x172EC3, size: 0x8, addend: 0x0, symName: __ZNK5Eigen8internal16binary_evaluatorINS_13CwiseBinaryOpINS0_20scalar_difference_opIddEEKNS_12ArrayWrapperINS_6MatrixIdLin1ELi1ELi0ELin1ELi1EEEEEKNS_14CwiseNullaryOpINS0_18scalar_constant_opIdEEKNS_5ArrayIdLin1ELi1ELi0ELin1ELi1EEEEEEENS0_10IndexBasedESJ_ddE5coeffEl, symObjAddr: 0x3613C, symBinAddr: 0x1000368CC, symSize: 0x74 }
  - { offset: 0x172EFE, size: 0x8, addend: 0x0, symName: __ZNK5Eigen8internal15unary_evaluatorINS_12CwiseUnaryOpINS0_18scalar_opposite_opIdEEKNS_13CwiseBinaryOpINS0_20scalar_difference_opIddEEKNS_12ArrayWrapperINS_6MatrixIdLin1ELi1ELi0ELin1ELi1EEEEEKNS_14CwiseNullaryOpINS0_18scalar_constant_opIdEEKNS_5ArrayIdLin1ELi1ELi0ELin1ELi1EEEEEEEEENS0_10IndexBasedEdE5coeffEl, symObjAddr: 0x360E0, symBinAddr: 0x100036870, symSize: 0x5C }
  - { offset: 0x172F39, size: 0x8, addend: 0x0, symName: __ZNK5Eigen8internal16binary_evaluatorINS_13CwiseBinaryOpINS0_17scalar_product_opIddEEKNS_12CwiseUnaryOpINS0_18scalar_opposite_opIdEEKNS2_INS0_20scalar_difference_opIddEEKNS_12ArrayWrapperINS_6MatrixIdLin1ELi1ELi0ELin1ELi1EEEEEKNS_14CwiseNullaryOpINS0_18scalar_constant_opIdEEKNS_5ArrayIdLin1ELi1ELi0ELin1ELi1EEEEEEEEESO_EENS0_10IndexBasedESS_ddE4Data4funcEv, symObjAddr: 0x360CC, symBinAddr: 0x10003685C, symSize: 0x14 }
  - { offset: 0x172FAA, size: 0x8, addend: 0x0, symName: __ZN5Eigen8internal15unary_evaluatorINS_12CwiseUnaryOpINS0_13scalar_exp_opIdEEKNS_13CwiseBinaryOpINS0_17scalar_product_opIddEEKNS2_INS0_18scalar_opposite_opIdEEKNS5_INS0_20scalar_difference_opIddEEKNS_12ArrayWrapperINS_6MatrixIdLin1ELi1ELi0ELin1ELi1EEEEEKNS_14CwiseNullaryOpINS0_18scalar_constant_opIdEEKNS_5ArrayIdLin1ELi1ELi0ELin1ELi1EEEEEEEEESQ_EEEENS0_10IndexBasedEdEC2ERKSV_, symObjAddr: 0x36080, symBinAddr: 0x100036810, symSize: 0x4C }
  - { offset: 0x173001, size: 0x8, addend: 0x0, symName: __ZN5Eigen8internal15unary_evaluatorINS_12CwiseUnaryOpINS0_13scalar_sin_opIdEEKNS_12ArrayWrapperINS_6MatrixIdLin1ELi1ELi0ELin1ELi1EEEEEEENS0_10IndexBasedEdEC2ERKSA_, symObjAddr: 0x36034, symBinAddr: 0x1000367C4, symSize: 0x4C }
  - { offset: 0x17302C, size: 0x8, addend: 0x0, symName: __ZN5Eigen8internal10AssignmentINS_5BlockINS_6MatrixIdLin1ELi1ELi0ELin1ELi1EEELin1ELi1ELb1EEENS_7ProductINS_7InverseINS_17PermutationMatrixILin1ELin1EiEEEES5_Li2EEENS0_9assign_opIddEENS0_11Dense2DenseEvE3runERS5_RKSB_RKSD_, symObjAddr: 0x35F78, symBinAddr: 0x100036708, symSize: 0xBC }
  - { offset: 0x17308E, size: 0x8, addend: 0x0, symName: __ZN5Eigen8internal24call_assignment_no_aliasINS_3MapINS_6MatrixIdLin1ELi1ELi0ELin1ELi1EEELi0ENS_11OuterStrideILin1EEEEENS_5SolveINS_14TriangularViewINS2_IKNS3_IdLin1ELin1ELi0ELin1ELin1EEELi0ES6_EELj2EEES7_EENS0_9assign_opIddEEEEvRT_RKT0_RKT1_, symObjAddr: 0x35F40, symBinAddr: 0x1000366D0, symSize: 0x38 }
  - { offset: 0x173124, size: 0x8, addend: 0x0, symName: __ZN5Eigen8internal10AssignmentINS_5BlockINS_6MatrixIdLin1ELi1ELi0ELin1ELi1EEELin1ELi1ELb0EEENS_7ProductINS_3MapIKNS3_IdLin1ELin1ELi0ELin1ELin1EEELi0ENS_11OuterStrideILin1EEEEENS7_IS4_Li0ESB_EELi0EEENS0_9assign_opIddEENS0_11Dense2DenseEvE3runERS5_RKSE_RKSG_, symObjAddr: 0x35E84, symBinAddr: 0x100036614, symSize: 0xBC }
  - { offset: 0x17318A, size: 0x8, addend: 0x0, symName: __ZNK5Eigen7MapBaseINS_3MapIKNS_6MatrixIdLin1ELin1ELi0ELin1ELin1EEELi0ENS_11OuterStrideILin1EEEEELi0EE4colsEv, symObjAddr: 0x35E64, symBinAddr: 0x1000365F4, symSize: 0x20 }
  - { offset: 0x1731CE, size: 0x8, addend: 0x0, symName: __ZN5Eigen9DenseBaseINS_7ProductINS_3MapIKNS_6MatrixIdLin1ELin1ELi0ELin1ELin1EEELi0ENS_11OuterStrideILin1EEEEENS2_INS3_IdLin1ELi1ELi0ELin1ELi1EEELi0ES7_EELi0EEEEC2Ev, symObjAddr: 0x35E50, symBinAddr: 0x1000365E0, symSize: 0x14 }
  - { offset: 0x1731F0, size: 0x8, addend: 0x0, symName: __ZN5Eigen8internal15call_assignmentINS_3MapINS_6MatrixIdLin1ELi1ELi0ELin1ELi1EEELi0ENS_11OuterStrideILin1EEEEENS_5SolveINS_14TriangularViewINS2_IKNS3_IdLin1ELin1ELi0ELin1ELin1EEELi0ES6_EELj5EEES7_EENS0_9assign_opIddEEEEvRT_RKT0_RKT1_NS0_9enable_ifIXntsrNS0_25evaluator_assume_aliasingISJ_NS0_16evaluator_traitsISJ_E5ShapeEEE5valueEPvE4typeE, symObjAddr: 0x35E1C, symBinAddr: 0x1000365AC, symSize: 0x34 }
  - { offset: 0x17327E, size: 0x8, addend: 0x0, symName: __ZN5Eigen9DenseBaseINS_5SolveINS_14TriangularViewINS_3MapIKNS_6MatrixIdLin1ELin1ELi0ELin1ELin1EEELi0ENS_11OuterStrideILin1EEEEELj5EEENS3_INS4_IdLin1ELi1ELi0ELin1ELi1EEELi0ES8_EEEEEC2Ev, symObjAddr: 0x35E08, symBinAddr: 0x100036598, symSize: 0x14 }
  - { offset: 0x1732D9, size: 0x8, addend: 0x0, symName: __ZN5Eigen14TriangularBaseINS_14TriangularViewINS_3MapIKNS_6MatrixIdLin1ELin1ELi0ELin1ELin1EEELi0ENS_11OuterStrideILin1EEEEELj5EEEEC2Ev, symObjAddr: 0x35DF4, symBinAddr: 0x100036584, symSize: 0x14 }
  - { offset: 0x1732FD, size: 0x8, addend: 0x0, symName: __ZN5Eigen8internal10AssignmentINS_5BlockINS_6MatrixIdLin1ELi1ELi0ELin1ELi1EEELin1ELi1ELb1EEENS_7ProductINS_17PermutationMatrixILin1ELin1EiEENS2_INS_12CwiseUnaryOpINS0_18scalar_opposite_opIdEEKS4_EELin1ELi1ELb1EEELi2EEENS0_9assign_opIddEENS0_11Dense2DenseEvE3runERS5_RKSF_RKSH_, symObjAddr: 0x35D38, symBinAddr: 0x1000364C8, symSize: 0xBC }
  - { offset: 0x17337D, size: 0x8, addend: 0x0, symName: __ZN5Eigen9DenseBaseINS_5BlockINS_12CwiseUnaryOpINS_8internal18scalar_opposite_opIdEEKNS_6MatrixIdLin1ELi1ELi0ELin1ELi1EEEEELin1ELi1ELb1EEEEC2Ev, symObjAddr: 0x35D24, symBinAddr: 0x1000364B4, symSize: 0x14 }
  - { offset: 0x1733A3, size: 0x8, addend: 0x0, symName: __ZN5Eigen8internal15BlockImpl_denseINS_6MatrixIdLin1ELi1ELi0ELin1ELi1EEELin1ELi1ELb1ELb1EE4initEv, symObjAddr: 0x35CF4, symBinAddr: 0x100036484, symSize: 0x30 }
  - { offset: 0x173411, size: 0x8, addend: 0x0, symName: __ZN5Eigen7MapBaseINS_5BlockINS_6MatrixIdLin1ELi1ELi0ELin1ELi1EEELin1ELi1ELb1EEELi1EEC2EPdll, symObjAddr: 0x35CBC, symBinAddr: 0x10003644C, symSize: 0x38 }
  - { offset: 0x17344E, size: 0x8, addend: 0x0, symName: __ZN5Eigen8internal26call_dense_assignment_loopINS_6MatrixIbLin1ELi1ELi0ELin1ELi1EEEEEvRT_RKNS_14CwiseNullaryOpINS0_18scalar_constant_opINS4_6ScalarEEES4_EERKNS0_9assign_opIS8_S8_EE, symObjAddr: 0x35BE8, symBinAddr: 0x100036378, symSize: 0xD4 }
  - { offset: 0x173572, size: 0x8, addend: 0x0, symName: __ZN5Eigen8internal18check_for_aliasingINS_6MatrixIbLin1ELi1ELi0ELin1ELi1EEENS_14CwiseNullaryOpINS0_18scalar_constant_opIbEES3_EEEEvRKT_RKT0_, symObjAddr: 0x35BD0, symBinAddr: 0x100036360, symSize: 0x18 }
  - { offset: 0x1735C3, size: 0x8, addend: 0x0, symName: __ZNK5Eigen8internal11conj_helperIddLb0ELb0EE4pmulERKdS4_, symObjAddr: 0x35B7C, symBinAddr: 0x10003630C, symSize: 0x54 }
  - { offset: 0x17363D, size: 0x8, addend: 0x0, symName: __ZNK5Eigen8internal11conj_helperI13__Float64x2_tS2_Lb0ELb0EE5pmaddERKDv2_dS6_S6_, symObjAddr: 0x35B20, symBinAddr: 0x1000362B0, symSize: 0x5C }
  - { offset: 0x173737, size: 0x8, addend: 0x0, symName: __ZNK5Eigen8internal16blas_data_mapperIKdlLi0ELi0ELi1EE6strideEv, symObjAddr: 0x35B08, symBinAddr: 0x100036298, symSize: 0x18 }
  - { offset: 0x1737EB, size: 0x8, addend: 0x0, symName: __ZN5Eigen6numext4realIdEENS_8internal11real_retvalINS2_36global_math_functions_filtering_baseIT_vE4typeEE4typeERKS5_, symObjAddr: 0x35AE4, symBinAddr: 0x100036274, symSize: 0x24 }
  - { offset: 0x173854, size: 0x8, addend: 0x0, symName: __ZNK5Eigen9DenseBaseINS_13CwiseBinaryOpINS_8internal22scalar_conj_product_opIddEEKNS_9TransposeIKNS_5BlockIKNS_3MapINS_6MatrixIdLin1ELin1ELi0ELin1ELin1EEELi0ENS_11OuterStrideILin1EEEEELi1ELin1ELb0EEEEEKNS6_IKNS6_INS8_IdLin1ELi1ELi0ELin1ELi1EEELin1ELi1ELb0EEELin1ELi1ELb1EEEEEE3sumEv, symObjAddr: 0x35A70, symBinAddr: 0x100036200, symSize: 0x74 }
  - { offset: 0x17387E, size: 0x8, addend: 0x0, symName: __ZNK5Eigen10MatrixBaseINS_9TransposeIKNS_5BlockIKNS_3MapINS_6MatrixIdLin1ELin1ELi0ELin1ELin1EEELi0ENS_11OuterStrideILin1EEEEELi1ELin1ELb0EEEEEE10binaryExprINS_8internal22scalar_conj_product_opIddEENS2_IKNS2_INS4_IdLin1ELi1ELi0ELin1ELi1EEELin1ELi1ELb0EEELin1ELi1ELb1EEEEEKNS_13CwiseBinaryOpIT_KSC_KT0_EERKNS0_ISP_EERKSN_, symObjAddr: 0x35A1C, symBinAddr: 0x1000361AC, symSize: 0x54 }
  - { offset: 0x1738F4, size: 0x8, addend: 0x0, symName: __ZN5Eigen8internal22scalar_conj_product_opIddEC1Ev, symObjAddr: 0x35A08, symBinAddr: 0x100036198, symSize: 0x14 }
  - { offset: 0x17391A, size: 0x8, addend: 0x0, symName: __ZNK5Eigen9DenseBaseINS_5BlockIKNS_3MapINS_6MatrixIdLin1ELin1ELi0ELin1ELin1EEELi0ENS_11OuterStrideILin1EEEEELi1ELin1ELb0EEEE9transposeEv, symObjAddr: 0x359D0, symBinAddr: 0x100036160, symSize: 0x38 }
  - { offset: 0x173944, size: 0x8, addend: 0x0, symName: __ZNK5Eigen9EigenBaseINS_5BlockIKNS1_INS_6MatrixIdLin1ELi1ELi0ELin1ELi1EEELin1ELi1ELb0EEELin1ELi1ELb1EEEE4colsEv, symObjAddr: 0x359B0, symBinAddr: 0x100036140, symSize: 0x20 }
  - { offset: 0x17396E, size: 0x8, addend: 0x0, symName: __ZNK5Eigen9EigenBaseINS_5BlockIKNS1_INS_6MatrixIdLin1ELi1ELi0ELin1ELi1EEELin1ELi1ELb0EEELin1ELi1ELb1EEEE4rowsEv, symObjAddr: 0x35990, symBinAddr: 0x100036120, symSize: 0x20 }
  - { offset: 0x173998, size: 0x8, addend: 0x0, symName: __ZNK5Eigen9EigenBaseINS_5BlockIKNS_3MapINS_6MatrixIdLin1ELin1ELi0ELin1ELin1EEELi0ENS_11OuterStrideILin1EEEEELi1ELin1ELb0EEEE4colsEv, symObjAddr: 0x35970, symBinAddr: 0x100036100, symSize: 0x20 }
  - { offset: 0x1739C2, size: 0x8, addend: 0x0, symName: __ZNK5Eigen9EigenBaseINS_5BlockIKNS_3MapINS_6MatrixIdLin1ELin1ELi0ELin1ELin1EEELi0ENS_11OuterStrideILin1EEEEELi1ELin1ELb0EEEE4rowsEv, symObjAddr: 0x35950, symBinAddr: 0x1000360E0, symSize: 0x20 }
  - { offset: 0x173A20, size: 0x8, addend: 0x0, symName: __ZN5Eigen9BlockImplIKNS_5BlockINS_6MatrixIdLin1ELi1ELi0ELin1ELi1EEELin1ELi1ELb0EEELin1ELi1ELb1ENS_5DenseEEC2ERS5_l, symObjAddr: 0x35920, symBinAddr: 0x1000360B0, symSize: 0x30 }
  - { offset: 0x173A8C, size: 0x8, addend: 0x0, symName: __ZN5Eigen9BlockImplIKNS_3MapINS_6MatrixIdLin1ELin1ELi0ELin1ELin1EEELi0ENS_11OuterStrideILin1EEEEELi1ELin1ELb0ENS_5DenseEEC2ERS7_l, symObjAddr: 0x358F0, symBinAddr: 0x100036080, symSize: 0x30 }
  - { offset: 0x173AC4, size: 0x8, addend: 0x0, symName: __ZNK5Eigen15DenseCoeffsBaseINS_5BlockINS_6MatrixIdLin1ELi1ELi0ELin1ELi1EEELin1ELi1ELb0EEELi3EE11outerStrideEv, symObjAddr: 0x358D0, symBinAddr: 0x100036060, symSize: 0x20 }
  - { offset: 0x173AEA, size: 0x8, addend: 0x0, symName: __ZN5Eigen8internal26triangular_solver_selectorINS_3MapINS_6MatrixIdLin1ELin1ELi0ELin1ELin1EEELi0ENS_11OuterStrideILin1EEEEENS_5BlockINS3_IdLin1ELi1ELi0ELin1ELi1EEELin1ELi1ELb0EEELi1ELi5ELi0ELi1EE3runERKS7_RSA_, symObjAddr: 0x35658, symBinAddr: 0x100035DE8, symSize: 0x278 }
  - { offset: 0x173B93, size: 0x8, addend: 0x0, symName: __ZN5Eigen8internal15BlockImpl_denseINS_6MatrixIdLin1ELi1ELi0ELin1ELi1EEELin1ELi1ELb0ELb1EEaSERKS4_, symObjAddr: 0x35630, symBinAddr: 0x100035DC0, symSize: 0x28 }
  - { offset: 0x173BCA, size: 0x8, addend: 0x0, symName: __ZN5Eigen8internal21dense_assignment_loopINS0_31generic_dense_assignment_kernelINS0_9evaluatorINS_5BlockINS_6MatrixIdLin1ELi1ELi0ELin1ELi1EEELin1ELi1ELb0EEEEENS3_INS_14CwiseNullaryOpINS0_18scalar_constant_opIdEES6_EEEENS0_9assign_opIddEELi0EEELi3ELi0EE3runERSG_, symObjAddr: 0x3557C, symBinAddr: 0x100035D0C, symSize: 0xB4 }
  - { offset: 0x173C78, size: 0x8, addend: 0x0, symName: __ZNK5Eigen8internal31generic_dense_assignment_kernelINS0_9evaluatorINS_5BlockINS_6MatrixIdLin1ELi1ELi0ELin1ELi1EEELin1ELi1ELb0EEEEENS2_INS_14CwiseNullaryOpINS0_18scalar_constant_opIdEES5_EEEENS0_9assign_opIddEELi0EE4sizeEv, symObjAddr: 0x3555C, symBinAddr: 0x100035CEC, symSize: 0x20 }
  - { offset: 0x173CF4, size: 0x8, addend: 0x0, symName: __ZN5Eigen8internal31generic_dense_assignment_kernelINS0_9evaluatorINS_5BlockINS_6MatrixIdLin1ELi1ELi0ELin1ELi1EEELin1ELi1ELb0EEEEENS2_INS_14CwiseNullaryOpINS0_18scalar_constant_opIdEES5_EEEENS0_9assign_opIddEELi0EEC1ERS7_RKSC_RKSE_RS6_, symObjAddr: 0x35508, symBinAddr: 0x100035C98, symSize: 0x54 }
  - { offset: 0x173D3A, size: 0x8, addend: 0x0, symName: __ZN5Eigen8internal17resize_if_allowedINS_5BlockINS_6MatrixIdLin1ELi1ELi0ELin1ELi1EEELin1ELi1ELb0EEENS_14CwiseNullaryOpINS0_18scalar_constant_opIdEES4_EEddEEvRT_RKT0_RKNS0_9assign_opIT1_T2_EE, symObjAddr: 0x353F0, symBinAddr: 0x100035B80, symSize: 0x118 }
  - { offset: 0x173DEC, size: 0x8, addend: 0x0, symName: __ZN5Eigen8internal14evaluator_baseINS_14CwiseNullaryOpINS0_18scalar_constant_opIdEENS_6MatrixIdLin1ELi1ELi0ELin1ELi1EEEEEED2Ev, symObjAddr: 0x353DC, symBinAddr: 0x100035B6C, symSize: 0x14 }
  - { offset: 0x173E3A, size: 0x8, addend: 0x0, symName: __ZN5Eigen8internal9evaluatorINS_14CwiseNullaryOpINS0_18scalar_constant_opIdEENS_6MatrixIdLin1ELi1ELi0ELin1ELi1EEEEEEC1ERKS7_, symObjAddr: 0x35398, symBinAddr: 0x100035B28, symSize: 0x44 }
  - { offset: 0x173E69, size: 0x8, addend: 0x0, symName: __ZNK5Eigen18TriangularViewImplINS_3MapINS_6MatrixIdLin1ELin1ELi0ELin1ELin1EEELi0ENS_11OuterStrideILin1EEEEELj5ENS_5DenseEE12solveInPlaceILi1ENS1_INS2_IdLin1ELi1ELi0ELin1ELi1EEELi0ENS_6StrideILi0ELi0EEEEEEEvRKNS_10MatrixBaseIT0_EE, symObjAddr: 0x35288, symBinAddr: 0x100035A18, symSize: 0x110 }
  - { offset: 0x173EFC, size: 0x8, addend: 0x0, symName: __ZN5Eigen7MapBaseINS_3MapINS_6MatrixIdLin1ELi1ELi0ELin1ELi1EEELi0ENS_6StrideILi0ELi0EEEEELi1EEaSERKS7_, symObjAddr: 0x3525C, symBinAddr: 0x1000359EC, symSize: 0x2C }
  - { offset: 0x173F37, size: 0x8, addend: 0x0, symName: __ZNK5Eigen7MapBaseINS_3MapINS_6MatrixIdLin1ELi1ELi0ELin1ELi1EEELi0ENS_6StrideILi0ELi0EEEEELi1EE4dataEv, symObjAddr: 0x35244, symBinAddr: 0x1000359D4, symSize: 0x18 }
  - { offset: 0x173F61, size: 0x8, addend: 0x0, symName: __ZNK5Eigen18TriangularViewImplINS_3MapINS_6MatrixIdLi3ELi3ELi0ELi3ELi3EEELi0ENS_11OuterStrideILin1EEEEELj5ENS_5DenseEE12solveInPlaceILi1ENS1_INS2_IdLi3ELi1ELi0ELi3ELi1EEELi0ENS_6StrideILi0ELi0EEEEEEEvRKNS_10MatrixBaseIT0_EE, symObjAddr: 0x35134, symBinAddr: 0x1000358C4, symSize: 0x110 }
  - { offset: 0x173FF4, size: 0x8, addend: 0x0, symName: __ZN5Eigen7MapBaseINS_3MapINS_6MatrixIdLi3ELi1ELi0ELi3ELi1EEELi0ENS_6StrideILi0ELi0EEEEELi1EEaSERKS7_, symObjAddr: 0x35108, symBinAddr: 0x100035898, symSize: 0x2C }
  - { offset: 0x17402F, size: 0x8, addend: 0x0, symName: __ZNK5Eigen7MapBaseINS_3MapINS_6MatrixIdLi3ELi1ELi0ELi3ELi1EEELi0ENS_6StrideILi0ELi0EEEEELi1EE4dataEv, symObjAddr: 0x350F0, symBinAddr: 0x100035880, symSize: 0x18 }
  - { offset: 0x174059, size: 0x8, addend: 0x0, symName: __ZNK5Eigen7MapBaseINS_3MapINS_6MatrixIdLi3ELi3ELi0ELi3ELi3EEELi0ENS_11OuterStrideILin1EEEEELi0EE4colsEv, symObjAddr: 0x350D8, symBinAddr: 0x100035868, symSize: 0x18 }
  - { offset: 0x17407F, size: 0x8, addend: 0x0, symName: __ZN5Eigen8internal26call_dense_assignment_loopINS_3MapINS_6MatrixIdLin1ELi1ELi0ELin1ELi1EEELi0ENS_11OuterStrideILin1EEEEENS_14CwiseNullaryOpINS0_18scalar_constant_opIdEES4_EENS0_9assign_opIddEEEEvRT_RKT0_RKT1_, symObjAddr: 0x35028, symBinAddr: 0x1000357B8, symSize: 0xB0 }
  - { offset: 0x174144, size: 0x8, addend: 0x0, symName: __ZN5Eigen8internal18check_for_aliasingINS_3MapINS_6MatrixIdLin1ELi1ELi0ELin1ELi1EEELi0ENS_11OuterStrideILin1EEEEENS_14CwiseNullaryOpINS0_18scalar_constant_opIdEES4_EEEEvRKT_RKT0_, symObjAddr: 0x35010, symBinAddr: 0x1000357A0, symSize: 0x18 }
  - { offset: 0x174195, size: 0x8, addend: 0x0, symName: __ZNK5Eigen18TriangularViewImplINS_3MapINS_6MatrixIdLi2ELi2ELi0ELi2ELi2EEELi0ENS_11OuterStrideILin1EEEEELj5ENS_5DenseEE12solveInPlaceILi1ENS1_INS2_IdLi2ELi1ELi0ELi2ELi1EEELi0ENS_6StrideILi0ELi0EEEEEEEvRKNS_10MatrixBaseIT0_EE, symObjAddr: 0x34F00, symBinAddr: 0x100035690, symSize: 0x110 }
  - { offset: 0x174228, size: 0x8, addend: 0x0, symName: __ZN5Eigen7MapBaseINS_3MapINS_6MatrixIdLi2ELi1ELi0ELi2ELi1EEELi0ENS_6StrideILi0ELi0EEEEELi1EEaSERKS7_, symObjAddr: 0x34ED4, symBinAddr: 0x100035664, symSize: 0x2C }
  - { offset: 0x174263, size: 0x8, addend: 0x0, symName: __ZNK5Eigen7MapBaseINS_3MapINS_6MatrixIdLi2ELi1ELi0ELi2ELi1EEELi0ENS_6StrideILi0ELi0EEEEELi1EE4dataEv, symObjAddr: 0x34EBC, symBinAddr: 0x10003564C, symSize: 0x18 }
  - { offset: 0x17428D, size: 0x8, addend: 0x0, symName: __ZNK5Eigen7MapBaseINS_3MapINS_6MatrixIdLi2ELi2ELi0ELi2ELi2EEELi0ENS_11OuterStrideILin1EEEEELi0EE4colsEv, symObjAddr: 0x34EA4, symBinAddr: 0x100035634, symSize: 0x18 }
  - { offset: 0x1742B7, size: 0x8, addend: 0x0, symName: __ZN5Eigen8internal31generic_dense_assignment_kernelINS0_9evaluatorINS_3MapINS_6MatrixIdLin1ELi1ELi0ELin1ELi1EEELi16ENS_6StrideILi0ELi0EEEEEEENS2_INS_13CwiseBinaryOpINS0_13scalar_sum_opIddEEKNSA_ISC_KNSA_INS0_17scalar_product_opIddEEKNS_14CwiseNullaryOpINS0_18scalar_constant_opIdEEKS5_EEKNS3_ISI_Li16ES7_EEEESO_EESO_EEEENS0_13add_assign_opIddEELi0EE11assignCoeffEl, symObjAddr: 0x34E38, symBinAddr: 0x1000355C8, symSize: 0x6C }
  - { offset: 0x1742F2, size: 0x8, addend: 0x0, symName: __ZNK5Eigen8internal16binary_evaluatorINS_13CwiseBinaryOpINS0_13scalar_sum_opIddEEKNS2_IS4_KNS2_INS0_17scalar_product_opIddEEKNS_14CwiseNullaryOpINS0_18scalar_constant_opIdEEKNS_6MatrixIdLin1ELi1ELi0ELin1ELi1EEEEEKNS_3MapISC_Li16ENS_6StrideILi0ELi0EEEEEEESL_EESL_EENS0_10IndexBasedESP_ddE6packetILi16E13__Float64x2_tEET0_l, symObjAddr: 0x34DBC, symBinAddr: 0x10003554C, symSize: 0x7C }
  - { offset: 0x174368, size: 0x8, addend: 0x0, symName: __ZN5Eigen8internal16binary_evaluatorINS_13CwiseBinaryOpINS0_13scalar_sum_opIddEEKNS2_IS4_KNS2_INS0_17scalar_product_opIddEEKNS_14CwiseNullaryOpINS0_18scalar_constant_opIdEEKNS_6MatrixIdLin1ELi1ELi0ELin1ELi1EEEEEKNS_3MapISC_Li16ENS_6StrideILi0ELi0EEEEEEESL_EESL_EENS0_10IndexBasedESP_ddE4DataC1ERKSO_, symObjAddr: 0x34D30, symBinAddr: 0x1000354C0, symSize: 0x8C }
  - { offset: 0x1743B1, size: 0x8, addend: 0x0, symName: __ZN5Eigen8internal14evaluator_baseINS_13CwiseBinaryOpINS0_13scalar_sum_opIddEEKNS2_IS4_KNS2_INS0_17scalar_product_opIddEEKNS_14CwiseNullaryOpINS0_18scalar_constant_opIdEEKNS_6MatrixIdLin1ELi1ELi0ELin1ELi1EEEEEKNS_3MapISC_Li16ENS_6StrideILi0ELi0EEEEEEESL_EESL_EEEC2Ev, symObjAddr: 0x34D1C, symBinAddr: 0x1000354AC, symSize: 0x14 }
  - { offset: 0x1743D7, size: 0x8, addend: 0x0, symName: __ZN5Eigen8internal31generic_dense_assignment_kernelINS0_9evaluatorINS_3MapINS_6MatrixIdLin1ELi1ELi0ELin1ELi1EEELi16ENS_6StrideILi0ELi0EEEEEEENS2_INS_13CwiseBinaryOpINS0_13scalar_sum_opIddEEKNSA_INS0_17scalar_product_opIddEEKNS_14CwiseNullaryOpINS0_18scalar_constant_opIdEEKS5_EEKNS3_ISI_Li16ES7_EEEESO_EEEENS0_13add_assign_opIddEELi0EE11assignCoeffEl, symObjAddr: 0x34CB0, symBinAddr: 0x100035440, symSize: 0x6C }
  - { offset: 0x174412, size: 0x8, addend: 0x0, symName: __ZNK5Eigen8internal16binary_evaluatorINS_13CwiseBinaryOpINS0_13scalar_sum_opIddEEKNS2_INS0_17scalar_product_opIddEEKNS_14CwiseNullaryOpINS0_18scalar_constant_opIdEEKNS_6MatrixIdLin1ELi1ELi0ELin1ELi1EEEEEKNS_3MapISC_Li16ENS_6StrideILi0ELi0EEEEEEESL_EENS0_10IndexBasedESN_ddE6packetILi16E13__Float64x2_tEET0_l, symObjAddr: 0x34C34, symBinAddr: 0x1000353C4, symSize: 0x7C }
  - { offset: 0x174488, size: 0x8, addend: 0x0, symName: __ZN5Eigen8internal16binary_evaluatorINS_13CwiseBinaryOpINS0_13scalar_sum_opIddEEKNS2_INS0_17scalar_product_opIddEEKNS_14CwiseNullaryOpINS0_18scalar_constant_opIdEEKNS_6MatrixIdLin1ELi1ELi0ELin1ELi1EEEEEKNS_3MapISC_Li16ENS_6StrideILi0ELi0EEEEEEESL_EENS0_10IndexBasedESN_ddE4DataC1ERKSM_, symObjAddr: 0x34BA8, symBinAddr: 0x100035338, symSize: 0x8C }
  - { offset: 0x1744D1, size: 0x8, addend: 0x0, symName: __ZN5Eigen8internal14evaluator_baseINS_13CwiseBinaryOpINS0_13scalar_sum_opIddEEKNS2_INS0_17scalar_product_opIddEEKNS_14CwiseNullaryOpINS0_18scalar_constant_opIdEEKNS_6MatrixIdLin1ELi1ELi0ELin1ELi1EEEEEKNS_3MapISC_Li16ENS_6StrideILi0ELi0EEEEEEESL_EEEC2Ev, symObjAddr: 0x34B94, symBinAddr: 0x100035324, symSize: 0x14 }
  - { offset: 0x1744F7, size: 0x8, addend: 0x0, symName: __ZN5Eigen8internal31generic_dense_assignment_kernelINS0_9evaluatorINS_3MapINS_6MatrixIdLin1ELi1ELi0ELin1ELi1EEELi16ENS_6StrideILi0ELi0EEEEEEENS2_INS_13CwiseBinaryOpINS0_17scalar_product_opIddEEKNS_14CwiseNullaryOpINS0_18scalar_constant_opIdEEKS5_EEKNS3_ISG_Li16ES7_EEEEEENS0_13add_assign_opIddEELi0EE11assignCoeffEl, symObjAddr: 0x34B28, symBinAddr: 0x1000352B8, symSize: 0x6C }
  - { offset: 0x174532, size: 0x8, addend: 0x0, symName: __ZNK5Eigen8internal16binary_evaluatorINS_13CwiseBinaryOpINS0_17scalar_product_opIddEEKNS_14CwiseNullaryOpINS0_18scalar_constant_opIdEEKNS_6MatrixIdLin1ELi1ELi0ELin1ELi1EEEEEKNS_3MapISA_Li16ENS_6StrideILi0ELi0EEEEEEENS0_10IndexBasedESJ_ddE6packetILi16E13__Float64x2_tEET0_l, symObjAddr: 0x34AAC, symBinAddr: 0x10003523C, symSize: 0x7C }
  - { offset: 0x174580, size: 0x8, addend: 0x0, symName: __ZN5Eigen8internal17mapbase_evaluatorINS_3MapINS_6MatrixIdLin1ELi1ELi0ELin1ELi1EEELi16ENS_6StrideILi0ELi0EEEEES4_E8coeffRefEl, symObjAddr: 0x34A6C, symBinAddr: 0x1000351FC, symSize: 0x40 }
  - { offset: 0x1745BB, size: 0x8, addend: 0x0, symName: __ZNK5Eigen9EigenBaseINS_3MapINS_6MatrixIdLin1ELi1ELi0ELin1ELi1EEELi16ENS_6StrideILi0ELi0EEEEEE4colsEv, symObjAddr: 0x34A4C, symBinAddr: 0x1000351DC, symSize: 0x20 }
  - { offset: 0x1745E5, size: 0x8, addend: 0x0, symName: __ZNK5Eigen9EigenBaseINS_3MapINS_6MatrixIdLin1ELi1ELi0ELin1ELi1EEELi16ENS_6StrideILi0ELi0EEEEEE4rowsEv, symObjAddr: 0x34A2C, symBinAddr: 0x1000351BC, symSize: 0x20 }
  - { offset: 0x174629, size: 0x8, addend: 0x0, symName: __ZN5Eigen8internal14evaluator_baseINS_3MapINS_6MatrixIdLin1ELi1ELi0ELin1ELi1EEELi16ENS_6StrideILi0ELi0EEEEEEC2Ev, symObjAddr: 0x34A18, symBinAddr: 0x1000351A8, symSize: 0x14 }
  - { offset: 0x17464F, size: 0x8, addend: 0x0, symName: __ZNK5Eigen3MapINS_6MatrixIdLin1ELi1ELi0ELin1ELi1EEELi16ENS_6StrideILi0ELi0EEEE11outerStrideEv, symObjAddr: 0x349E4, symBinAddr: 0x100035174, symSize: 0x34 }
  - { offset: 0x174679, size: 0x8, addend: 0x0, symName: __ZNK5Eigen3MapINS_6MatrixIdLin1ELi1ELi0ELin1ELi1EEELi16ENS_6StrideILi0ELi0EEEE11innerStrideEv, symObjAddr: 0x349D0, symBinAddr: 0x100035160, symSize: 0x14 }
  - { offset: 0x1746A3, size: 0x8, addend: 0x0, symName: __ZNK5Eigen7MapBaseINS_3MapINS_6MatrixIdLin1ELi1ELi0ELin1ELi1EEELi16ENS_6StrideILi0ELi0EEEEELi1EE4dataEv, symObjAddr: 0x349B8, symBinAddr: 0x100035148, symSize: 0x18 }
  - { offset: 0x1746F5, size: 0x8, addend: 0x0, symName: __ZN5Eigen8internal16binary_evaluatorINS_13CwiseBinaryOpINS0_17scalar_product_opIddEEKNS_14CwiseNullaryOpINS0_18scalar_constant_opIdEEKNS_6MatrixIdLin1ELi1ELi0ELin1ELi1EEEEEKNS_3MapISA_Li16ENS_6StrideILi0ELi0EEEEEEENS0_10IndexBasedESJ_ddE4DataC1ERKSI_, symObjAddr: 0x3492C, symBinAddr: 0x1000350BC, symSize: 0x8C }
  - { offset: 0x17473E, size: 0x8, addend: 0x0, symName: __ZN5Eigen8internal14evaluator_baseINS_13CwiseBinaryOpINS0_17scalar_product_opIddEEKNS_14CwiseNullaryOpINS0_18scalar_constant_opIdEEKNS_6MatrixIdLin1ELi1ELi0ELin1ELi1EEEEEKNS_3MapISA_Li16ENS_6StrideILi0ELi0EEEEEEEEC2Ev, symObjAddr: 0x34918, symBinAddr: 0x1000350A8, symSize: 0x14 }
  - { offset: 0x174760, size: 0x8, addend: 0x0, symName: __ZN5Eigen8internal21dense_assignment_loopINS0_31generic_dense_assignment_kernelINS0_9evaluatorINS_3MapINS_6MatrixIdLin1ELin1ELi0ELin1ELin1EEELi0ENS_11OuterStrideILin1EEEEEEENS3_INS_14CwiseNullaryOpINS0_18scalar_constant_opIdEES6_EEEENS0_9assign_opIddEELi0EEELi4ELi0EE3runERSI_, symObjAddr: 0x34770, symBinAddr: 0x100034F00, symSize: 0x1A8 }
  - { offset: 0x174914, size: 0x8, addend: 0x0, symName: __ZNK5Eigen8internal31generic_dense_assignment_kernelINS0_9evaluatorINS_3MapINS_6MatrixIdLin1ELin1ELi0ELin1ELin1EEELi0ENS_11OuterStrideILin1EEEEEEENS2_INS_14CwiseNullaryOpINS0_18scalar_constant_opIdEES5_EEEENS0_9assign_opIddEELi0EE11outerStrideEv, symObjAddr: 0x34750, symBinAddr: 0x100034EE0, symSize: 0x20 }
  - { offset: 0x17493E, size: 0x8, addend: 0x0, symName: __ZNK5Eigen8internal31generic_dense_assignment_kernelINS0_9evaluatorINS_3MapINS_6MatrixIdLin1ELin1ELi0ELin1ELin1EEELi0ENS_11OuterStrideILin1EEEEEEENS2_INS_14CwiseNullaryOpINS0_18scalar_constant_opIdEES5_EEEENS0_9assign_opIddEELi0EE9outerSizeEv, symObjAddr: 0x34730, symBinAddr: 0x100034EC0, symSize: 0x20 }
  - { offset: 0x174968, size: 0x8, addend: 0x0, symName: __ZNK5Eigen8internal31generic_dense_assignment_kernelINS0_9evaluatorINS_3MapINS_6MatrixIdLin1ELin1ELi0ELin1ELin1EEELi0ENS_11OuterStrideILin1EEEEEEENS2_INS_14CwiseNullaryOpINS0_18scalar_constant_opIdEES5_EEEENS0_9assign_opIddEELi0EE9innerSizeEv, symObjAddr: 0x34710, symBinAddr: 0x100034EA0, symSize: 0x20 }
  - { offset: 0x1749E4, size: 0x8, addend: 0x0, symName: __ZN5Eigen8internal31generic_dense_assignment_kernelINS0_9evaluatorINS_3MapINS_6MatrixIdLin1ELin1ELi0ELin1ELin1EEELi0ENS_11OuterStrideILin1EEEEEEENS2_INS_14CwiseNullaryOpINS0_18scalar_constant_opIdEES5_EEEENS0_9assign_opIddEELi0EEC1ERS9_RKSE_RKSG_RS8_, symObjAddr: 0x346BC, symBinAddr: 0x100034E4C, symSize: 0x54 }
  - { offset: 0x174A2E, size: 0x8, addend: 0x0, symName: __ZNK5Eigen9EigenBaseINS_3MapINS_6MatrixIdLin1ELin1ELi0ELin1ELin1EEELi0ENS_11OuterStrideILin1EEEEEE18const_cast_derivedEv, symObjAddr: 0x346A8, symBinAddr: 0x100034E38, symSize: 0x14 }
  - { offset: 0x174A72, size: 0x8, addend: 0x0, symName: __ZN5Eigen8internal14evaluator_baseINS_3MapINS_6MatrixIdLin1ELin1ELi0ELin1ELin1EEELi0ENS_11OuterStrideILin1EEEEEED2Ev, symObjAddr: 0x34694, symBinAddr: 0x100034E24, symSize: 0x14 }
  - { offset: 0x174AC0, size: 0x8, addend: 0x0, symName: __ZN5Eigen8internal9evaluatorINS_3MapINS_6MatrixIdLin1ELin1ELi0ELin1ELin1EEELi0ENS_11OuterStrideILin1EEEEEEC1ERKS7_, symObjAddr: 0x3466C, symBinAddr: 0x100034DFC, symSize: 0x28 }
  - { offset: 0x174AEB, size: 0x8, addend: 0x0, symName: __ZN5Eigen8internal17resize_if_allowedINS_3MapINS_6MatrixIdLin1ELin1ELi0ELin1ELin1EEELi0ENS_11OuterStrideILin1EEEEENS_14CwiseNullaryOpINS0_18scalar_constant_opIdEES4_EEddEEvRT_RKT0_RKNS0_9assign_opIT1_T2_EE, symObjAddr: 0x34554, symBinAddr: 0x100034CE4, symSize: 0x118 }
  - { offset: 0x174B9D, size: 0x8, addend: 0x0, symName: __ZN5Eigen8internal14evaluator_baseINS_14CwiseNullaryOpINS0_18scalar_constant_opIdEENS_6MatrixIdLin1ELin1ELi0ELin1ELin1EEEEEED2Ev, symObjAddr: 0x34540, symBinAddr: 0x100034CD0, symSize: 0x14 }
  - { offset: 0x174BEB, size: 0x8, addend: 0x0, symName: __ZN5Eigen8internal9evaluatorINS_14CwiseNullaryOpINS0_18scalar_constant_opIdEENS_6MatrixIdLin1ELin1ELi0ELin1ELin1EEEEEEC1ERKS7_, symObjAddr: 0x344FC, symBinAddr: 0x100034C8C, symSize: 0x44 }
  - { offset: 0x174C16, size: 0x8, addend: 0x0, symName: __ZN5Eigen8internal27checkTransposeAliasing_implINS_3MapINS_6MatrixIdLin1ELin1ELi0ELin1ELin1EEELi0ENS_11OuterStrideILin1EEEEENS_14CwiseNullaryOpINS0_18scalar_constant_opIdEES4_EELb0EE3runERKS7_RKSB_, symObjAddr: 0x344E4, symBinAddr: 0x100034C74, symSize: 0x18 }
  - { offset: 0x174C41, size: 0x8, addend: 0x0, symName: __ZN5Eigen8internal26triangular_solver_selectorINS_3MapINS_6MatrixIdLin1ELin1ELi0ELin1ELin1EEELi0ENS_11OuterStrideILin1EEEEENS2_IS4_Li16ES6_EELi1ELi5ELi0ELin1EE3runERKS7_RS8_, symObjAddr: 0x343D0, symBinAddr: 0x100034B60, symSize: 0x114 }
  - { offset: 0x174CCD, size: 0x8, addend: 0x0, symName: __ZNK5Eigen14TriangularViewINS_3MapINS_6MatrixIdLin1ELin1ELi0ELin1ELin1EEELi0ENS_11OuterStrideILin1EEEEELj5EE16nestedExpressionEv, symObjAddr: 0x343BC, symBinAddr: 0x100034B4C, symSize: 0x14 }
  - { offset: 0x174CF7, size: 0x8, addend: 0x0, symName: __ZNK5Eigen14TriangularViewINS_3MapINS_6MatrixIdLin1ELin1ELi0ELin1ELin1EEELi0ENS_11OuterStrideILin1EEEEELj5EE4rowsEv, symObjAddr: 0x343A0, symBinAddr: 0x100034B30, symSize: 0x1C }
  - { offset: 0x174D21, size: 0x8, addend: 0x0, symName: __ZNK5Eigen14TriangularBaseINS_14TriangularViewINS_3MapINS_6MatrixIdLin1ELin1ELi0ELin1ELin1EEELi0ENS_11OuterStrideILin1EEEEELj5EEEE7derivedEv, symObjAddr: 0x3438C, symBinAddr: 0x100034B1C, symSize: 0x14 }
  - { offset: 0x174D4B, size: 0x8, addend: 0x0, symName: __ZNK5Eigen9EigenBaseINS_3MapINS_6MatrixIdLin1ELin1ELi0ELin1ELin1EEELi16ENS_11OuterStrideILin1EEEEEE18const_cast_derivedEv, symObjAddr: 0x34378, symBinAddr: 0x100034B08, symSize: 0x14 }
  - { offset: 0x174D75, size: 0x8, addend: 0x0, symName: __ZN5Eigen10MatrixBaseINS_3MapINS_6MatrixIdLin1ELin1ELi0ELin1ELin1EEELi16ENS_11OuterStrideILin1EEEEEEaSERKS7_, symObjAddr: 0x34330, symBinAddr: 0x100034AC0, symSize: 0x48 }
  - { offset: 0x174E1D, size: 0x8, addend: 0x0, symName: __ZNK5Eigen14CwiseNullaryOpINS_8internal18scalar_constant_opIiEENS_6MatrixIiLin1ELi1ELi0ELin1ELi1EEEE4colsEv, symObjAddr: 0x34318, symBinAddr: 0x100034AA8, symSize: 0x18 }
  - { offset: 0x174E47, size: 0x8, addend: 0x0, symName: __ZNK5Eigen14CwiseNullaryOpINS_8internal18scalar_constant_opIiEENS_6MatrixIiLin1ELi1ELi0ELin1ELi1EEEE4rowsEv, symObjAddr: 0x342FC, symBinAddr: 0x100034A8C, symSize: 0x1C }
  - { offset: 0x174E71, size: 0x8, addend: 0x0, symName: __ZN5Eigen8internal31generic_dense_assignment_kernelINS0_9evaluatorINS_5BlockINS_6MatrixIiLin1ELi1ELi0ELin1ELi1EEELin1ELi1ELb0EEEEENS2_IS5_EENS0_9assign_opIiiEELi0EE12assignPacketILi16ELi0E11__Int32x4_tEEvl, symObjAddr: 0x34290, symBinAddr: 0x100034A20, symSize: 0x6C }
  - { offset: 0x174EC5, size: 0x8, addend: 0x0, symName: __ZN5Eigen8internal31unaligned_dense_assignment_loopILb0EE3runINS0_31generic_dense_assignment_kernelINS0_9evaluatorINS_5BlockINS_6MatrixIiLin1ELi1ELi0ELin1ELi1EEELin1ELi1ELb0EEEEENS5_IS8_EENS0_9assign_opIiiEELi0EEEEEvRT_ll, symObjAddr: 0x34238, symBinAddr: 0x1000349C8, symSize: 0x58 }
  - { offset: 0x174F42, size: 0x8, addend: 0x0, symName: __ZNK5Eigen8internal31generic_dense_assignment_kernelINS0_9evaluatorINS_5BlockINS_6MatrixIiLin1ELi1ELi0ELin1ELi1EEELin1ELi1ELb0EEEEENS2_IS5_EENS0_9assign_opIiiEELi0EE10dstDataPtrEv, symObjAddr: 0x34218, symBinAddr: 0x1000349A8, symSize: 0x20 }
  - { offset: 0x174F68, size: 0x8, addend: 0x0, symName: __ZN5Eigen8internal21dense_assignment_loopINS0_31generic_dense_assignment_kernelINS0_9evaluatorINS_6MatrixIiLin1ELi1ELi0ELin1ELi1EEEEENS3_INS_5BlockIS5_Lin1ELi1ELb0EEEEENS0_9assign_opIiiEELi0EEELi3ELi0EE3runERSC_, symObjAddr: 0x34184, symBinAddr: 0x100034914, symSize: 0x94 }
  - { offset: 0x175016, size: 0x8, addend: 0x0, symName: __ZNK5Eigen8internal31generic_dense_assignment_kernelINS0_9evaluatorINS_6MatrixIiLin1ELi1ELi0ELin1ELi1EEEEENS2_INS_5BlockIS4_Lin1ELi1ELb0EEEEENS0_9assign_opIiiEELi0EE4sizeEv, symObjAddr: 0x34164, symBinAddr: 0x1000348F4, symSize: 0x20 }
  - { offset: 0x175092, size: 0x8, addend: 0x0, symName: __ZN5Eigen8internal31generic_dense_assignment_kernelINS0_9evaluatorINS_6MatrixIiLin1ELi1ELi0ELin1ELi1EEEEENS2_INS_5BlockIS4_Lin1ELi1ELb0EEEEENS0_9assign_opIiiEELi0EEC1ERS5_RKS8_RKSA_RS4_, symObjAddr: 0x34110, symBinAddr: 0x1000348A0, symSize: 0x54 }
  - { offset: 0x1750D8, size: 0x8, addend: 0x0, symName: __ZN5Eigen8internal17resize_if_allowedINS_6MatrixIiLin1ELi1ELi0ELin1ELi1EEENS_5BlockIS3_Lin1ELi1ELb0EEEiiEEvRT_RKT0_RKNS0_9assign_opIT1_T2_EE, symObjAddr: 0x33FF8, symBinAddr: 0x100034788, symSize: 0x118 }
  - { offset: 0x175170, size: 0x8, addend: 0x0, symName: __ZN5Eigen8internal31generic_dense_assignment_kernelINS0_9evaluatorINS_5BlockINS_6MatrixIdLin1ELi1ELi0ELin1ELi1EEELin1ELi1ELb0EEEEENS2_IS5_EENS0_9assign_opIddEELi0EE12assignPacketILi16ELi0E13__Float64x2_tEEvl, symObjAddr: 0x33F8C, symBinAddr: 0x10003471C, symSize: 0x6C }
  - { offset: 0x1751C4, size: 0x8, addend: 0x0, symName: __ZN5Eigen8internal31unaligned_dense_assignment_loopILb0EE3runINS0_31generic_dense_assignment_kernelINS0_9evaluatorINS_5BlockINS_6MatrixIdLin1ELi1ELi0ELin1ELi1EEELin1ELi1ELb0EEEEENS5_IS8_EENS0_9assign_opIddEELi0EEEEEvRT_ll, symObjAddr: 0x33F34, symBinAddr: 0x1000346C4, symSize: 0x58 }
  - { offset: 0x175241, size: 0x8, addend: 0x0, symName: __ZNK5Eigen8internal31generic_dense_assignment_kernelINS0_9evaluatorINS_5BlockINS_6MatrixIdLin1ELi1ELi0ELin1ELi1EEELin1ELi1ELb0EEEEENS2_IS5_EENS0_9assign_opIddEELi0EE10dstDataPtrEv, symObjAddr: 0x33F14, symBinAddr: 0x1000346A4, symSize: 0x20 }
  - { offset: 0x175267, size: 0x8, addend: 0x0, symName: __ZN5Eigen8internal21dense_assignment_loopINS0_31generic_dense_assignment_kernelINS0_9evaluatorINS_6MatrixIdLin1ELi1ELi0ELin1ELi1EEEEENS3_INS_5BlockIS5_Lin1ELi1ELb0EEEEENS0_9assign_opIddEELi0EEELi3ELi0EE3runERSC_, symObjAddr: 0x33E84, symBinAddr: 0x100034614, symSize: 0x90 }
  - { offset: 0x175315, size: 0x8, addend: 0x0, symName: __ZNK5Eigen8internal31generic_dense_assignment_kernelINS0_9evaluatorINS_6MatrixIdLin1ELi1ELi0ELin1ELi1EEEEENS2_INS_5BlockIS4_Lin1ELi1ELb0EEEEENS0_9assign_opIddEELi0EE4sizeEv, symObjAddr: 0x33E64, symBinAddr: 0x1000345F4, symSize: 0x20 }
  - { offset: 0x175391, size: 0x8, addend: 0x0, symName: __ZN5Eigen8internal31generic_dense_assignment_kernelINS0_9evaluatorINS_6MatrixIdLin1ELi1ELi0ELin1ELi1EEEEENS2_INS_5BlockIS4_Lin1ELi1ELb0EEEEENS0_9assign_opIddEELi0EEC1ERS5_RKS8_RKSA_RS4_, symObjAddr: 0x33E10, symBinAddr: 0x1000345A0, symSize: 0x54 }
  - { offset: 0x1753D7, size: 0x8, addend: 0x0, symName: __ZN5Eigen8internal17resize_if_allowedINS_6MatrixIdLin1ELi1ELi0ELin1ELi1EEENS_5BlockIS3_Lin1ELi1ELb0EEEddEEvRT_RKT0_RKNS0_9assign_opIT1_T2_EE, symObjAddr: 0x33CF8, symBinAddr: 0x100034488, symSize: 0x118 }
  - { offset: 0x17546F, size: 0x8, addend: 0x0, symName: __ZN5Eigen8internal31generic_dense_assignment_kernelINS0_9evaluatorINS_6MatrixIiLin1ELi1ELi0ELin1ELi1EEEEES5_NS0_9assign_opIiiEELi0EE11assignCoeffEl, symObjAddr: 0x33C98, symBinAddr: 0x100034428, symSize: 0x60 }
  - { offset: 0x1754AA, size: 0x8, addend: 0x0, symName: __ZNK5Eigen8internal9assign_opIiiE12assignPacketILi16E11__Int32x4_tEEvPiRKT0_, symObjAddr: 0x33C58, symBinAddr: 0x1000343E8, symSize: 0x40 }
  - { offset: 0x175533, size: 0x8, addend: 0x0, symName: __ZNK5Eigen8internal9evaluatorINS_15PlainObjectBaseINS_6MatrixIiLin1ELi1ELi0ELin1ELi1EEEEEE6packetILi16E11__Int32x4_tEET0_l, symObjAddr: 0x33C14, symBinAddr: 0x1000343A4, symSize: 0x44 }
  - { offset: 0x1755A3, size: 0x8, addend: 0x0, symName: __ZN5Eigen8internal31generic_dense_assignment_kernelINS0_9evaluatorINS_5BlockINS_6MatrixIiLin1ELi1ELi0ELin1ELi1EEELin1ELi1ELb0EEEEENS2_INS_14CwiseNullaryOpINS0_12linspaced_opIiEES5_EEEENS0_9assign_opIiiEELi0EE11assignCoeffEl, symObjAddr: 0x33BAC, symBinAddr: 0x10003433C, symSize: 0x68 }
  - { offset: 0x1755DE, size: 0x8, addend: 0x0, symName: __ZN5Eigen9DenseBaseINS_5BlockINS_6MatrixIiLin1ELi1ELi0ELin1ELi1EEELin1ELi1ELb0EEEE6resizeEll, symObjAddr: 0x33AEC, symBinAddr: 0x10003427C, symSize: 0xC0 }
  - { offset: 0x175634, size: 0x8, addend: 0x0, symName: __ZNK5Eigen14CwiseNullaryOpINS_8internal12linspaced_opIiEENS_6MatrixIiLin1ELi1ELi0ELin1ELi1EEEE4colsEv, symObjAddr: 0x33AD4, symBinAddr: 0x100034264, symSize: 0x18 }
  - { offset: 0x17565E, size: 0x8, addend: 0x0, symName: __ZNK5Eigen14CwiseNullaryOpINS_8internal12linspaced_opIiEENS_6MatrixIiLin1ELi1ELi0ELin1ELi1EEEE4rowsEv, symObjAddr: 0x33AB8, symBinAddr: 0x100034248, symSize: 0x1C }
  - { offset: 0x1756A2, size: 0x8, addend: 0x0, symName: __ZN5Eigen8internal14evaluator_baseINS_14CwiseNullaryOpINS0_12linspaced_opIiEENS_6MatrixIiLin1ELi1ELi0ELin1ELi1EEEEEEC2Ev, symObjAddr: 0x33AA4, symBinAddr: 0x100034234, symSize: 0x14 }
  - { offset: 0x1756C8, size: 0x8, addend: 0x0, symName: __ZNK5Eigen14CwiseNullaryOpINS_8internal12linspaced_opIiEENS_6MatrixIiLin1ELi1ELi0ELin1ELi1EEEE7functorEv, symObjAddr: 0x33A8C, symBinAddr: 0x10003421C, symSize: 0x18 }
  - { offset: 0x1756F2, size: 0x8, addend: 0x0, symName: __ZN5Eigen8internal31generic_dense_assignment_kernelINS0_9evaluatorINS_3MapINS_6MatrixIiLin1ELi1ELi0ELin1ELi1EEELi0ENS_6StrideILi0ELi0EEEEEEES9_NS0_9assign_opIiiEELi0EE12assignPacketILi16ELi0E11__Int32x4_tEEvl, symObjAddr: 0x33A20, symBinAddr: 0x1000341B0, symSize: 0x6C }
  - { offset: 0x175746, size: 0x8, addend: 0x0, symName: __ZN5Eigen8internal31unaligned_dense_assignment_loopILb0EE3runINS0_31generic_dense_assignment_kernelINS0_9evaluatorINS_3MapINS_6MatrixIiLin1ELi1ELi0ELin1ELi1EEELi0ENS_6StrideILi0ELi0EEEEEEESC_NS0_9assign_opIiiEELi0EEEEEvRT_ll, symObjAddr: 0x339C8, symBinAddr: 0x100034158, symSize: 0x58 }
  - { offset: 0x1757C3, size: 0x8, addend: 0x0, symName: __ZNK5Eigen8internal31generic_dense_assignment_kernelINS0_9evaluatorINS_3MapINS_6MatrixIiLin1ELi1ELi0ELin1ELi1EEELi0ENS_6StrideILi0ELi0EEEEEEES9_NS0_9assign_opIiiEELi0EE10dstDataPtrEv, symObjAddr: 0x339A8, symBinAddr: 0x100034138, symSize: 0x20 }
  - { offset: 0x1757ED, size: 0x8, addend: 0x0, symName: __ZNK5Eigen9EigenBaseINS_3MapINS_6MatrixIiLin1ELi1ELi0ELin1ELi1EEELi0ENS_6StrideILi0ELi0EEEEEE4sizeEv, symObjAddr: 0x33974, symBinAddr: 0x100034104, symSize: 0x34 }
  - { offset: 0x175817, size: 0x8, addend: 0x0, symName: __ZN5Eigen9DenseBaseINS_3MapINS_6MatrixIiLin1ELi1ELi0ELin1ELi1EEELi0ENS_6StrideILi0ELi0EEEEEE6resizeEll, symObjAddr: 0x338B4, symBinAddr: 0x100034044, symSize: 0xC0 }
  - { offset: 0x175895, size: 0x8, addend: 0x0, symName: __ZN5Eigen8internal17mapbase_evaluatorINS_3MapINS_6MatrixIiLin1ELi1ELi0ELin1ELi1EEELi0ENS_6StrideILi0ELi0EEEEES4_EC2ERKS7_, symObjAddr: 0x33828, symBinAddr: 0x100033FB8, symSize: 0x8C }
  - { offset: 0x1758C0, size: 0x8, addend: 0x0, symName: __ZN5Eigen8internal21dense_assignment_loopINS0_31generic_dense_assignment_kernelINS0_9evaluatorINS_3MapINS_6MatrixIiLin1ELi1ELi0ELin1ELi1EEELi0ENS_6StrideILi0ELi0EEEEEEENS3_INS_14CwiseNullaryOpINS0_18scalar_constant_opIiEES6_EEEENS0_9assign_opIiiEELi0EEELi3ELi0EE3runERSI_, symObjAddr: 0x33770, symBinAddr: 0x100033F00, symSize: 0xB8 }
  - { offset: 0x17596E, size: 0x8, addend: 0x0, symName: __ZNK5Eigen8internal31generic_dense_assignment_kernelINS0_9evaluatorINS_3MapINS_6MatrixIiLin1ELi1ELi0ELin1ELi1EEELi0ENS_6StrideILi0ELi0EEEEEEENS2_INS_14CwiseNullaryOpINS0_18scalar_constant_opIiEES5_EEEENS0_9assign_opIiiEELi0EE4sizeEv, symObjAddr: 0x33750, symBinAddr: 0x100033EE0, symSize: 0x20 }
  - { offset: 0x1759EA, size: 0x8, addend: 0x0, symName: __ZN5Eigen8internal31generic_dense_assignment_kernelINS0_9evaluatorINS_3MapINS_6MatrixIiLin1ELi1ELi0ELin1ELi1EEELi0ENS_6StrideILi0ELi0EEEEEEENS2_INS_14CwiseNullaryOpINS0_18scalar_constant_opIiEES5_EEEENS0_9assign_opIiiEELi0EEC1ERS9_RKSE_RKSG_RS8_, symObjAddr: 0x336FC, symBinAddr: 0x100033E8C, symSize: 0x54 }
  - { offset: 0x175A30, size: 0x8, addend: 0x0, symName: __ZN5Eigen8internal17resize_if_allowedINS_3MapINS_6MatrixIiLin1ELi1ELi0ELin1ELi1EEELi0ENS_6StrideILi0ELi0EEEEENS_14CwiseNullaryOpINS0_18scalar_constant_opIiEES4_EEiiEEvRT_RKT0_RKNS0_9assign_opIT1_T2_EE, symObjAddr: 0x335E4, symBinAddr: 0x100033D74, symSize: 0x118 }
  - { offset: 0x175AE2, size: 0x8, addend: 0x0, symName: __ZN5Eigen8internal14evaluator_baseINS_14CwiseNullaryOpINS0_18scalar_constant_opIiEENS_6MatrixIiLin1ELi1ELi0ELin1ELi1EEEEEED2Ev, symObjAddr: 0x335D0, symBinAddr: 0x100033D60, symSize: 0x14 }
  - { offset: 0x175B30, size: 0x8, addend: 0x0, symName: __ZN5Eigen8internal9evaluatorINS_14CwiseNullaryOpINS0_18scalar_constant_opIiEENS_6MatrixIiLin1ELi1ELi0ELin1ELi1EEEEEEC1ERKS7_, symObjAddr: 0x3358C, symBinAddr: 0x100033D1C, symSize: 0x44 }
  - { offset: 0x175B87, size: 0x8, addend: 0x0, symName: __ZN5Eigen8internal16binary_evaluatorINS_13CwiseBinaryOpINS0_20scalar_difference_opIddEEKNS_6MatrixIdLin1ELi1ELi0ELin1ELi1EEES7_EENS0_10IndexBasedES9_ddEC2ERKS8_, symObjAddr: 0x33540, symBinAddr: 0x100033CD0, symSize: 0x4C }
  - { offset: 0x175BB6, size: 0x8, addend: 0x0, symName: __ZNK5Eigen8internal13scalar_exp_opIdEclERKd, symObjAddr: 0x33504, symBinAddr: 0x100033C94, symSize: 0x3C }
  - { offset: 0x175C15, size: 0x8, addend: 0x0, symName: __ZNK5Eigen8internal16binary_evaluatorINS_13CwiseBinaryOpINS0_17scalar_product_opIddEEKNS_12CwiseUnaryOpINS0_18scalar_opposite_opIdEEKNS2_INS0_20scalar_difference_opIddEEKNS_12ArrayWrapperINS_6MatrixIdLin1ELi1ELi0ELin1ELi1EEEEEKNS_14CwiseNullaryOpINS0_18scalar_constant_opIdEEKNS_5ArrayIdLin1ELi1ELi0ELin1ELi1EEEEEEEEESO_EENS0_10IndexBasedESS_ddE5coeffEl, symObjAddr: 0x33488, symBinAddr: 0x100033C18, symSize: 0x7C }
  - { offset: 0x175C50, size: 0x8, addend: 0x0, symName: __ZNK5Eigen8internal15unary_evaluatorINS_12CwiseUnaryOpINS0_13scalar_exp_opIdEEKNS_13CwiseBinaryOpINS0_17scalar_product_opIddEEKNS2_INS0_18scalar_opposite_opIdEEKNS5_INS0_20scalar_difference_opIddEEKNS_12ArrayWrapperINS_6MatrixIdLin1ELi1ELi0ELin1ELi1EEEEEKNS_14CwiseNullaryOpINS0_18scalar_constant_opIdEEKNS_5ArrayIdLin1ELi1ELi0ELin1ELi1EEEEEEEEESQ_EEEENS0_10IndexBasedEdE4Data4funcEv, symObjAddr: 0x33474, symBinAddr: 0x100033C04, symSize: 0x14 }
  - { offset: 0x175C7A, size: 0x8, addend: 0x0, symName: __ZNK5Eigen8internal13scalar_sin_opIdEclERKd, symObjAddr: 0x33438, symBinAddr: 0x100033BC8, symSize: 0x3C }
  - { offset: 0x175CD9, size: 0x8, addend: 0x0, symName: __ZNK5Eigen8internal22evaluator_wrapper_baseINS_12ArrayWrapperINS_6MatrixIdLin1ELi1ELi0ELin1ELi1EEEEEE5coeffEl, symObjAddr: 0x33414, symBinAddr: 0x100033BA4, symSize: 0x24 }
  - { offset: 0x175D14, size: 0x8, addend: 0x0, symName: __ZNK5Eigen8internal15unary_evaluatorINS_12CwiseUnaryOpINS0_13scalar_sin_opIdEEKNS_12ArrayWrapperINS_6MatrixIdLin1ELi1ELi0ELin1ELi1EEEEEEENS0_10IndexBasedEdE4Data4funcEv, symObjAddr: 0x33400, symBinAddr: 0x100033B90, symSize: 0x14 }
  - { offset: 0x175D65, size: 0x8, addend: 0x0, symName: __ZN5Eigen8internal9evaluatorINS_12CwiseUnaryOpINS0_13scalar_exp_opIdEEKNS_13CwiseBinaryOpINS0_17scalar_product_opIddEEKNS2_INS0_18scalar_opposite_opIdEEKNS5_INS0_20scalar_difference_opIddEEKNS_12ArrayWrapperINS_6MatrixIdLin1ELi1ELi0ELin1ELi1EEEEEKNS_14CwiseNullaryOpINS0_18scalar_constant_opIdEEKNS_5ArrayIdLin1ELi1ELi0ELin1ELi1EEEEEEEEESQ_EEEEEC2ERKSV_, symObjAddr: 0x333D8, symBinAddr: 0x100033B68, symSize: 0x28 }
  - { offset: 0x175DBB, size: 0x8, addend: 0x0, symName: __ZN5Eigen8internal9evaluatorINS_12CwiseUnaryOpINS0_13scalar_sin_opIdEEKNS_12ArrayWrapperINS_6MatrixIdLin1ELi1ELi0ELin1ELi1EEEEEEEEC2ERKSA_, symObjAddr: 0x333B0, symBinAddr: 0x100033B40, symSize: 0x28 }
  - { offset: 0x175DF5, size: 0x8, addend: 0x0, symName: __ZNK5Eigen8internal17linspaced_op_implIdLb0EEclIlEEKdT_, symObjAddr: 0x332F8, symBinAddr: 0x100033A88, symSize: 0xB8 }
  - { offset: 0x175E34, size: 0x8, addend: 0x0, symName: __ZN5Eigen8internal24call_assignment_no_aliasINS_5BlockINS_6MatrixIdLin1ELi1ELi0ELin1ELi1EEELin1ELi1ELb1EEENS_7ProductINS_7InverseINS_17PermutationMatrixILin1ELin1EiEEEES5_Li2EEENS0_9assign_opIddEEEEvRT_RKT0_RKT1_, symObjAddr: 0x332C0, symBinAddr: 0x100033A50, symSize: 0x38 }
  - { offset: 0x175ECE, size: 0x8, addend: 0x0, symName: __ZNK5Eigen13SparseMapBaseINS_3MapINS_12SparseMatrixIdLi0EiEELi0ENS_6StrideILi0ELi0EEEEELi0EE15innerNonZeroPtrEv, symObjAddr: 0x332A8, symBinAddr: 0x100033A38, symSize: 0x18 }
  - { offset: 0x175EF8, size: 0x8, addend: 0x0, symName: __ZNK5Eigen13SparseMapBaseINS_3MapINS_12SparseMatrixIdLi0EiEELi0ENS_6StrideILi0ELi0EEEEELi0EE13outerIndexPtrEv, symObjAddr: 0x33290, symBinAddr: 0x100033A20, symSize: 0x18 }
  - { offset: 0x175F22, size: 0x8, addend: 0x0, symName: __ZNK5Eigen13SparseMapBaseINS_3MapINS_12SparseMatrixIdLi0EiEELi0ENS_6StrideILi0ELi0EEEEELi0EE13innerIndexPtrEv, symObjAddr: 0x33278, symBinAddr: 0x100033A08, symSize: 0x18 }
  - { offset: 0x175F4C, size: 0x8, addend: 0x0, symName: __ZNK5Eigen13SparseMapBaseINS_3MapINS_12SparseMatrixIdLi0EiEELi0ENS_6StrideILi0ELi0EEEEELi0EE8valuePtrEv, symObjAddr: 0x33260, symBinAddr: 0x1000339F0, symSize: 0x18 }
  - { offset: 0x175F76, size: 0x8, addend: 0x0, symName: __ZNK5Eigen16SparseMatrixBaseINS_3MapINS_12SparseMatrixIdLi0EiEELi0ENS_6StrideILi0ELi0EEEEEE7derivedEv, symObjAddr: 0x3324C, symBinAddr: 0x1000339DC, symSize: 0x14 }
  - { offset: 0x175F9C, size: 0x8, addend: 0x0, symName: __ZN5Eigen8internal15call_assignmentINS_3MapINS_6MatrixIdLin1ELi1ELi0ELin1ELi1EEELi0ENS_11OuterStrideILin1EEEEENS_5SolveINS_14TriangularViewINS2_IKNS3_IdLin1ELin1ELi0ELin1ELin1EEELi0ES6_EELj2EEES7_EENS0_9assign_opIddEEEEvRT_RKT0_RKT1_NS0_9enable_ifIXntsrNS0_25evaluator_assume_aliasingISJ_NS0_16evaluator_traitsISJ_E5ShapeEEE5valueEPvE4typeE, symObjAddr: 0x33218, symBinAddr: 0x1000339A8, symSize: 0x34 }
  - { offset: 0x17602A, size: 0x8, addend: 0x0, symName: __ZN5Eigen9DenseBaseINS_5SolveINS_14TriangularViewINS_3MapIKNS_6MatrixIdLin1ELin1ELi0ELin1ELin1EEELi0ENS_11OuterStrideILin1EEEEELj2EEENS3_INS4_IdLin1ELi1ELi0ELin1ELi1EEELi0ES8_EEEEEC2Ev, symObjAddr: 0x33204, symBinAddr: 0x100033994, symSize: 0x14 }
  - { offset: 0x176074, size: 0x8, addend: 0x0, symName: __ZN5Eigen14TriangularBaseINS_14TriangularViewINS_3MapIKNS_6MatrixIdLin1ELin1ELi0ELin1ELin1EEELi0ENS_11OuterStrideILin1EEEEELj2EEEEC2Ev, symObjAddr: 0x331F0, symBinAddr: 0x100033980, symSize: 0x14 }
  - { offset: 0x1760E7, size: 0x8, addend: 0x0, symName: __ZN5Eigen7MapBaseINS_3MapINS_6MatrixIdLin1ELi1ELi0ELin1ELi1EEELi0ENS_11OuterStrideILin1EEEEELi0EEC2EPdll, symObjAddr: 0x330BC, symBinAddr: 0x10003384C, symSize: 0x134 }
  - { offset: 0x17613C, size: 0x8, addend: 0x0, symName: __ZNK5Eigen7MapBaseINS_3MapIKNS_6MatrixIdLin1ELin1ELi0ELin1ELin1EEELi0ENS_11OuterStrideILin1EEEEELi0EE11checkSanityIS7_EEvNS_8internal9enable_ifIXeqsrNSA_6traitsIT_EE9AlignmentLi0EEPvE4typeE, symObjAddr: 0x330A4, symBinAddr: 0x100033834, symSize: 0x18 }
  - { offset: 0x176192, size: 0x8, addend: 0x0, symName: __ZN5Eigen9DenseBaseINS_3MapIKNS_6MatrixIdLin1ELin1ELi0ELin1ELin1EEELi0ENS_11OuterStrideILin1EEEEEEC2Ev, symObjAddr: 0x33090, symBinAddr: 0x100033820, symSize: 0x14 }
  - { offset: 0x1761B4, size: 0x8, addend: 0x0, symName: __ZN5Eigen8internal24call_assignment_no_aliasINS_5BlockINS_6MatrixIdLin1ELi1ELi0ELin1ELi1EEELin1ELi1ELb0EEENS_7ProductINS_3MapIKNS3_IdLin1ELin1ELi0ELin1ELin1EEELi0ENS_11OuterStrideILin1EEEEENS7_IS4_Li0ESB_EELi0EEENS0_9assign_opIddEEEEvRT_RKT0_RKT1_, symObjAddr: 0x33058, symBinAddr: 0x1000337E8, symSize: 0x38 }
  - { offset: 0x17624E, size: 0x8, addend: 0x0, symName: __ZNK5Eigen9EigenBaseINS_7ProductINS_3MapIKNS_6MatrixIdLin1ELin1ELi0ELin1ELin1EEELi0ENS_11OuterStrideILin1EEEEENS2_INS3_IdLin1ELi1ELi0ELin1ELi1EEELi0ES7_EELi0EEEE7derivedEv, symObjAddr: 0x33044, symBinAddr: 0x1000337D4, symSize: 0x14 }
  - { offset: 0x1762B6, size: 0x8, addend: 0x0, symName: __ZN5Eigen7ProductINS_3MapIKNS_6MatrixIdLin1ELin1ELi0ELin1ELin1EEELi0ENS_11OuterStrideILin1EEEEENS1_INS2_IdLin1ELi1ELi0ELin1ELi1EEELi0ES6_EELi0EEC1ERKS7_RKS9_, symObjAddr: 0x32F94, symBinAddr: 0x100033724, symSize: 0xB0 }
  - { offset: 0x176321, size: 0x8, addend: 0x0, symName: __ZN5Eigen3MapINS_6MatrixIdLin1ELi1ELi0ELin1ELi1EEELi0ENS_11OuterStrideILin1EEEEC1ERKS5_, symObjAddr: 0x32F28, symBinAddr: 0x1000336B8, symSize: 0x6C }
  - { offset: 0x176378, size: 0x8, addend: 0x0, symName: __ZN5Eigen11ProductImplINS_3MapIKNS_6MatrixIdLin1ELin1ELi0ELin1ELin1EEELi0ENS_11OuterStrideILin1EEEEENS1_INS2_IdLin1ELi1ELi0ELin1ELi1EEELi0ES6_EELi0ENS_5DenseEEC2Ev, symObjAddr: 0x32F08, symBinAddr: 0x100033698, symSize: 0x20 }
  - { offset: 0x1763C6, size: 0x8, addend: 0x0, symName: __ZN5Eigen8internal18dense_product_baseINS_3MapIKNS_6MatrixIdLin1ELin1ELi0ELin1ELin1EEELi0ENS_11OuterStrideILin1EEEEENS2_INS3_IdLin1ELi1ELi0ELin1ELi1EEELi0ES7_EELi0ELi7EEC2Ev, symObjAddr: 0x32EE8, symBinAddr: 0x100033678, symSize: 0x20 }
  - { offset: 0x176406, size: 0x8, addend: 0x0, symName: __ZN5Eigen10MatrixBaseINS_7ProductINS_3MapIKNS_6MatrixIdLin1ELin1ELi0ELin1ELin1EEELi0ENS_11OuterStrideILin1EEEEENS2_INS3_IdLin1ELi1ELi0ELin1ELi1EEELi0ES7_EELi0EEEEC2Ev, symObjAddr: 0x32EC8, symBinAddr: 0x100033658, symSize: 0x20 }
  - { offset: 0x17642C, size: 0x8, addend: 0x0, symName: __ZNK5Eigen9EigenBaseINS_3MapIKNS_6MatrixIdLin1ELin1ELi0ELin1ELin1EEELi0ENS_11OuterStrideILin1EEEEEE7derivedEv, symObjAddr: 0x32EB4, symBinAddr: 0x100033644, symSize: 0x14 }
  - { offset: 0x176452, size: 0x8, addend: 0x0, symName: __ZN5Eigen8internal15call_assignmentINS_3MapINS_6MatrixIdLin1ELi1ELi0ELin1ELi1EEELi0ENS_11OuterStrideILin1EEEEENS_5SolveINS_14TriangularViewINS2_IKNS3_IdLin1ELin1ELi0ELin1ELin1EEELi0ES6_EELj5EEES7_EEEEvRT_RKT0_, symObjAddr: 0x32E78, symBinAddr: 0x100033608, symSize: 0x3C }
  - { offset: 0x1764A3, size: 0x8, addend: 0x0, symName: __ZNK5Eigen9EigenBaseINS_5SolveINS_14TriangularViewINS_3MapIKNS_6MatrixIdLin1ELin1ELi0ELin1ELin1EEELi0ENS_11OuterStrideILin1EEEEELj5EEENS3_INS4_IdLin1ELi1ELi0ELin1ELi1EEELi0ES8_EEEEE7derivedEv, symObjAddr: 0x32E64, symBinAddr: 0x1000335F4, symSize: 0x14 }
  - { offset: 0x176501, size: 0x8, addend: 0x0, symName: __ZN5Eigen5SolveINS_14TriangularViewINS_3MapIKNS_6MatrixIdLin1ELin1ELi0ELin1ELin1EEELi0ENS_11OuterStrideILin1EEEEELj5EEENS2_INS3_IdLin1ELi1ELi0ELin1ELi1EEELi0ES7_EEEC1ERKS9_RKSB_, symObjAddr: 0x32E24, symBinAddr: 0x1000335B4, symSize: 0x40 }
  - { offset: 0x176561, size: 0x8, addend: 0x0, symName: __ZN5Eigen9SolveImplINS_14TriangularViewINS_3MapIKNS_6MatrixIdLin1ELin1ELi0ELin1ELin1EEELi0ENS_11OuterStrideILin1EEEEELj5EEENS2_INS3_IdLin1ELi1ELi0ELin1ELi1EEELi0ES7_EENS_5DenseEEC2Ev, symObjAddr: 0x32E04, symBinAddr: 0x100033594, symSize: 0x20 }
  - { offset: 0x1765A1, size: 0x8, addend: 0x0, symName: __ZN5Eigen10MatrixBaseINS_5SolveINS_14TriangularViewINS_3MapIKNS_6MatrixIdLin1ELin1ELi0ELin1ELin1EEELi0ENS_11OuterStrideILin1EEEEELj5EEENS3_INS4_IdLin1ELi1ELi0ELin1ELi1EEELi0ES8_EEEEEC2Ev, symObjAddr: 0x32DE4, symBinAddr: 0x100033574, symSize: 0x20 }
  - { offset: 0x1765EE, size: 0x8, addend: 0x0, symName: __ZN5Eigen14TriangularViewINS_3MapIKNS_6MatrixIdLin1ELin1ELi0ELin1ELin1EEELi0ENS_11OuterStrideILin1EEEEELj5EEC1ERS7_, symObjAddr: 0x32DB4, symBinAddr: 0x100033544, symSize: 0x30 }
  - { offset: 0x176637, size: 0x8, addend: 0x0, symName: __ZN5Eigen18TriangularViewImplINS_3MapIKNS_6MatrixIdLin1ELin1ELi0ELin1ELin1EEELi0ENS_11OuterStrideILin1EEEEELj5ENS_5DenseEEC2Ev, symObjAddr: 0x32D94, symBinAddr: 0x100033524, symSize: 0x20 }
  - { offset: 0x17665D, size: 0x8, addend: 0x0, symName: __ZNK5Eigen8internal22MappedSuperNodalMatrixIdiE13InnerIterator5indexEv, symObjAddr: 0x32D58, symBinAddr: 0x1000334E8, symSize: 0x3C }
  - { offset: 0x176687, size: 0x8, addend: 0x0, symName: __ZNK5Eigen8internal22MappedSuperNodalMatrixIdiE8colToSupEv, symObjAddr: 0x32D40, symBinAddr: 0x1000334D0, symSize: 0x18 }
  - { offset: 0x1766B7, size: 0x8, addend: 0x0, symName: __ZN5Eigen15PlainObjectBaseINS_6MatrixIdLin1ELi1ELi0ELin1ELi1EEEE6_init2IllEEvllPNS_8internal9enable_ifILb1ET_E4typeE, symObjAddr: 0x32CFC, symBinAddr: 0x10003348C, symSize: 0x44 }
  - { offset: 0x17673C, size: 0x8, addend: 0x0, symName: __ZN5Eigen8internal24call_assignment_no_aliasINS_5BlockINS_6MatrixIdLin1ELi1ELi0ELin1ELi1EEELin1ELi1ELb1EEENS_7ProductINS_17PermutationMatrixILin1ELin1EiEENS2_INS_12CwiseUnaryOpINS0_18scalar_opposite_opIdEEKS4_EELin1ELi1ELb1EEELi2EEENS0_9assign_opIddEEEEvRT_RKT0_RKT1_, symObjAddr: 0x32CC4, symBinAddr: 0x100033454, symSize: 0x38 }
  - { offset: 0x17680A, size: 0x8, addend: 0x0, symName: __ZN5Eigen8internal15BlockImpl_denseINS_12CwiseUnaryOpINS0_18scalar_opposite_opIdEEKNS_6MatrixIdLin1ELi1ELi0ELin1ELi1EEEEELin1ELi1ELb1ELb0EEC2ERS8_l, symObjAddr: 0x32C3C, symBinAddr: 0x1000333CC, symSize: 0x88 }
  - { offset: 0x17685C, size: 0x8, addend: 0x0, symName: __ZN5Eigen10MatrixBaseINS_5BlockINS_12CwiseUnaryOpINS_8internal18scalar_opposite_opIdEEKNS_6MatrixIdLin1ELi1ELi0ELin1ELi1EEEEELin1ELi1ELb1EEEEC2Ev, symObjAddr: 0x32C1C, symBinAddr: 0x1000333AC, symSize: 0x20 }
  - { offset: 0x1768B8, size: 0x8, addend: 0x0, symName: __ZN5Eigen8internal15BlockImpl_denseINS_6MatrixIdLin1ELi1ELi0ELin1ELi1EEELin1ELi1ELb1ELb1EEC2ERS3_l, symObjAddr: 0x32B78, symBinAddr: 0x100033308, symSize: 0xA4 }
  - { offset: 0x1768EC, size: 0x8, addend: 0x0, symName: __ZN5Eigen8internal10AssignmentINS_6MatrixIbLin1ELi1ELi0ELin1ELi1EEENS_14CwiseNullaryOpINS0_18scalar_constant_opIbEES3_EENS0_9assign_opIbbEENS0_11Dense2DenseEvE3runERS3_RKS7_RKS9_, symObjAddr: 0x32B3C, symBinAddr: 0x1000332CC, symSize: 0x3C }
  - { offset: 0x176956, size: 0x8, addend: 0x0, symName: __ZN5Eigen8internal28aligned_stack_memory_handlerIdED1Ev, symObjAddr: 0x32AFC, symBinAddr: 0x10003328C, symSize: 0x40 }
  - { offset: 0x1769C0, size: 0x8, addend: 0x0, symName: __ZN5Eigen8internal28aligned_stack_memory_handlerIdEC1EPdmb, symObjAddr: 0x32AA8, symBinAddr: 0x100033238, symSize: 0x54 }
  - { offset: 0x1769FD, size: 0x8, addend: 0x0, symName: __ZN5Eigen8internal29general_matrix_vector_productIldNS0_22const_blas_data_mapperIdlLi0EEELi0ELb0EdNS2_IdlLi1EEELb0ELi0EE3runEllRKS3_RKS4_Pdld, symObjAddr: 0x313E0, symBinAddr: 0x100031B70, symSize: 0x16C8 }
  - { offset: 0x177C10, size: 0x8, addend: 0x0, symName: __ZNK5Eigen7MapBaseINS_3MapINS_6MatrixIdLin1ELin1ELi0ELin1ELin1EEELi0ENS_11OuterStrideILin1EEEEELi1EE4dataEv, symObjAddr: 0x313C8, symBinAddr: 0x100031B58, symSize: 0x18 }
  - { offset: 0x177C36, size: 0x8, addend: 0x0, symName: __ZN5Eigen8internal10get_factorIddE3runERKd, symObjAddr: 0x313A4, symBinAddr: 0x100031B34, symSize: 0x24 }
  - { offset: 0x177CAC, size: 0x8, addend: 0x0, symName: __ZN5Eigen8internal11blas_traitsINS_5BlockINS_6MatrixIdLin1ELi1ELi0ELin1ELi1EEELin1ELi1ELb0EEEE7extractERKS5_, symObjAddr: 0x31390, symBinAddr: 0x100031B20, symSize: 0x14 }
  - { offset: 0x177CD6, size: 0x8, addend: 0x0, symName: __ZN5Eigen8internal11blas_traitsINS_3MapINS_6MatrixIdLin1ELin1ELi0ELin1ELin1EEELi0ENS_11OuterStrideILin1EEEEEE7extractERKS7_, symObjAddr: 0x3137C, symBinAddr: 0x100031B0C, symSize: 0x14 }
  - { offset: 0x177D00, size: 0x8, addend: 0x0, symName: __ZN5Eigen8internal11dot_nocheckINS_5BlockIKNS_3MapINS_6MatrixIdLin1ELin1ELi0ELin1ELin1EEELi0ENS_11OuterStrideILin1EEEEELi1ELin1ELb0EEENS2_IKNS2_INS4_IdLin1ELi1ELi0ELin1ELi1EEELin1ELi1ELb0EEELin1ELi1ELb1EEELb1EE3runERKNS_10MatrixBaseISA_EERKNSG_ISE_EE, symObjAddr: 0x31320, symBinAddr: 0x100031AB0, symSize: 0x5C }
  - { offset: 0x177D3F, size: 0x8, addend: 0x0, symName: __ZNK5Eigen9EigenBaseINS_5BlockIKNS1_INS_6MatrixIdLin1ELi1ELi0ELin1ELi1EEELin1ELi1ELb0EEELin1ELi1ELb1EEEE4sizeEv, symObjAddr: 0x312EC, symBinAddr: 0x100031A7C, symSize: 0x34 }
  - { offset: 0x177D69, size: 0x8, addend: 0x0, symName: __ZNK5Eigen9EigenBaseINS_5BlockIKNS_3MapINS_6MatrixIdLin1ELin1ELi0ELin1ELin1EEELi0ENS_11OuterStrideILin1EEEEELi1ELin1ELb0EEEE4sizeEv, symObjAddr: 0x312B8, symBinAddr: 0x100031A48, symSize: 0x34 }
  - { offset: 0x177DD1, size: 0x8, addend: 0x0, symName: __ZN5Eigen5BlockIKNS0_INS_6MatrixIdLin1ELi1ELi0ELin1ELi1EEELin1ELi1ELb0EEELin1ELi1ELb1EEC1ERS4_l, symObjAddr: 0x31210, symBinAddr: 0x1000319A0, symSize: 0xA8 }
  - { offset: 0x177E1D, size: 0x8, addend: 0x0, symName: __ZNK5Eigen9EigenBaseINS_5BlockIKNS_3MapINS_6MatrixIdLin1ELin1ELi0ELin1ELin1EEELi0ENS_11OuterStrideILin1EEEEELi1ELin1ELb0EEEE7derivedEv, symObjAddr: 0x311FC, symBinAddr: 0x10003198C, symSize: 0x14 }
  - { offset: 0x177E85, size: 0x8, addend: 0x0, symName: __ZN5Eigen5BlockIKNS_3MapINS_6MatrixIdLin1ELin1ELi0ELin1ELin1EEELi0ENS_11OuterStrideILin1EEEEELi1ELin1ELb0EEC1ERS7_l, symObjAddr: 0x31154, symBinAddr: 0x1000318E4, symSize: 0xA8 }
  - { offset: 0x177ED1, size: 0x8, addend: 0x0, symName: __ZNK5Eigen15DenseCoeffsBaseINS_5BlockINS_6MatrixIdLin1ELi1ELi0ELin1ELi1EEELin1ELi1ELb0EEELi3EE9rowStrideEv, symObjAddr: 0x31138, symBinAddr: 0x1000318C8, symSize: 0x1C }
  - { offset: 0x177EFB, size: 0x8, addend: 0x0, symName: __ZNK5Eigen15DenseCoeffsBaseINS_5BlockINS_6MatrixIdLin1ELi1ELi0ELin1ELi1EEELin1ELi1ELb0EEELi3EE9colStrideEv, symObjAddr: 0x3111C, symBinAddr: 0x1000318AC, symSize: 0x1C }
  - { offset: 0x177F25, size: 0x8, addend: 0x0, symName: __ZNK5Eigen18TriangularViewImplINS_3MapINS_6MatrixIdLin1ELin1ELi0ELin1ELin1EEELi0ENS_11OuterStrideILin1EEEEELj5ENS_5DenseEE12solveInPlaceILi1ENS_5BlockINS2_IdLin1ELi1ELi0ELin1ELi1EEELin1ELi1ELb0EEEEEvRKNS_10MatrixBaseIT0_EE, symObjAddr: 0x3100C, symBinAddr: 0x10003179C, symSize: 0x110 }
  - { offset: 0x177FB8, size: 0x8, addend: 0x0, symName: __ZN5Eigen9BlockImplINS_6MatrixIdLin1ELi1ELi0ELin1ELi1EEELin1ELi1ELb0ENS_5DenseEEaSERKS4_, symObjAddr: 0x30FE4, symBinAddr: 0x100031774, symSize: 0x28 }
  - { offset: 0x177FEE, size: 0x8, addend: 0x0, symName: __ZN5Eigen8internal26call_dense_assignment_loopINS_5BlockINS_6MatrixIdLin1ELi1ELi0ELin1ELi1EEELin1ELi1ELb0EEENS_14CwiseNullaryOpINS0_18scalar_constant_opIdEES4_EENS0_9assign_opIddEEEEvRT_RKT0_RKT1_, symObjAddr: 0x30F34, symBinAddr: 0x1000316C4, symSize: 0xB0 }
  - { offset: 0x1780D5, size: 0x8, addend: 0x0, symName: __ZN5Eigen8internal9evaluatorINS_14CwiseNullaryOpINS0_18scalar_constant_opIdEENS_6MatrixIdLin1ELi1ELi0ELin1ELi1EEEEEED1Ev, symObjAddr: 0x30F14, symBinAddr: 0x1000316A4, symSize: 0x20 }
  - { offset: 0x1780F7, size: 0x8, addend: 0x0, symName: __ZN5Eigen8internal18check_for_aliasingINS_5BlockINS_6MatrixIdLin1ELi1ELi0ELin1ELi1EEELin1ELi1ELb0EEENS_14CwiseNullaryOpINS0_18scalar_constant_opIdEES4_EEEEvRKT_RKT0_, symObjAddr: 0x30EFC, symBinAddr: 0x10003168C, symSize: 0x18 }
  - { offset: 0x178148, size: 0x8, addend: 0x0, symName: __ZNK5Eigen18TriangularViewImplINS_3MapINS_6MatrixIdLin1ELin1ELi0ELin1ELin1EEELi0ENS_11OuterStrideILin1EEEEELj5ENS_5DenseEE12solveInPlaceINS1_INS2_IdLin1ELi1ELi0ELin1ELi1EEELi0ENS_6StrideILi0ELi0EEEEEEEvRKNS_10MatrixBaseIT_EE, symObjAddr: 0x30ED4, symBinAddr: 0x100031664, symSize: 0x28 }
  - { offset: 0x17818C, size: 0x8, addend: 0x0, symName: __ZN5Eigen3MapINS_6MatrixIdLin1ELi1ELi0ELin1ELi1EEELi0ENS_6StrideILi0ELi0EEEEaSERKS5_, symObjAddr: 0x30EAC, symBinAddr: 0x10003163C, symSize: 0x28 }
  - { offset: 0x1781C2, size: 0x8, addend: 0x0, symName: __ZN5Eigen8internal13is_same_denseINS_3MapINS_6MatrixIdLin1ELi1ELi0ELin1ELi1EEELi0ENS_6StrideILi0ELi0EEEEES7_EEbRKT_RKT0_PNS0_9enable_ifIXsrNS0_19possibly_same_denseIS8_SB_EE5valueEvE4typeE, symObjAddr: 0x30E28, symBinAddr: 0x1000315B8, symSize: 0x84 }
  - { offset: 0x17821C, size: 0x8, addend: 0x0, symName: __ZNK5Eigen18TriangularViewImplINS_3MapINS_6MatrixIdLi3ELi3ELi0ELi3ELi3EEELi0ENS_11OuterStrideILin1EEEEELj5ENS_5DenseEE12solveInPlaceINS1_INS2_IdLi3ELi1ELi0ELi3ELi1EEELi0ENS_6StrideILi0ELi0EEEEEEEvRKNS_10MatrixBaseIT_EE, symObjAddr: 0x30E00, symBinAddr: 0x100031590, symSize: 0x28 }
  - { offset: 0x178260, size: 0x8, addend: 0x0, symName: __ZN5Eigen3MapINS_6MatrixIdLi3ELi1ELi0ELi3ELi1EEELi0ENS_6StrideILi0ELi0EEEEaSERKS5_, symObjAddr: 0x30DD8, symBinAddr: 0x100031568, symSize: 0x28 }
  - { offset: 0x178296, size: 0x8, addend: 0x0, symName: __ZN5Eigen8internal13is_same_denseINS_3MapINS_6MatrixIdLi3ELi1ELi0ELi3ELi1EEELi0ENS_6StrideILi0ELi0EEEEES7_EEbRKT_RKT0_PNS0_9enable_ifIXsrNS0_19possibly_same_denseIS8_SB_EE5valueEvE4typeE, symObjAddr: 0x30D54, symBinAddr: 0x1000314E4, symSize: 0x84 }
  - { offset: 0x1782F0, size: 0x8, addend: 0x0, symName: __ZNK5Eigen14TriangularViewINS_3MapINS_6MatrixIdLi3ELi3ELi0ELi3ELi3EEELi0ENS_11OuterStrideILin1EEEEELj5EE4colsEv, symObjAddr: 0x30D38, symBinAddr: 0x1000314C8, symSize: 0x1C }
  - { offset: 0x178316, size: 0x8, addend: 0x0, symName: __ZN5Eigen8internal10AssignmentINS_3MapINS_6MatrixIdLin1ELi1ELi0ELin1ELi1EEELi0ENS_11OuterStrideILin1EEEEENS_14CwiseNullaryOpINS0_18scalar_constant_opIdEES4_EENS0_9assign_opIddEENS0_11Dense2DenseEvE3runERS7_RKSB_RKSD_, symObjAddr: 0x30CFC, symBinAddr: 0x10003148C, symSize: 0x3C }
  - { offset: 0x178366, size: 0x8, addend: 0x0, symName: __ZNK5Eigen18TriangularViewImplINS_3MapINS_6MatrixIdLi2ELi2ELi0ELi2ELi2EEELi0ENS_11OuterStrideILin1EEEEELj5ENS_5DenseEE12solveInPlaceINS1_INS2_IdLi2ELi1ELi0ELi2ELi1EEELi0ENS_6StrideILi0ELi0EEEEEEEvRKNS_10MatrixBaseIT_EE, symObjAddr: 0x30CD4, symBinAddr: 0x100031464, symSize: 0x28 }
  - { offset: 0x1783AA, size: 0x8, addend: 0x0, symName: __ZN5Eigen3MapINS_6MatrixIdLi2ELi1ELi0ELi2ELi1EEELi0ENS_6StrideILi0ELi0EEEEaSERKS5_, symObjAddr: 0x30CAC, symBinAddr: 0x10003143C, symSize: 0x28 }
  - { offset: 0x1783E0, size: 0x8, addend: 0x0, symName: __ZN5Eigen8internal13is_same_denseINS_3MapINS_6MatrixIdLi2ELi1ELi0ELi2ELi1EEELi0ENS_6StrideILi0ELi0EEEEES7_EEbRKT_RKT0_PNS0_9enable_ifIXsrNS0_19possibly_same_denseIS8_SB_EE5valueEvE4typeE, symObjAddr: 0x30C28, symBinAddr: 0x1000313B8, symSize: 0x84 }
  - { offset: 0x17843A, size: 0x8, addend: 0x0, symName: __ZNK5Eigen14TriangularViewINS_3MapINS_6MatrixIdLi2ELi2ELi0ELi2ELi2EEELi0ENS_11OuterStrideILin1EEEEELj5EE4colsEv, symObjAddr: 0x30C0C, symBinAddr: 0x10003139C, symSize: 0x1C }
  - { offset: 0x178460, size: 0x8, addend: 0x0, symName: __ZN5Eigen8internal31unaligned_dense_assignment_loopILb0EE3runINS0_31generic_dense_assignment_kernelINS0_9evaluatorINS_3MapINS_6MatrixIdLin1ELi1ELi0ELin1ELi1EEELi16ENS_6StrideILi0ELi0EEEEEEENS5_INS_13CwiseBinaryOpINS0_13scalar_sum_opIddEEKNSD_ISF_KNSD_INS0_17scalar_product_opIddEEKNS_14CwiseNullaryOpINS0_18scalar_constant_opIdEEKS8_EEKNS6_ISL_Li16ESA_EEEESR_EESR_EEEENS0_13add_assign_opIddEELi0EEEEEvRT_ll, symObjAddr: 0x30BB4, symBinAddr: 0x100031344, symSize: 0x58 }
  - { offset: 0x1784DD, size: 0x8, addend: 0x0, symName: __ZN5Eigen8internal31generic_dense_assignment_kernelINS0_9evaluatorINS_3MapINS_6MatrixIdLin1ELi1ELi0ELin1ELi1EEELi16ENS_6StrideILi0ELi0EEEEEEENS2_INS_13CwiseBinaryOpINS0_13scalar_sum_opIddEEKNSA_ISC_KNSA_INS0_17scalar_product_opIddEEKNS_14CwiseNullaryOpINS0_18scalar_constant_opIdEEKS5_EEKNS3_ISI_Li16ES7_EEEESO_EESO_EEEENS0_13add_assign_opIddEELi0EE12assignPacketILi16ELi16E13__Float64x2_tEEvl, symObjAddr: 0x30B48, symBinAddr: 0x1000312D8, symSize: 0x6C }
  - { offset: 0x178531, size: 0x8, addend: 0x0, symName: __ZN5Eigen8internal31unaligned_dense_assignment_loopILb1EE3runINS0_31generic_dense_assignment_kernelINS0_9evaluatorINS_3MapINS_6MatrixIdLin1ELi1ELi0ELin1ELi1EEELi16ENS_6StrideILi0ELi0EEEEEEENS5_INS_13CwiseBinaryOpINS0_13scalar_sum_opIddEEKNSD_ISF_KNSD_INS0_17scalar_product_opIddEEKNS_14CwiseNullaryOpINS0_18scalar_constant_opIdEEKS8_EEKNS6_ISL_Li16ESA_EEEESR_EESR_EEEENS0_13add_assign_opIddEELi0EEEEEvRT_ll, symObjAddr: 0x30B2C, symBinAddr: 0x1000312BC, symSize: 0x1C }
  - { offset: 0x178572, size: 0x8, addend: 0x0, symName: __ZNK5Eigen13CwiseBinaryOpINS_8internal13scalar_sum_opIddEEKNS0_IS3_KNS0_INS1_17scalar_product_opIddEEKNS_14CwiseNullaryOpINS1_18scalar_constant_opIdEEKNS_6MatrixIdLin1ELi1ELi0ELin1ELi1EEEEEKNS_3MapISB_Li16ENS_6StrideILi0ELi0EEEEEEESK_EESK_E4colsEv, symObjAddr: 0x30B0C, symBinAddr: 0x10003129C, symSize: 0x20 }
  - { offset: 0x17859C, size: 0x8, addend: 0x0, symName: __ZNK5Eigen13CwiseBinaryOpINS_8internal13scalar_sum_opIddEEKNS0_IS3_KNS0_INS1_17scalar_product_opIddEEKNS_14CwiseNullaryOpINS1_18scalar_constant_opIdEEKNS_6MatrixIdLin1ELi1ELi0ELin1ELi1EEEEEKNS_3MapISB_Li16ENS_6StrideILi0ELi0EEEEEEESK_EESK_E4rowsEv, symObjAddr: 0x30AEC, symBinAddr: 0x10003127C, symSize: 0x20 }
  - { offset: 0x1785EE, size: 0x8, addend: 0x0, symName: __ZN5Eigen8internal16binary_evaluatorINS_13CwiseBinaryOpINS0_13scalar_sum_opIddEEKNS2_IS4_KNS2_INS0_17scalar_product_opIddEEKNS_14CwiseNullaryOpINS0_18scalar_constant_opIdEEKNS_6MatrixIdLin1ELi1ELi0ELin1ELi1EEEEEKNS_3MapISC_Li16ENS_6StrideILi0ELi0EEEEEEESL_EESL_EENS0_10IndexBasedESP_ddEC2ERKSO_, symObjAddr: 0x30AA0, symBinAddr: 0x100031230, symSize: 0x4C }
  - { offset: 0x178619, size: 0x8, addend: 0x0, symName: __ZN5Eigen8internal31unaligned_dense_assignment_loopILb0EE3runINS0_31generic_dense_assignment_kernelINS0_9evaluatorINS_3MapINS_6MatrixIdLin1ELi1ELi0ELin1ELi1EEELi16ENS_6StrideILi0ELi0EEEEEEENS5_INS_13CwiseBinaryOpINS0_13scalar_sum_opIddEEKNSD_INS0_17scalar_product_opIddEEKNS_14CwiseNullaryOpINS0_18scalar_constant_opIdEEKS8_EEKNS6_ISL_Li16ESA_EEEESR_EEEENS0_13add_assign_opIddEELi0EEEEEvRT_ll, symObjAddr: 0x30A48, symBinAddr: 0x1000311D8, symSize: 0x58 }
  - { offset: 0x178696, size: 0x8, addend: 0x0, symName: __ZN5Eigen8internal31generic_dense_assignment_kernelINS0_9evaluatorINS_3MapINS_6MatrixIdLin1ELi1ELi0ELin1ELi1EEELi16ENS_6StrideILi0ELi0EEEEEEENS2_INS_13CwiseBinaryOpINS0_13scalar_sum_opIddEEKNSA_INS0_17scalar_product_opIddEEKNS_14CwiseNullaryOpINS0_18scalar_constant_opIdEEKS5_EEKNS3_ISI_Li16ES7_EEEESO_EEEENS0_13add_assign_opIddEELi0EE12assignPacketILi16ELi16E13__Float64x2_tEEvl, symObjAddr: 0x309DC, symBinAddr: 0x10003116C, symSize: 0x6C }
  - { offset: 0x1786EA, size: 0x8, addend: 0x0, symName: __ZN5Eigen8internal31unaligned_dense_assignment_loopILb1EE3runINS0_31generic_dense_assignment_kernelINS0_9evaluatorINS_3MapINS_6MatrixIdLin1ELi1ELi0ELin1ELi1EEELi16ENS_6StrideILi0ELi0EEEEEEENS5_INS_13CwiseBinaryOpINS0_13scalar_sum_opIddEEKNSD_INS0_17scalar_product_opIddEEKNS_14CwiseNullaryOpINS0_18scalar_constant_opIdEEKS8_EEKNS6_ISL_Li16ESA_EEEESR_EEEENS0_13add_assign_opIddEELi0EEEEEvRT_ll, symObjAddr: 0x309C0, symBinAddr: 0x100031150, symSize: 0x1C }
  - { offset: 0x178753, size: 0x8, addend: 0x0, symName: __ZN5Eigen8internal16binary_evaluatorINS_13CwiseBinaryOpINS0_13scalar_sum_opIddEEKNS2_INS0_17scalar_product_opIddEEKNS_14CwiseNullaryOpINS0_18scalar_constant_opIdEEKNS_6MatrixIdLin1ELi1ELi0ELin1ELi1EEEEEKNS_3MapISC_Li16ENS_6StrideILi0ELi0EEEEEEESL_EENS0_10IndexBasedESN_ddEC2ERKSM_, symObjAddr: 0x30974, symBinAddr: 0x100031104, symSize: 0x4C }
  - { offset: 0x17877E, size: 0x8, addend: 0x0, symName: __ZN5Eigen8internal31unaligned_dense_assignment_loopILb0EE3runINS0_31generic_dense_assignment_kernelINS0_9evaluatorINS_3MapINS_6MatrixIdLin1ELi1ELi0ELin1ELi1EEELi16ENS_6StrideILi0ELi0EEEEEEENS5_INS_13CwiseBinaryOpINS0_17scalar_product_opIddEEKNS_14CwiseNullaryOpINS0_18scalar_constant_opIdEEKS8_EEKNS6_ISJ_Li16ESA_EEEEEENS0_13add_assign_opIddEELi0EEEEEvRT_ll, symObjAddr: 0x3091C, symBinAddr: 0x1000310AC, symSize: 0x58 }
  - { offset: 0x1787FB, size: 0x8, addend: 0x0, symName: __ZN5Eigen8internal31generic_dense_assignment_kernelINS0_9evaluatorINS_3MapINS_6MatrixIdLin1ELi1ELi0ELin1ELi1EEELi16ENS_6StrideILi0ELi0EEEEEEENS2_INS_13CwiseBinaryOpINS0_17scalar_product_opIddEEKNS_14CwiseNullaryOpINS0_18scalar_constant_opIdEEKS5_EEKNS3_ISG_Li16ES7_EEEEEENS0_13add_assign_opIddEELi0EE12assignPacketILi16ELi16E13__Float64x2_tEEvl, symObjAddr: 0x308B0, symBinAddr: 0x100031040, symSize: 0x6C }
  - { offset: 0x17884F, size: 0x8, addend: 0x0, symName: __ZN5Eigen8internal31unaligned_dense_assignment_loopILb1EE3runINS0_31generic_dense_assignment_kernelINS0_9evaluatorINS_3MapINS_6MatrixIdLin1ELi1ELi0ELin1ELi1EEELi16ENS_6StrideILi0ELi0EEEEEEENS5_INS_13CwiseBinaryOpINS0_17scalar_product_opIddEEKNS_14CwiseNullaryOpINS0_18scalar_constant_opIdEEKS8_EEKNS6_ISJ_Li16ESA_EEEEEENS0_13add_assign_opIddEELi0EEEEEvRT_ll, symObjAddr: 0x30894, symBinAddr: 0x100031024, symSize: 0x1C }
  - { offset: 0x178890, size: 0x8, addend: 0x0, symName: __ZNK5Eigen9EigenBaseINS_3MapINS_6MatrixIdLin1ELi1ELi0ELin1ELi1EEELi16ENS_6StrideILi0ELi0EEEEEE4sizeEv, symObjAddr: 0x30860, symBinAddr: 0x100030FF0, symSize: 0x34 }
  - { offset: 0x1788E2, size: 0x8, addend: 0x0, symName: __ZN5Eigen8internal17mapbase_evaluatorINS_3MapINS_6MatrixIdLin1ELi1ELi0ELin1ELi1EEELi16ENS_6StrideILi0ELi0EEEEES4_EC2ERKS7_, symObjAddr: 0x307D4, symBinAddr: 0x100030F64, symSize: 0x8C }
  - { offset: 0x178939, size: 0x8, addend: 0x0, symName: __ZN5Eigen8internal16binary_evaluatorINS_13CwiseBinaryOpINS0_17scalar_product_opIddEEKNS_14CwiseNullaryOpINS0_18scalar_constant_opIdEEKNS_6MatrixIdLin1ELi1ELi0ELin1ELi1EEEEEKNS_3MapISA_Li16ENS_6StrideILi0ELi0EEEEEEENS0_10IndexBasedESJ_ddEC2ERKSI_, symObjAddr: 0x30788, symBinAddr: 0x100030F18, symSize: 0x4C }
  - { offset: 0x178964, size: 0x8, addend: 0x0, symName: __ZN5Eigen8internal26call_dense_assignment_loopINS_3MapINS_6MatrixIdLin1ELin1ELi0ELin1ELin1EEELi0ENS_11OuterStrideILin1EEEEENS_14CwiseNullaryOpINS0_18scalar_constant_opIdEES4_EENS0_9assign_opIddEEEEvRT_RKT0_RKT1_, symObjAddr: 0x306D8, symBinAddr: 0x100030E68, symSize: 0xB0 }
  - { offset: 0x178A4B, size: 0x8, addend: 0x0, symName: __ZN5Eigen8internal9evaluatorINS_3MapINS_6MatrixIdLin1ELin1ELi0ELin1ELin1EEELi0ENS_11OuterStrideILin1EEEEEED1Ev, symObjAddr: 0x306B8, symBinAddr: 0x100030E48, symSize: 0x20 }
  - { offset: 0x178A8F, size: 0x8, addend: 0x0, symName: __ZN5Eigen8internal17mapbase_evaluatorINS_3MapINS_6MatrixIdLin1ELin1ELi0ELin1ELin1EEELi0ENS_11OuterStrideILin1EEEEES4_ED2Ev, symObjAddr: 0x30698, symBinAddr: 0x100030E28, symSize: 0x20 }
  - { offset: 0x178AD3, size: 0x8, addend: 0x0, symName: __ZN5Eigen8internal9evaluatorINS_14CwiseNullaryOpINS0_18scalar_constant_opIdEENS_6MatrixIdLin1ELin1ELi0ELin1ELin1EEEEEED1Ev, symObjAddr: 0x30678, symBinAddr: 0x100030E08, symSize: 0x20 }
  - { offset: 0x178AF5, size: 0x8, addend: 0x0, symName: __ZN5Eigen8internal18check_for_aliasingINS_3MapINS_6MatrixIdLin1ELin1ELi0ELin1ELin1EEELi0ENS_11OuterStrideILin1EEEEENS_14CwiseNullaryOpINS0_18scalar_constant_opIdEES4_EEEEvRKT_RKT0_, symObjAddr: 0x30618, symBinAddr: 0x100030DA8, symSize: 0x60 }
  - { offset: 0x178B46, size: 0x8, addend: 0x0, symName: __ZNK5Eigen18TriangularViewImplINS_3MapINS_6MatrixIdLin1ELin1ELi0ELin1ELin1EEELi0ENS_11OuterStrideILin1EEEEELj5ENS_5DenseEE12solveInPlaceILi1ENS1_IS3_Li16ES5_EEEEvRKNS_10MatrixBaseIT0_EE, symObjAddr: 0x30508, symBinAddr: 0x100030C98, symSize: 0x110 }
  - { offset: 0x178BD9, size: 0x8, addend: 0x0, symName: __ZN5Eigen7MapBaseINS_3MapINS_6MatrixIdLin1ELin1ELi0ELin1ELin1EEELi16ENS_11OuterStrideILin1EEEEELi1EEaSERKS7_, symObjAddr: 0x304DC, symBinAddr: 0x100030C6C, symSize: 0x2C }
  - { offset: 0x178C61, size: 0x8, addend: 0x0, symName: __ZNK5Eigen8internal18scalar_constant_opIiEclEv, symObjAddr: 0x304C4, symBinAddr: 0x100030C54, symSize: 0x18 }
  - { offset: 0x178C8B, size: 0x8, addend: 0x0, symName: __ZNK5Eigen14CwiseNullaryOpINS_8internal18scalar_constant_opIiEENS_6MatrixIiLin1ELi1ELi0ELin1ELi1EEEE7functorEv, symObjAddr: 0x304AC, symBinAddr: 0x100030C3C, symSize: 0x18 }
  - { offset: 0x178CB1, size: 0x8, addend: 0x0, symName: __ZN5Eigen8internal17resize_if_allowedINS_6MatrixIiLin1ELi1ELi0ELin1ELi1EEENS_14CwiseNullaryOpINS0_18scalar_constant_opIiEES3_EEiiEEvRT_RKT0_RKNS0_9assign_opIT1_T2_EE, symObjAddr: 0x30394, symBinAddr: 0x100030B24, symSize: 0x118 }
  - { offset: 0x178D45, size: 0x8, addend: 0x0, symName: __ZN5Eigen8internal21dense_assignment_loopINS0_31generic_dense_assignment_kernelINS0_9evaluatorINS_5BlockINS_6MatrixIiLin1ELi1ELi0ELin1ELi1EEELin1ELi1ELb0EEEEENS3_IS6_EENS0_9assign_opIiiEELi0EEELi3ELi0EE3runERSC_, symObjAddr: 0x302DC, symBinAddr: 0x100030A6C, symSize: 0xB8 }
  - { offset: 0x178DF3, size: 0x8, addend: 0x0, symName: __ZNK5Eigen8internal31generic_dense_assignment_kernelINS0_9evaluatorINS_5BlockINS_6MatrixIiLin1ELi1ELi0ELin1ELi1EEELin1ELi1ELb0EEEEENS2_IS5_EENS0_9assign_opIiiEELi0EE4sizeEv, symObjAddr: 0x302BC, symBinAddr: 0x100030A4C, symSize: 0x20 }
  - { offset: 0x178E6F, size: 0x8, addend: 0x0, symName: __ZN5Eigen8internal31generic_dense_assignment_kernelINS0_9evaluatorINS_5BlockINS_6MatrixIiLin1ELi1ELi0ELin1ELi1EEELin1ELi1ELb0EEEEENS2_IS5_EENS0_9assign_opIiiEELi0EEC1ERS7_RKS8_RKSA_RS6_, symObjAddr: 0x30268, symBinAddr: 0x1000309F8, symSize: 0x54 }
  - { offset: 0x178EB5, size: 0x8, addend: 0x0, symName: __ZN5Eigen8internal17resize_if_allowedINS_5BlockINS_6MatrixIiLin1ELi1ELi0ELin1ELi1EEELin1ELi1ELb0EEES4_iiEEvRT_RKT0_RKNS0_9assign_opIT1_T2_EE, symObjAddr: 0x30150, symBinAddr: 0x1000308E0, symSize: 0x118 }
  - { offset: 0x178F49, size: 0x8, addend: 0x0, symName: __ZN5Eigen8internal26call_dense_assignment_loopINS_6MatrixIiLin1ELi1ELi0ELin1ELi1EEENS_5BlockIS3_Lin1ELi1ELb0EEENS0_9assign_opIiiEEEEvRT_RKT0_RKT1_, symObjAddr: 0x300A0, symBinAddr: 0x100030830, symSize: 0xB0 }
  - { offset: 0x17900D, size: 0x8, addend: 0x0, symName: __ZN5Eigen8internal18check_for_aliasingINS_6MatrixIiLin1ELi1ELi0ELin1ELi1EEENS_5BlockIS3_Lin1ELi1ELb0EEEEEvRKT_RKT0_, symObjAddr: 0x30088, symBinAddr: 0x100030818, symSize: 0x18 }
  - { offset: 0x17905A, size: 0x8, addend: 0x0, symName: __ZN5Eigen8internal21dense_assignment_loopINS0_31generic_dense_assignment_kernelINS0_9evaluatorINS_5BlockINS_6MatrixIdLin1ELi1ELi0ELin1ELi1EEELin1ELi1ELb0EEEEENS3_IS6_EENS0_9assign_opIddEELi0EEELi3ELi0EE3runERSC_, symObjAddr: 0x2FFD4, symBinAddr: 0x100030764, symSize: 0xB4 }
  - { offset: 0x179108, size: 0x8, addend: 0x0, symName: __ZNK5Eigen8internal31generic_dense_assignment_kernelINS0_9evaluatorINS_5BlockINS_6MatrixIdLin1ELi1ELi0ELin1ELi1EEELin1ELi1ELb0EEEEENS2_IS5_EENS0_9assign_opIddEELi0EE4sizeEv, symObjAddr: 0x2FFB4, symBinAddr: 0x100030744, symSize: 0x20 }
  - { offset: 0x179184, size: 0x8, addend: 0x0, symName: __ZN5Eigen8internal31generic_dense_assignment_kernelINS0_9evaluatorINS_5BlockINS_6MatrixIdLin1ELi1ELi0ELin1ELi1EEELin1ELi1ELb0EEEEENS2_IS5_EENS0_9assign_opIddEELi0EEC1ERS7_RKS8_RKSA_RS6_, symObjAddr: 0x2FF60, symBinAddr: 0x1000306F0, symSize: 0x54 }
  - { offset: 0x1791CA, size: 0x8, addend: 0x0, symName: __ZN5Eigen8internal17resize_if_allowedINS_5BlockINS_6MatrixIdLin1ELi1ELi0ELin1ELi1EEELin1ELi1ELb0EEES4_ddEEvRT_RKT0_RKNS0_9assign_opIT1_T2_EE, symObjAddr: 0x2FE48, symBinAddr: 0x1000305D8, symSize: 0x118 }
  - { offset: 0x17925E, size: 0x8, addend: 0x0, symName: __ZN5Eigen8internal26call_dense_assignment_loopINS_6MatrixIdLin1ELi1ELi0ELin1ELi1EEENS_5BlockIS3_Lin1ELi1ELb0EEENS0_9assign_opIddEEEEvRT_RKT0_RKT1_, symObjAddr: 0x2FD98, symBinAddr: 0x100030528, symSize: 0xB0 }
  - { offset: 0x179322, size: 0x8, addend: 0x0, symName: __ZN5Eigen8internal18check_for_aliasingINS_6MatrixIdLin1ELi1ELi0ELin1ELi1EEENS_5BlockIS3_Lin1ELi1ELb0EEEEEvRKT_RKT0_, symObjAddr: 0x2FD80, symBinAddr: 0x100030510, symSize: 0x18 }
  - { offset: 0x17936F, size: 0x8, addend: 0x0, symName: __ZN5Eigen8internal31unaligned_dense_assignment_loopILb0EE3runINS0_31generic_dense_assignment_kernelINS0_9evaluatorINS_6MatrixIiLin1ELi1ELi0ELin1ELi1EEEEES8_NS0_9assign_opIiiEELi0EEEEEvRT_ll, symObjAddr: 0x2FD28, symBinAddr: 0x1000304B8, symSize: 0x58 }
